; ModuleID = 'simple_poc.6jgvt9yu-cgu.0'
source_filename = "simple_poc.6jgvt9yu-cgu.0"
target datalayout = "e-m:e-p270:32:32-p271:32:32-p272:64:64-i64:64-f80:128-n8:16:32:64-S128"
target triple = "x86_64-unknown-linux-gnu"

%"std::panic::Location" = type { [0 x i64], { [0 x i8]*, i64 }, [0 x i32], i32, [0 x i32], i32, [0 x i32] }
%"unwind::libunwind::_Unwind_Exception" = type { [0 x i64], i64, [0 x i64], void (i32, %"unwind::libunwind::_Unwind_Exception"*)*, [0 x i64], [6 x i64], [0 x i64] }
%"unwind::libunwind::_Unwind_Context" = type { [0 x i8] }

@vtable.0 = private unnamed_addr constant { void (i64**)*, i64, i64, i32 (i64**)*, i32 (i64**)*, i32 (i64**)* } { void (i64**)* @_ZN4core3ptr13drop_in_place17h9972b92d86fe9a4eE, i64 8, i64 8, i32 (i64**)* @"_ZN3std2rt10lang_start28_$u7b$$u7b$closure$u7d$$u7d$17h066065a8fcbdf1f5E", i32 (i64**)* @"_ZN3std2rt10lang_start28_$u7b$$u7b$closure$u7d$$u7d$17h066065a8fcbdf1f5E", i32 (i64**)* @"_ZN4core3ops8function6FnOnce40call_once$u7b$$u7b$vtable.shim$u7d$$u7d$17h0c0d263fdecb82a6E" }, align 8
@METASAFE_TYPE_ID = external thread_local local_unnamed_addr global i64
@alloc33 = private unnamed_addr constant <{ [43 x i8] }> <{ [43 x i8] c"MetaSafe: Vec has len greater than capacity" }>, align 1
@alloc34 = private unnamed_addr constant <{ [66 x i8] }> <{ [66 x i8] c"/home/martin/projects/metasafe/trust/rust/library/alloc/src/vec.rs" }>, align 1
@alloc35 = private unnamed_addr constant <{ i8*, [16 x i8] }> <{ i8* getelementptr inbounds (<{ [66 x i8] }>, <{ [66 x i8] }>* @alloc34, i32 0, i32 0, i32 0), [16 x i8] c"B\00\00\00\00\00\00\006\01\00\00\0D\00\00\00" }>, align 8
@METASAFE_UNSAFE_START = external local_unnamed_addr global i64
@METASAFE_UNSAFE_END = external local_unnamed_addr global i64

; std::sys_common::backtrace::__rust_begin_short_backtrace
; Function Attrs: noinline nonlazybind uwtable
define internal fastcc void @_ZN3std10sys_common9backtrace28__rust_begin_short_backtrace17h0325b45809c9f55bE(void ()* mpk_immut nocapture nonnull %f) unnamed_addr #0 personality i32 (i32, i32, i64, %"unwind::libunwind::_Unwind_Exception"*, %"unwind::libunwind::_Unwind_Context"*)* @rust_eh_personality {
start:
  %dummy.i = alloca {}, align 1
  tail call void %f()
  %0 = bitcast {}* %dummy.i to i8*
  call void @llvm.lifetime.start.p0i8(i64 0, i8* nonnull %0)
  call void asm sideeffect "", "r,~{memory},~{dirflag},~{fpsr},~{flags}"({}* nonnull %dummy.i) #7, !srcloc !3
  call void @llvm.lifetime.end.p0i8(i64 0, i8* nonnull %0)
  ret void
}

; std::rt::lang_start
; Function Attrs: nonlazybind uwtable
define hidden i64 @_ZN3std2rt10lang_start17hb250afb5ce04a267E(void ()* mpk_immut nonnull %main, i64 %argc, i8** mpk_immut %argv) unnamed_addr #1 {
start:
  %_7 = alloca i64*, align 8
  %0 = bitcast i64** %_7 to i8*
  call void @llvm.lifetime.start.p0i8(i64 8, i8* nonnull %0)
  %1 = bitcast i64** %_7 to void ()**
  store void ()* %main, void ()** %1, align 8
  %_4.0 = bitcast i64** %_7 to {}*
; call std::rt::lang_start_internal
  %2 = call i64 @_ZN3std2rt19lang_start_internal17h2677a686eee71786E({}* mpk_immut nonnull align 1 %_4.0, [3 x i64]* mpk_immut noalias readonly align 8 dereferenceable(24) bitcast ({ void (i64**)*, i64, i64, i32 (i64**)*, i32 (i64**)*, i32 (i64**)* }* @vtable.0 to [3 x i64]*), i64 %argc, i8** mpk_immut %argv)
  call void @llvm.lifetime.end.p0i8(i64 8, i8* nonnull %0)
  ret i64 %2
}

; std::rt::lang_start::{{closure}}
; Function Attrs: nonlazybind uwtable
define internal i32 @"_ZN3std2rt10lang_start28_$u7b$$u7b$closure$u7d$$u7d$17h066065a8fcbdf1f5E"(i64** mpk_immut noalias nocapture readonly align 8 dereferenceable(8) %_1) unnamed_addr #1 {
start:
  %0 = bitcast i64** %_1 to void ()**
  %_3 = load void ()*, void ()** %0, align 8, !nonnull !4
; call std::sys_common::backtrace::__rust_begin_short_backtrace
  tail call fastcc void @_ZN3std10sys_common9backtrace28__rust_begin_short_backtrace17h0325b45809c9f55bE(void ()* mpk_immut nonnull %_3)
  ret i32 0
}

; core::ops::function::FnOnce::call_once{{vtable.shim}}
; Function Attrs: nonlazybind uwtable
define internal i32 @"_ZN4core3ops8function6FnOnce40call_once$u7b$$u7b$vtable.shim$u7d$$u7d$17h0c0d263fdecb82a6E"(i64** nocapture readonly %_1) unnamed_addr #1 personality i32 (i32, i32, i64, %"unwind::libunwind::_Unwind_Exception"*, %"unwind::libunwind::_Unwind_Context"*)* @rust_eh_personality {
start:
  %0 = bitcast i64** %_1 to void ()**
  %1 = load void ()*, void ()** %0, align 8, !nonnull !4
; call std::sys_common::backtrace::__rust_begin_short_backtrace
  tail call fastcc void @_ZN3std10sys_common9backtrace28__rust_begin_short_backtrace17h0325b45809c9f55bE(void ()* mpk_immut nonnull %1), !noalias !5
  ret i32 0
}

; core::ptr::drop_in_place
; Function Attrs: norecurse nounwind nonlazybind readnone uwtable
define internal void @_ZN4core3ptr13drop_in_place17h9972b92d86fe9a4eE(i64** mpk_unsafe nocapture %_1) unnamed_addr #2 {
start:
  ret void
}

; simple_poc::main
; Function Attrs: nonlazybind uwtable
define internal void @_ZN10simple_poc4main17h08a2ca7cc8b67d63E() unnamed_addr #1 personality i32 (i32, i32, i64, %"unwind::libunwind::_Unwind_Exception"*, %"unwind::libunwind::_Unwind_Context"*)* @rust_eh_personality {
start:
  store i64 1, i64* @METASAFE_UNSAFE_START, align 8
  store i64 1, i64* @METASAFE_UNSAFE_END, align 8
  store i64 -5015437470765251660, i64* @METASAFE_TYPE_ID, align 8
; call core::panicking::panic
  tail call void @_ZN4core9panicking5panic17hc14ab8d72efd34afE([0 x i8]* mpk_immut noalias nonnull readonly align 1 bitcast (<{ [43 x i8] }>* @alloc33 to [0 x i8]*), i64 43, %"std::panic::Location"* mpk_immut noalias readonly align 8 dereferenceable(24) bitcast (<{ i8*, [16 x i8] }>* @alloc35 to %"std::panic::Location"*))
  unreachable
}

; Function Attrs: mpk_extern nounwind nonlazybind uwtable
declare i32 @rust_eh_personality(i32, i32, i64, %"unwind::libunwind::_Unwind_Exception"* mpk_unsafe, %"unwind::libunwind::_Unwind_Context"* mpk_unsafe) unnamed_addr #3

; Function Attrs: argmemonly nounwind willreturn
declare void @llvm.lifetime.start.p0i8(i64 immarg, i8* nocapture) #4

; Function Attrs: argmemonly nounwind willreturn
declare void @llvm.lifetime.end.p0i8(i64 immarg, i8* nocapture) #4

; std::rt::lang_start_internal
; Function Attrs: nonlazybind uwtable
declare i64 @_ZN3std2rt19lang_start_internal17h2677a686eee71786E({}* mpk_immut nonnull align 1, [3 x i64]* mpk_immut noalias readonly align 8 dereferenceable(24), i64, i8** mpk_immut) unnamed_addr #1

; core::panicking::panic
; Function Attrs: cold noinline noreturn nonlazybind uwtable
declare void @_ZN4core9panicking5panic17hc14ab8d72efd34afE([0 x i8]* mpk_immut noalias nonnull readonly align 1, i64, %"std::panic::Location"* mpk_immut noalias readonly align 8 dereferenceable(24)) unnamed_addr #5

; Function Attrs: mpk_extern nonlazybind
define i32 @main(i32 %0, i8** %1) unnamed_addr #6 {
top:
  %_7.i = alloca i64*, align 8
  %2 = sext i32 %0 to i64
  %3 = bitcast i64** %_7.i to i8*
  call void @llvm.lifetime.start.p0i8(i64 8, i8* nonnull %3)
  %4 = bitcast i64** %_7.i to void ()**
  store void ()* @_ZN10simple_poc4main17h08a2ca7cc8b67d63E, void ()** %4, align 8
  %_4.0.i = bitcast i64** %_7.i to {}*
; call std::rt::lang_start_internal
  %5 = call i64 @_ZN3std2rt19lang_start_internal17h2677a686eee71786E({}* mpk_immut nonnull align 1 %_4.0.i, [3 x i64]* mpk_immut noalias readonly align 8 dereferenceable(24) bitcast ({ void (i64**)*, i64, i64, i32 (i64**)*, i32 (i64**)*, i32 (i64**)* }* @vtable.0 to [3 x i64]*), i64 %2, i8** mpk_immut %1)
  call void @llvm.lifetime.end.p0i8(i64 8, i8* nonnull %3)
  %6 = trunc i64 %5 to i32
  ret i32 %6
}

attributes #0 = { noinline nonlazybind uwtable "probe-stack"="__rust_probestack" "target-cpu"="x86-64" }
attributes #1 = { nonlazybind uwtable "probe-stack"="__rust_probestack" "target-cpu"="x86-64" }
attributes #2 = { norecurse nounwind nonlazybind readnone uwtable "probe-stack"="__rust_probestack" "target-cpu"="x86-64" }
attributes #3 = { mpk_extern nounwind nonlazybind uwtable "probe-stack"="__rust_probestack" "target-cpu"="x86-64" }
attributes #4 = { argmemonly nounwind willreturn }
attributes #5 = { cold noinline noreturn nonlazybind uwtable "probe-stack"="__rust_probestack" "target-cpu"="x86-64" }
attributes #6 = { mpk_extern nonlazybind "probe-stack"="__rust_probestack" "target-cpu"="x86-64" }
attributes #7 = { nounwind }

!llvm.module.flags = !{!0, !1, !2}

!0 = !{i32 7, !"PIC Level", i32 2}
!1 = !{i32 7, !"PIE Level", i32 2}
!2 = !{i32 2, !"RtLibUseGOT", i32 1}
!3 = !{i32 2706160}
!4 = !{}
!5 = !{!6}
!6 = distinct !{!6, !7, !"_ZN3std2rt10lang_start28_$u7b$$u7b$closure$u7d$$u7d$17h066065a8fcbdf1f5E: %_1"}
!7 = distinct !{!7, !"_ZN3std2rt10lang_start28_$u7b$$u7b$closure$u7d$$u7d$17h066065a8fcbdf1f5E"}
