; ModuleID = 'build_script_build.3sl56qhn-cgu.0'
source_filename = "build_script_build.3sl56qhn-cgu.0"
target datalayout = "e-m:e-p270:32:32-p271:32:32-p272:64:64-i64:64-f80:128-n8:16:32:64-S128"
target triple = "x86_64-unknown-linux-gnu"

%"std::ffi::OsStr" = type { [0 x i8], %"std::sys_common::os_str_bytes::Slice" }
%"std::sys_common::os_str_bytes::Slice" = type { [0 x i8], [0 x i8] }
%"std::ffi::OsString" = type { [0 x i64], %"std::sys_common::os_str_bytes::Buf", [0 x i64] }
%"std::sys_common::os_str_bytes::Buf" = type { [0 x i64], %"std::vec::Vec<u8>", [0 x i64] }
%"std::vec::Vec<u8>" = type { [0 x i64], { i8*, i64 }, [0 x i64], i64, [0 x i64] }
%"std::panic::Location" = type { [0 x i64], { [0 x i8]*, i64 }, [0 x i32], i32, [0 x i32], i32, [0 x i32] }
%"std::option::Option<(std::ffi::OsString, std::option::Option<std::ffi::OsString>)>" = type { [0 x i64], {}*, [5 x i64] }
%"std::collections::btree_map::IntoIter<std::ffi::OsString, std::option::Option<std::ffi::OsString>>" = type { [0 x i64], %"std::option::Option<alloc::collections::btree::node::Handle<alloc::collections::btree::node::NodeRef<alloc::collections::btree::node::marker::Owned, std::ffi::OsString, std::option::Option<std::ffi::OsString>, alloc::collections::btree::node::marker::Leaf>, alloc::collections::btree::node::marker::Edge>>", [0 x i64], %"std::option::Option<alloc::collections::btree::node::Handle<alloc::collections::btree::node::NodeRef<alloc::collections::btree::node::marker::Owned, std::ffi::OsString, std::option::Option<std::ffi::OsString>, alloc::collections::btree::node::marker::Leaf>, alloc::collections::btree::node::marker::Edge>>", [0 x i64], i64, [0 x i64] }
%"std::option::Option<alloc::collections::btree::node::Handle<alloc::collections::btree::node::NodeRef<alloc::collections::btree::node::marker::Owned, std::ffi::OsString, std::option::Option<std::ffi::OsString>, alloc::collections::btree::node::marker::Leaf>, alloc::collections::btree::node::marker::Edge>>" = type { [1 x i64], {}*, [1 x i64] }
%"std::option::Option<std::ffi::OsString>" = type { [0 x i64], {}*, [2 x i64] }
%"alloc::collections::btree::node::Handle<alloc::collections::btree::node::NodeRef<alloc::collections::btree::node::marker::Owned, std::ffi::OsString, std::option::Option<std::ffi::OsString>, alloc::collections::btree::node::marker::Leaf>, alloc::collections::btree::node::marker::Edge>" = type { [0 x i8], %"std::marker::PhantomData<alloc::collections::btree::node::marker::Edge>", [0 x i8], { i64, i64* }, [0 x i64], i64, [0 x i64] }
%"std::marker::PhantomData<alloc::collections::btree::node::marker::Edge>" = type {}
%"std::option::Option<(std::ffi::OsString, std::option::Option<std::ffi::OsString>)>::Some" = type { [0 x i64], { [0 x i64], %"std::ffi::OsString", [0 x i64], %"std::option::Option<std::ffi::OsString>", [0 x i64] }, [0 x i64] }
%"std::collections::BTreeMap<std::ffi::OsString, std::option::Option<std::ffi::OsString>>" = type { [0 x i64], { i64*, i64 }, [0 x i64], i64, [0 x i64] }
%"std::mem::ManuallyDrop<std::collections::BTreeMap<std::ffi::OsString, std::option::Option<std::ffi::OsString>>>" = type { [0 x i64], %"std::collections::BTreeMap<std::ffi::OsString, std::option::Option<std::ffi::OsString>>", [0 x i64] }
%"std::option::Option<alloc::collections::btree::node::Handle<alloc::collections::btree::node::NodeRef<alloc::collections::btree::node::marker::Owned, std::ffi::OsString, std::option::Option<std::ffi::OsString>, alloc::collections::btree::node::marker::Leaf>, alloc::collections::btree::node::marker::Edge>>::Some" = type { [0 x i64], %"alloc::collections::btree::node::Handle<alloc::collections::btree::node::NodeRef<alloc::collections::btree::node::marker::Owned, std::ffi::OsString, std::option::Option<std::ffi::OsString>, alloc::collections::btree::node::marker::Leaf>, alloc::collections::btree::node::marker::Edge>", [0 x i64] }
%"alloc::collections::btree::node::LeafNode<std::ffi::OsString, std::option::Option<std::ffi::OsString>>" = type { [0 x i64], i64*, [0 x i64], [11 x %"std::mem::MaybeUninit<std::ffi::OsString>"], [0 x i64], [11 x %"std::mem::MaybeUninit<std::option::Option<std::ffi::OsString>>"], [0 x i16], i16, [0 x i16], i16, [2 x i16] }
%"std::mem::MaybeUninit<std::ffi::OsString>" = type { [3 x i64] }
%"std::mem::MaybeUninit<std::option::Option<std::ffi::OsString>>" = type { [3 x i64] }
%"alloc::collections::btree::node::Handle<alloc::collections::btree::node::NodeRef<alloc::collections::btree::node::marker::Owned, std::ffi::OsString, std::option::Option<std::ffi::OsString>, alloc::collections::btree::node::marker::Internal>, alloc::collections::btree::node::marker::Edge>" = type { [0 x i8], %"std::marker::PhantomData<alloc::collections::btree::node::marker::Edge>", [0 x i8], { i64, i64* }, [0 x i64], i64, [0 x i64] }
%"std::option::Option<alloc::collections::btree::node::Handle<alloc::collections::btree::node::NodeRef<alloc::collections::btree::node::marker::Owned, std::ffi::OsString, std::option::Option<std::ffi::OsString>, alloc::collections::btree::node::marker::Internal>, alloc::collections::btree::node::marker::Edge>>" = type { [1 x i64], {}*, [1 x i64] }
%"std::option::Option<alloc::collections::btree::node::Handle<alloc::collections::btree::node::NodeRef<alloc::collections::btree::node::marker::Owned, std::ffi::OsString, std::option::Option<std::ffi::OsString>, alloc::collections::btree::node::marker::Internal>, alloc::collections::btree::node::marker::Edge>>::Some" = type { [0 x i64], %"alloc::collections::btree::node::Handle<alloc::collections::btree::node::NodeRef<alloc::collections::btree::node::marker::Owned, std::ffi::OsString, std::option::Option<std::ffi::OsString>, alloc::collections::btree::node::marker::Internal>, alloc::collections::btree::node::marker::Edge>", [0 x i64] }
%"[closure@std::rt::begin_panic<&str>::{closure#0}]" = type { [0 x i64], { [0 x i8]*, i64 }, [0 x i64], %"std::panic::Location"*, [0 x i64] }
%"std::result::Result<std::string::String, std::env::VarError>" = type { [0 x i64], i64, [3 x i64] }
%"std::process::Command" = type { [0 x i64], %"std::sys::unix::process::process_common::Command", [0 x i64] }
%"std::sys::unix::process::process_common::Command" = type { [0 x i64], { i8*, i64 }, [0 x i64], %"std::vec::Vec<std::ffi::CString>", [0 x i64], %"std::sys::unix::process::process_common::Argv", [0 x i64], %"std::sys_common::process::CommandEnv", [0 x i64], { i8*, i64 }, [0 x i64], %"std::vec::Vec<std::boxed::Box<dyn std::ops::FnMut() -> std::result::Result<(), std::io::Error> + std::marker::Send + std::marker::Sync>>", [0 x i32], { i32, i32 }, [0 x i32], { i32, i32 }, [0 x i32], { i32, i32 }, [0 x i32], { i32, i32 }, [0 x i32], { i32, i32 }, [0 x i8], i8, [7 x i8] }
%"std::vec::Vec<std::ffi::CString>" = type { [0 x i64], { i64*, i64 }, [0 x i64], i64, [0 x i64] }
%"std::sys::unix::process::process_common::Argv" = type { [0 x i64], %"std::vec::Vec<*const i8>", [0 x i64] }
%"std::vec::Vec<*const i8>" = type { [0 x i64], { i64*, i64 }, [0 x i64], i64, [0 x i64] }
%"std::sys_common::process::CommandEnv" = type { [0 x i64], %"std::collections::BTreeMap<std::ffi::OsString, std::option::Option<std::ffi::OsString>>", [0 x i8], i8, [0 x i8], i8, [6 x i8] }
%"std::vec::Vec<std::boxed::Box<dyn std::ops::FnMut() -> std::result::Result<(), std::io::Error> + std::marker::Send + std::marker::Sync>>" = type { [0 x i64], { i64*, i64 }, [0 x i64], i64, [0 x i64] }
%"std::fmt::Formatter" = type { [0 x i64], { i64, i64 }, [0 x i64], { i64, i64 }, [0 x i64], { {}*, [3 x i64]* }, [0 x i32], i32, [0 x i32], i32, [0 x i8], i8, [7 x i8] }
%"std::alloc::Global" = type {}
%"core::fmt::Opaque" = type {}
%"std::fmt::Arguments" = type { [0 x i64], { [0 x { [0 x i8]*, i64 }]*, i64 }, [0 x i64], { i64*, i64 }, [0 x i64], { [0 x { i8*, i64* }]*, i64 }, [0 x i64] }
%"std::mem::ManuallyDrop<alloc::collections::btree::mem::replace::PanicGuard>" = type { [0 x i8], %"alloc::collections::btree::mem::replace::PanicGuard", [0 x i8] }
%"alloc::collections::btree::mem::replace::PanicGuard" = type {}
%"std::string::FromUtf8Error" = type { [0 x i64], %"std::vec::Vec<u8>", [0 x i64], %"std::str::Utf8Error", [0 x i64] }
%"std::str::Utf8Error" = type { [0 x i64], i64, [0 x i8], { i8, i8 }, [6 x i8] }
%"std::option::Option<std::string::String>" = type { [0 x i64], {}*, [2 x i64] }
%"std::option::Option<std::string::String>::Some" = type { [0 x i64], %"std::string::String", [0 x i64] }
%"std::string::String" = type { [0 x i64], %"std::vec::Vec<u8>", [0 x i64] }
%"std::sys::unix::process::process_common::Stdio::Fd" = type { [1 x i32], i32, [0 x i32] }
%"std::io::Error" = type { [0 x i64], %"std::io::error::Repr", [0 x i64] }
%"std::io::error::Repr" = type { [0 x i8], i8, [15 x i8] }
%"std::io::error::Custom" = type { [0 x i64], { {}*, [3 x i64]* }, [0 x i8], i8, [7 x i8] }
%"std::option::Option<std::process::Output>" = type { [0 x i64], {}*, [6 x i64] }
%"std::option::Option<std::process::Output>::Some" = type { [0 x i64], %"std::process::Output", [0 x i64] }
%"std::process::Output" = type { [0 x i64], %"std::vec::Vec<u8>", [0 x i64], %"std::vec::Vec<u8>", [0 x i32], i32, [1 x i32] }
%"std::result::Result<std::process::Output, std::io::Error>" = type { [0 x i64], i64, [7 x i64] }
%"std::result::Result<std::process::Output, std::io::Error>::Ok" = type { [1 x i64], %"std::process::Output", [0 x i64] }
%"std::result::Result<std::process::Output, std::io::Error>::Err" = type { [1 x i64], %"std::io::Error", [0 x i64] }
%"std::result::Result<std::string::String, std::env::VarError>::Ok" = type { [1 x i64], %"std::string::String", [0 x i64] }
%"std::result::Result<std::string::String, std::env::VarError>::Err" = type { [1 x i64], %"std::env::VarError", [0 x i64] }
%"std::env::VarError" = type { [0 x i64], {}*, [2 x i64] }
%"std::env::VarError::NotUnicode" = type { [0 x i64], %"std::ffi::OsString", [0 x i64] }
%"std::result::Result<std::string::String, std::string::FromUtf8Error>" = type { [0 x i64], i64, [5 x i64] }
%"std::result::Result<std::string::String, std::string::FromUtf8Error>::Ok" = type { [1 x i64], %"std::string::String", [0 x i64] }
%"std::result::Result<std::string::String, std::string::FromUtf8Error>::Err" = type { [1 x i64], %"std::string::FromUtf8Error", [0 x i64] }
%"std::option::Option<std::ffi::OsString>::Some" = type { [0 x i64], %"std::ffi::OsString", [0 x i64] }
%"std::io::error::Repr::Custom" = type { [1 x i64], %"std::io::error::Custom"*, [0 x i64] }
%"std::ptr::Repr<u8>" = type { [2 x i64] }
%"std::ptr::Repr<std::ffi::CString>" = type { [2 x i64] }
%"std::ptr::Repr<std::boxed::Box<dyn std::ops::FnMut() -> std::result::Result<(), std::io::Error> + std::marker::Send + std::marker::Sync>>" = type { [2 x i64] }
%"std::ptr::Repr<*const i8>" = type { [2 x i64] }
%"std::mem::MaybeUninit<std::ptr::swap_nonoverlapping_bytes::UnalignedBlock>" = type { [4 x i64] }
%"std::ptr::swap_nonoverlapping_bytes::UnalignedBlock" = type { [0 x i64], i64, [0 x i64], i64, [0 x i64], i64, [0 x i64], i64, [0 x i64] }
%"std::mem::ManuallyDrop<alloc::collections::btree::node::Handle<alloc::collections::btree::node::NodeRef<alloc::collections::btree::node::marker::Owned, std::ffi::OsString, std::option::Option<std::ffi::OsString>, alloc::collections::btree::node::marker::Leaf>, alloc::collections::btree::node::marker::Edge>>" = type { [0 x i64], %"alloc::collections::btree::node::Handle<alloc::collections::btree::node::NodeRef<alloc::collections::btree::node::marker::Owned, std::ffi::OsString, std::option::Option<std::ffi::OsString>, alloc::collections::btree::node::marker::Leaf>, alloc::collections::btree::node::marker::Edge>", [0 x i64] }
%"std::mem::MaybeUninit<alloc::collections::btree::node::Handle<alloc::collections::btree::node::NodeRef<alloc::collections::btree::node::marker::Owned, std::ffi::OsString, std::option::Option<std::ffi::OsString>, alloc::collections::btree::node::marker::Leaf>, alloc::collections::btree::node::marker::Edge>>" = type { [3 x i64] }
%"std::mem::ManuallyDrop<std::ffi::OsString>" = type { [0 x i64], %"std::ffi::OsString", [0 x i64] }
%"std::mem::MaybeUninit<std::collections::BTreeMap<std::ffi::OsString, std::option::Option<std::ffi::OsString>>>" = type { [3 x i64] }
%"std::mem::MaybeUninit<std::alloc::Global>" = type { [0 x i8] }
%"std::mem::ManuallyDrop<std::option::Option<std::ffi::OsString>>" = type { [0 x i64], %"std::option::Option<std::ffi::OsString>", [0 x i64] }
%"std::mem::ManuallyDrop<std::option::Option<alloc::collections::btree::node::Handle<alloc::collections::btree::node::NodeRef<alloc::collections::btree::node::marker::Owned, std::ffi::OsString, std::option::Option<std::ffi::OsString>, alloc::collections::btree::node::marker::Leaf>, alloc::collections::btree::node::marker::Edge>>>" = type { [0 x i64], %"std::option::Option<alloc::collections::btree::node::Handle<alloc::collections::btree::node::NodeRef<alloc::collections::btree::node::marker::Owned, std::ffi::OsString, std::option::Option<std::ffi::OsString>, alloc::collections::btree::node::marker::Leaf>, alloc::collections::btree::node::marker::Edge>>", [0 x i64] }
%"std::mem::MaybeUninit<std::option::Option<alloc::collections::btree::node::Handle<alloc::collections::btree::node::NodeRef<alloc::collections::btree::node::marker::Owned, std::ffi::OsString, std::option::Option<std::ffi::OsString>, alloc::collections::btree::node::marker::Leaf>, alloc::collections::btree::node::marker::Edge>>>" = type { [3 x i64] }
%"std::marker::PhantomData<u8>" = type {}
%"alloc::collections::btree::node::InternalNode<std::ffi::OsString, std::option::Option<std::ffi::OsString>>" = type { [0 x i64], %"alloc::collections::btree::node::LeafNode<std::ffi::OsString, std::option::Option<std::ffi::OsString>>", [0 x i64], [12 x i8*], [0 x i64] }
%"std::result::Result<u32, std::num::ParseIntError>" = type { [0 x i8], i8, [7 x i8] }
%"std::str::Split<char>" = type { [0 x i64], %"core::str::iter::SplitInternal<char>", [0 x i64] }
%"core::str::iter::SplitInternal<char>" = type { [0 x i64], i64, [0 x i64], i64, [0 x i64], %"std::str::pattern::CharSearcher", [0 x i8], i8, [0 x i8], i8, [6 x i8] }
%"std::str::pattern::CharSearcher" = type { [0 x i64], { [0 x i8]*, i64 }, [0 x i64], i64, [0 x i64], i64, [0 x i64], i64, [0 x i32], i32, [0 x i8], [4 x i8], [0 x i8] }
%"std::option::Option<(usize, usize)>" = type { [0 x i64], i64, [2 x i64] }
%"std::option::Option<(usize, usize)>::Some" = type { [1 x i64], { i64, i64 }, [0 x i64] }
%"std::ops::RangeFull" = type {}
%"std::option::Option<usize>::Some" = type { [1 x i64], i64, [0 x i64] }
%"std::result::Result<&str, usize>" = type { [0 x i64], i64, [2 x i64] }
%"std::result::Result<(), usize>::Ok" = type { [8 x i8], {}, [0 x i8] }
%"std::result::Result<&str, usize>::Ok" = type { [1 x i64], { [0 x i8]*, i64 }, [0 x i64] }
%"std::result::Result<&str, usize>::Err" = type { [1 x i64], i64, [0 x i64] }
%"std::marker::PhantomData<&u8>" = type {}
%"std::result::Result<std::ptr::NonNull<u8>, std::alloc::AllocError>::Err" = type { [0 x i8], %"std::alloc::AllocError", [0 x i8] }
%"std::alloc::AllocError" = type {}
%"std::result::Result<&[u8], std::option::NoneError>::Err" = type { [0 x i8], %"std::option::NoneError", [0 x i8] }
%"std::option::NoneError" = type {}
%"std::result::Result<alloc::collections::btree::node::Handle<alloc::collections::btree::node::NodeRef<alloc::collections::btree::node::marker::Owned, std::ffi::OsString, std::option::Option<std::ffi::OsString>, alloc::collections::btree::node::marker::Internal>, alloc::collections::btree::node::marker::Edge>, alloc::collections::btree::node::NodeRef<alloc::collections::btree::node::marker::Owned, std::ffi::OsString, std::option::Option<std::ffi::OsString>, alloc::collections::btree::node::marker::LeafOrInternal>>" = type { [0 x i64], i64, [3 x i64] }
%"std::result::Result<alloc::collections::btree::node::Handle<alloc::collections::btree::node::NodeRef<alloc::collections::btree::node::marker::Owned, std::ffi::OsString, std::option::Option<std::ffi::OsString>, alloc::collections::btree::node::marker::Internal>, alloc::collections::btree::node::marker::Edge>, alloc::collections::btree::node::NodeRef<alloc::collections::btree::node::marker::Owned, std::ffi::OsString, std::option::Option<std::ffi::OsString>, alloc::collections::btree::node::marker::LeafOrInternal>>::Err" = type { [1 x i64], { i64, i64* }, [0 x i64] }
%"std::result::Result<alloc::collections::btree::node::Handle<alloc::collections::btree::node::NodeRef<alloc::collections::btree::node::marker::Owned, std::ffi::OsString, std::option::Option<std::ffi::OsString>, alloc::collections::btree::node::marker::Internal>, alloc::collections::btree::node::marker::Edge>, alloc::collections::btree::node::NodeRef<alloc::collections::btree::node::marker::Owned, std::ffi::OsString, std::option::Option<std::ffi::OsString>, alloc::collections::btree::node::marker::LeafOrInternal>>::Ok" = type { [1 x i64], %"alloc::collections::btree::node::Handle<alloc::collections::btree::node::NodeRef<alloc::collections::btree::node::marker::Owned, std::ffi::OsString, std::option::Option<std::ffi::OsString>, alloc::collections::btree::node::marker::Internal>, alloc::collections::btree::node::marker::Edge>", [0 x i64] }
%"std::result::Result<(), std::option::NoneError>::Err" = type { [1 x i8], %"std::option::NoneError", [0 x i8] }
%"std::result::Result<(), std::option::NoneError>::Ok" = type { [1 x i8], {}, [0 x i8] }
%"std::option::Option<()>::Some" = type { [1 x i8], {}, [0 x i8] }
%"std::result::Result<u32, std::num::ParseIntError>::Ok" = type { [1 x i32], i32, [0 x i32] }
%"std::option::Option<u32>::Some" = type { [1 x i32], i32, [0 x i32] }
%"std::result::Result<&str, std::str::Utf8Error>" = type { [0 x i64], i64, [2 x i64] }
%"std::result::Result<&str, std::str::Utf8Error>::Ok" = type { [1 x i64], { [0 x i8]*, i64 }, [0 x i64] }
%"alloc::collections::btree::node::Handle<alloc::collections::btree::node::NodeRef<alloc::collections::btree::node::marker::Immut, std::ffi::OsString, std::option::Option<std::ffi::OsString>, alloc::collections::btree::node::marker::LeafOrInternal>, alloc::collections::btree::node::marker::KV>" = type { [0 x i8], %"std::marker::PhantomData<alloc::collections::btree::node::marker::KV>", [0 x i8], { i64, i64* }, [0 x i64], i64, [0 x i64] }
%"std::marker::PhantomData<alloc::collections::btree::node::marker::KV>" = type {}
%"alloc::collections::btree::node::Handle<alloc::collections::btree::node::NodeRef<alloc::collections::btree::node::marker::Owned, std::ffi::OsString, std::option::Option<std::ffi::OsString>, alloc::collections::btree::node::marker::LeafOrInternal>, alloc::collections::btree::node::marker::KV>" = type { [0 x i8], %"std::marker::PhantomData<alloc::collections::btree::node::marker::KV>", [0 x i8], { i64, i64* }, [0 x i64], i64, [0 x i64] }
%"alloc::collections::btree::node::Handle<alloc::collections::btree::node::NodeRef<alloc::collections::btree::node::marker::Owned, std::ffi::OsString, std::option::Option<std::ffi::OsString>, alloc::collections::btree::node::marker::Internal>, alloc::collections::btree::node::marker::KV>" = type { [0 x i8], %"std::marker::PhantomData<alloc::collections::btree::node::marker::KV>", [0 x i8], { i64, i64* }, [0 x i64], i64, [0 x i64] }
%"alloc::collections::btree::node::Handle<alloc::collections::btree::node::NodeRef<alloc::collections::btree::node::marker::Owned, std::ffi::OsString, std::option::Option<std::ffi::OsString>, alloc::collections::btree::node::marker::Leaf>, alloc::collections::btree::node::marker::KV>" = type { [0 x i8], %"std::marker::PhantomData<alloc::collections::btree::node::marker::KV>", [0 x i8], { i64, i64* }, [0 x i64], i64, [0 x i64] }
%"alloc::collections::btree::node::Handle<alloc::collections::btree::node::NodeRef<alloc::collections::btree::node::marker::Owned, std::ffi::OsString, std::option::Option<std::ffi::OsString>, alloc::collections::btree::node::marker::LeafOrInternal>, alloc::collections::btree::node::marker::Edge>" = type { [0 x i8], %"std::marker::PhantomData<alloc::collections::btree::node::marker::Edge>", [0 x i8], { i64, i64* }, [0 x i64], i64, [0 x i64] }
%"std::result::Result<alloc::collections::btree::node::Handle<alloc::collections::btree::node::NodeRef<alloc::collections::btree::node::marker::Owned, std::ffi::OsString, std::option::Option<std::ffi::OsString>, alloc::collections::btree::node::marker::LeafOrInternal>, alloc::collections::btree::node::marker::KV>, alloc::collections::btree::node::Handle<alloc::collections::btree::node::NodeRef<alloc::collections::btree::node::marker::Owned, std::ffi::OsString, std::option::Option<std::ffi::OsString>, alloc::collections::btree::node::marker::LeafOrInternal>, alloc::collections::btree::node::marker::Edge>>" = type { [0 x i64], i64, [3 x i64] }
%"std::result::Result<alloc::collections::btree::node::Handle<alloc::collections::btree::node::NodeRef<alloc::collections::btree::node::marker::Owned, std::ffi::OsString, std::option::Option<std::ffi::OsString>, alloc::collections::btree::node::marker::LeafOrInternal>, alloc::collections::btree::node::marker::KV>, alloc::collections::btree::node::Handle<alloc::collections::btree::node::NodeRef<alloc::collections::btree::node::marker::Owned, std::ffi::OsString, std::option::Option<std::ffi::OsString>, alloc::collections::btree::node::marker::LeafOrInternal>, alloc::collections::btree::node::marker::Edge>>::Err" = type { [1 x i64], %"alloc::collections::btree::node::Handle<alloc::collections::btree::node::NodeRef<alloc::collections::btree::node::marker::Owned, std::ffi::OsString, std::option::Option<std::ffi::OsString>, alloc::collections::btree::node::marker::LeafOrInternal>, alloc::collections::btree::node::marker::Edge>", [0 x i64] }
%"std::result::Result<alloc::collections::btree::node::Handle<alloc::collections::btree::node::NodeRef<alloc::collections::btree::node::marker::Owned, std::ffi::OsString, std::option::Option<std::ffi::OsString>, alloc::collections::btree::node::marker::LeafOrInternal>, alloc::collections::btree::node::marker::KV>, alloc::collections::btree::node::Handle<alloc::collections::btree::node::NodeRef<alloc::collections::btree::node::marker::Owned, std::ffi::OsString, std::option::Option<std::ffi::OsString>, alloc::collections::btree::node::marker::LeafOrInternal>, alloc::collections::btree::node::marker::Edge>>::Ok" = type { [1 x i64], %"alloc::collections::btree::node::Handle<alloc::collections::btree::node::NodeRef<alloc::collections::btree::node::marker::Owned, std::ffi::OsString, std::option::Option<std::ffi::OsString>, alloc::collections::btree::node::marker::LeafOrInternal>, alloc::collections::btree::node::marker::KV>", [0 x i64] }
%"alloc::collections::btree::node::ForceResult<alloc::collections::btree::node::Handle<alloc::collections::btree::node::NodeRef<alloc::collections::btree::node::marker::Owned, std::ffi::OsString, std::option::Option<std::ffi::OsString>, alloc::collections::btree::node::marker::Leaf>, alloc::collections::btree::node::marker::KV>, alloc::collections::btree::node::Handle<alloc::collections::btree::node::NodeRef<alloc::collections::btree::node::marker::Owned, std::ffi::OsString, std::option::Option<std::ffi::OsString>, alloc::collections::btree::node::marker::Internal>, alloc::collections::btree::node::marker::KV>>" = type { [0 x i64], i64, [3 x i64] }
%"alloc::collections::btree::node::ForceResult<alloc::collections::btree::node::NodeRef<alloc::collections::btree::node::marker::Owned, std::ffi::OsString, std::option::Option<std::ffi::OsString>, alloc::collections::btree::node::marker::Leaf>, alloc::collections::btree::node::NodeRef<alloc::collections::btree::node::marker::Owned, std::ffi::OsString, std::option::Option<std::ffi::OsString>, alloc::collections::btree::node::marker::Internal>>" = type { [0 x i64], i64, [2 x i64] }
%"alloc::collections::btree::node::ForceResult<alloc::collections::btree::node::NodeRef<alloc::collections::btree::node::marker::Owned, std::ffi::OsString, std::option::Option<std::ffi::OsString>, alloc::collections::btree::node::marker::Leaf>, alloc::collections::btree::node::NodeRef<alloc::collections::btree::node::marker::Owned, std::ffi::OsString, std::option::Option<std::ffi::OsString>, alloc::collections::btree::node::marker::Internal>>::Internal" = type { [1 x i64], { i64, i64* }, [0 x i64] }
%"alloc::collections::btree::node::ForceResult<alloc::collections::btree::node::Handle<alloc::collections::btree::node::NodeRef<alloc::collections::btree::node::marker::Owned, std::ffi::OsString, std::option::Option<std::ffi::OsString>, alloc::collections::btree::node::marker::Leaf>, alloc::collections::btree::node::marker::KV>, alloc::collections::btree::node::Handle<alloc::collections::btree::node::NodeRef<alloc::collections::btree::node::marker::Owned, std::ffi::OsString, std::option::Option<std::ffi::OsString>, alloc::collections::btree::node::marker::Internal>, alloc::collections::btree::node::marker::KV>>::Internal" = type { [1 x i64], %"alloc::collections::btree::node::Handle<alloc::collections::btree::node::NodeRef<alloc::collections::btree::node::marker::Owned, std::ffi::OsString, std::option::Option<std::ffi::OsString>, alloc::collections::btree::node::marker::Internal>, alloc::collections::btree::node::marker::KV>", [0 x i64] }
%"alloc::collections::btree::node::ForceResult<alloc::collections::btree::node::NodeRef<alloc::collections::btree::node::marker::Owned, std::ffi::OsString, std::option::Option<std::ffi::OsString>, alloc::collections::btree::node::marker::Leaf>, alloc::collections::btree::node::NodeRef<alloc::collections::btree::node::marker::Owned, std::ffi::OsString, std::option::Option<std::ffi::OsString>, alloc::collections::btree::node::marker::Internal>>::Leaf" = type { [1 x i64], { i64, i64* }, [0 x i64] }
%"alloc::collections::btree::node::ForceResult<alloc::collections::btree::node::Handle<alloc::collections::btree::node::NodeRef<alloc::collections::btree::node::marker::Owned, std::ffi::OsString, std::option::Option<std::ffi::OsString>, alloc::collections::btree::node::marker::Leaf>, alloc::collections::btree::node::marker::KV>, alloc::collections::btree::node::Handle<alloc::collections::btree::node::NodeRef<alloc::collections::btree::node::marker::Owned, std::ffi::OsString, std::option::Option<std::ffi::OsString>, alloc::collections::btree::node::marker::Internal>, alloc::collections::btree::node::marker::KV>>::Leaf" = type { [1 x i64], %"alloc::collections::btree::node::Handle<alloc::collections::btree::node::NodeRef<alloc::collections::btree::node::marker::Owned, std::ffi::OsString, std::option::Option<std::ffi::OsString>, alloc::collections::btree::node::marker::Leaf>, alloc::collections::btree::node::marker::KV>", [0 x i64] }
%"alloc::collections::btree::node::ForceResult<alloc::collections::btree::node::Handle<alloc::collections::btree::node::NodeRef<alloc::collections::btree::node::marker::Owned, std::ffi::OsString, std::option::Option<std::ffi::OsString>, alloc::collections::btree::node::marker::Leaf>, alloc::collections::btree::node::marker::Edge>, alloc::collections::btree::node::Handle<alloc::collections::btree::node::NodeRef<alloc::collections::btree::node::marker::Owned, std::ffi::OsString, std::option::Option<std::ffi::OsString>, alloc::collections::btree::node::marker::Internal>, alloc::collections::btree::node::marker::Edge>>" = type { [0 x i64], i64, [3 x i64] }
%"alloc::collections::btree::node::ForceResult<alloc::collections::btree::node::Handle<alloc::collections::btree::node::NodeRef<alloc::collections::btree::node::marker::Owned, std::ffi::OsString, std::option::Option<std::ffi::OsString>, alloc::collections::btree::node::marker::Leaf>, alloc::collections::btree::node::marker::Edge>, alloc::collections::btree::node::Handle<alloc::collections::btree::node::NodeRef<alloc::collections::btree::node::marker::Owned, std::ffi::OsString, std::option::Option<std::ffi::OsString>, alloc::collections::btree::node::marker::Internal>, alloc::collections::btree::node::marker::Edge>>::Internal" = type { [1 x i64], %"alloc::collections::btree::node::Handle<alloc::collections::btree::node::NodeRef<alloc::collections::btree::node::marker::Owned, std::ffi::OsString, std::option::Option<std::ffi::OsString>, alloc::collections::btree::node::marker::Internal>, alloc::collections::btree::node::marker::Edge>", [0 x i64] }
%"alloc::collections::btree::node::ForceResult<alloc::collections::btree::node::Handle<alloc::collections::btree::node::NodeRef<alloc::collections::btree::node::marker::Owned, std::ffi::OsString, std::option::Option<std::ffi::OsString>, alloc::collections::btree::node::marker::Leaf>, alloc::collections::btree::node::marker::Edge>, alloc::collections::btree::node::Handle<alloc::collections::btree::node::NodeRef<alloc::collections::btree::node::marker::Owned, std::ffi::OsString, std::option::Option<std::ffi::OsString>, alloc::collections::btree::node::marker::Internal>, alloc::collections::btree::node::marker::Edge>>::Leaf" = type { [1 x i64], %"alloc::collections::btree::node::Handle<alloc::collections::btree::node::NodeRef<alloc::collections::btree::node::marker::Owned, std::ffi::OsString, std::option::Option<std::ffi::OsString>, alloc::collections::btree::node::marker::Leaf>, alloc::collections::btree::node::marker::Edge>", [0 x i64] }
%"std::marker::PhantomData<(alloc::collections::btree::node::marker::Owned, alloc::collections::btree::node::marker::LeafOrInternal)>" = type {}
%"std::marker::PhantomData<(alloc::collections::btree::node::marker::Immut, alloc::collections::btree::node::marker::LeafOrInternal)>" = type {}
%"std::marker::PhantomData<(alloc::collections::btree::node::marker::Owned, alloc::collections::btree::node::marker::Internal)>" = type {}
%"std::marker::PhantomData<(alloc::collections::btree::node::marker::Owned, alloc::collections::btree::node::marker::Leaf)>" = type {}
%"[closure@alloc::collections::btree::navigate::<impl alloc::collections::btree::node::Handle<alloc::collections::btree::node::NodeRef<alloc::collections::btree::node::marker::Owned, std::ffi::OsString, std::option::Option<std::ffi::OsString>, alloc::collections::btree::node::marker::Leaf>, alloc::collections::btree::node::marker::Edge>>::next_unchecked::{closure#0}]" = type {}
%"std::result::Result<&str, std::str::Utf8Error>::Err" = type { [1 x i64], %"std::str::Utf8Error", [0 x i64] }
%"std::option::Option<(std::ptr::NonNull<u8>, std::alloc::Layout)>" = type { [0 x i64], {}*, [2 x i64] }
%"std::option::Option<(std::ptr::NonNull<u8>, std::alloc::Layout)>::Some" = type { [0 x i64], { [0 x i64], i8*, [0 x i64], { i64, i64 }, [0 x i64] }, [0 x i64] }
%"std::result::Result<std::ptr::NonNull<[u8]>, std::alloc::AllocError>::Err" = type { [0 x i8], %"std::alloc::AllocError", [0 x i8] }
%"std::result::Result<(), usize>::Err" = type { [1 x i64], i64, [0 x i64] }
%"std::marker::PhantomData<dyn std::any::Any + std::marker::Send>" = type {}
%"std::option::Option<i32>::Some" = type { [1 x i32], i32, [0 x i32] }
%"[closure@/home/martin/.cargo/registry/src/github.com-1ecc6299db9ec823/libc-0.2.106/build.rs:116:14: 116:72]" = type {}
%"unwind::libunwind::_Unwind_Exception" = type { [0 x i64], i64, [0 x i64], void (i32, %"unwind::libunwind::_Unwind_Exception"*)*, [0 x i64], [6 x i64], [0 x i64] }
%"unwind::libunwind::_Unwind_Context" = type { [0 x i8] }

@METASAFE_TYPE_ID = external thread_local global i64
@alloc165 = private unnamed_addr constant <{ [90 x i8] }> <{ [90 x i8] c"/home/martin/projects/metasafe/trust-sec23/rust/library/alloc/src/collections/btree/map.rs" }>, align 1
@alloc166 = private unnamed_addr constant <{ i8*, [16 x i8] }> <{ i8* getelementptr inbounds (<{ [90 x i8] }>, <{ [90 x i8] }>* @alloc165, i32 0, i32 0, i32 0), [16 x i8] c"Z\00\00\00\00\00\00\00v\05\00\00/\00\00\00" }>, align 8
@vtable.0 = private unnamed_addr constant { void (i64**)*, i64, i64, i32 (i64**)*, i32 (i64**)*, i32 (i64**)* } { void (i64**)* @_ZN4core3ptr13drop_in_place17h8eabf9d941115d8bE, i64 8, i64 8, i32 (i64**)* @"_ZN3std2rt10lang_start28_$u7b$$u7b$closure$u7d$$u7d$17hd348c98e2a8984ebE", i32 (i64**)* @"_ZN3std2rt10lang_start28_$u7b$$u7b$closure$u7d$$u7d$17hd348c98e2a8984ebE", i32 (i64**)* @"_ZN4core3ops8function6FnOnce40call_once$u7b$$u7b$vtable.shim$u7d$$u7d$17h6057d75396c583c5E" }, align 8
@vtable.1 = private unnamed_addr constant { void ({ i8*, i64 }*)*, i64, i64, { {}*, [3 x i64]* } ({ i8*, i64 }*)*, { {}*, [3 x i64]* } ({ i8*, i64 }*)* } { void ({ i8*, i64 }*)* @_ZN4core3ptr13drop_in_place17hd86f672610b7d593E, i64 16, i64 8, { {}*, [3 x i64]* } ({ i8*, i64 }*)* @"_ZN91_$LT$std..panicking..begin_panic..PanicPayload$LT$A$GT$$u20$as$u20$core..panic..BoxMeUp$GT$8take_box17h88b845e064888980E", { {}*, [3 x i64]* } ({ i8*, i64 }*)* @"_ZN91_$LT$std..panicking..begin_panic..PanicPayload$LT$A$GT$$u20$as$u20$core..panic..BoxMeUp$GT$3get17hac03ddf3b553bbf4E" }, align 8
@alloc188 = private unnamed_addr constant <{ [80 x i8] }> <{ [80 x i8] c"/home/martin/projects/metasafe/trust-sec23/rust/library/core/src/char/methods.rs" }>, align 1
@alloc185 = private unnamed_addr constant <{ i8*, [16 x i8] }> <{ i8* getelementptr inbounds (<{ [80 x i8] }>, <{ [80 x i8] }>* @alloc188, i32 0, i32 0, i32 0), [16 x i8] c"P\00\00\00\00\00\00\009\06\00\00\16\00\00\00" }>, align 8
@alloc187 = private unnamed_addr constant <{ i8*, [16 x i8] }> <{ i8* getelementptr inbounds (<{ [80 x i8] }>, <{ [80 x i8] }>* @alloc188, i32 0, i32 0, i32 0), [16 x i8] c"P\00\00\00\00\00\00\00S\06\00\00\0A\00\00\00" }>, align 8
@alloc125 = private unnamed_addr constant <{ [18 x i8] }> <{ [18 x i8] c"encode_utf8: need " }>, align 1
@alloc127 = private unnamed_addr constant <{ [19 x i8] }> <{ [19 x i8] c" bytes to encode U+" }>, align 1
@alloc128 = private unnamed_addr constant <{ [21 x i8] }> <{ [21 x i8] c", but the buffer has " }>, align 1
@alloc126 = private unnamed_addr constant <{ i8*, [8 x i8], i8*, [8 x i8], i8*, [8 x i8] }> <{ i8* getelementptr inbounds (<{ [18 x i8] }>, <{ [18 x i8] }>* @alloc125, i32 0, i32 0, i32 0), [8 x i8] c"\12\00\00\00\00\00\00\00", i8* getelementptr inbounds (<{ [19 x i8] }>, <{ [19 x i8] }>* @alloc127, i32 0, i32 0, i32 0), [8 x i8] c"\13\00\00\00\00\00\00\00", i8* getelementptr inbounds (<{ [21 x i8] }>, <{ [21 x i8] }>* @alloc128, i32 0, i32 0, i32 0), [8 x i8] c"\15\00\00\00\00\00\00\00" }>, align 8
@alloc189 = private unnamed_addr constant <{ i8*, [16 x i8] }> <{ i8* getelementptr inbounds (<{ [80 x i8] }>, <{ [80 x i8] }>* @alloc188, i32 0, i32 0, i32 0), [16 x i8] c"P\00\00\00\00\00\00\00L\06\00\00\0E\00\00\00" }>, align 8
@alloc190 = private unnamed_addr constant <{ [77 x i8] }> <{ [77 x i8] c"/home/martin/projects/metasafe/trust-sec23/rust/library/core/src/slice/mod.rs" }>, align 1
@alloc191 = private unnamed_addr constant <{ i8*, [16 x i8] }> <{ i8* getelementptr inbounds (<{ [77 x i8] }>, <{ [77 x i8] }>* @alloc190, i32 0, i32 0, i32 0), [16 x i8] c"M\00\00\00\00\00\00\00\C9\06\00\00'\00\00\00" }>, align 8
@alloc194 = private unnamed_addr constant <{ [43 x i8] }> <{ [43 x i8] c"called `Option::unwrap()` on a `None` value" }>, align 1
@alloc91 = private unnamed_addr constant <{ [0 x i8] }> zeroinitializer, align 8
@alloc112 = private unnamed_addr constant <{ [42 x i8] }> <{ [42 x i8] c"internal error: entered unreachable code: " }>, align 1
@alloc113 = private unnamed_addr constant <{ i8*, [8 x i8] }> <{ i8* getelementptr inbounds (<{ [42 x i8] }>, <{ [42 x i8] }>* @alloc112, i32 0, i32 0, i32 0), [8 x i8] c"*\00\00\00\00\00\00\00" }>, align 8
@alloc115 = private unnamed_addr constant <{ [29 x i8] }> <{ [29 x i8] c"BTreeMap has different depths" }>, align 1
@alloc116 = private unnamed_addr constant <{ i8*, [8 x i8] }> <{ i8* getelementptr inbounds (<{ [29 x i8] }>, <{ [29 x i8] }>* @alloc115, i32 0, i32 0, i32 0), [8 x i8] c"\1D\00\00\00\00\00\00\00" }>, align 8
@alloc195 = private unnamed_addr constant <{ [95 x i8] }> <{ [95 x i8] c"/home/martin/projects/metasafe/trust-sec23/rust/library/alloc/src/collections/btree/navigate.rs" }>, align 1
@alloc196 = private unnamed_addr constant <{ i8*, [16 x i8] }> <{ i8* getelementptr inbounds (<{ [95 x i8] }>, <{ [95 x i8] }>* @alloc195, i32 0, i32 0, i32 0), [16 x i8] c"_\00\00\00\00\00\00\00v\00\00\00\12\00\00\00" }>, align 8
@alloc197 = private unnamed_addr constant <{ [77 x i8] }> <{ [77 x i8] c"/home/martin/projects/metasafe/trust-sec23/rust/library/std/src/ffi/os_str.rs" }>, align 1
@alloc198 = private unnamed_addr constant <{ i8*, [16 x i8] }> <{ i8* getelementptr inbounds (<{ [77 x i8] }>, <{ [77 x i8] }>* @alloc197, i32 0, i32 0, i32 0), [16 x i8] c"M\00\00\00\00\00\00\00}\01\00\00\0A\00\00\00" }>, align 8
@alloc199 = private unnamed_addr constant <{ [79 x i8] }> <{ [79 x i8] c"/home/martin/projects/metasafe/trust-sec23/rust/library/core/src/str/pattern.rs" }>, align 1
@alloc200 = private unnamed_addr constant <{ i8*, [16 x i8] }> <{ i8* getelementptr inbounds (<{ [79 x i8] }>, <{ [79 x i8] }>* @alloc199, i32 0, i32 0, i32 0), [16 x i8] c"O\00\00\00\00\00\00\00\B0\01\00\00&\00\00\00" }>, align 8
@vtable.2 = private unnamed_addr constant { void ({ [0 x i8]*, i64 }*)*, i64, i64, i64 ({ [0 x i8]*, i64 }*)* } { void ({ [0 x i8]*, i64 }*)* @_ZN4core3ptr13drop_in_place17h3fdd954428b77804E, i64 16, i64 8, i64 ({ [0 x i8]*, i64 }*)* @"_ZN36_$LT$T$u20$as$u20$core..any..Any$GT$7type_id17h5d51012198a4764eE" }, align 8
@alloc1 = private unnamed_addr constant <{ [32 x i8] }> <{ [32 x i8] c"cargo:rerun-if-changed=build.rs\0A" }>, align 1
@alloc2 = private unnamed_addr constant <{ i8*, [8 x i8] }> <{ i8* getelementptr inbounds (<{ [32 x i8] }>, <{ [32 x i8] }>* @alloc1, i32 0, i32 0, i32 0), [8 x i8] c" \00\00\00\00\00\00\00" }>, align 8
@alloc201 = private unnamed_addr constant <{ [27 x i8] }> <{ [27 x i8] c"Failed to get rustc version" }>, align 1
@alloc219 = private unnamed_addr constant <{ [82 x i8] }> <{ [82 x i8] c"/home/martin/.cargo/registry/src/github.com-1ecc6299db9ec823/libc-0.2.106/build.rs" }>, align 1
@alloc203 = private unnamed_addr constant <{ i8*, [16 x i8] }> <{ i8* getelementptr inbounds (<{ [82 x i8] }>, <{ [82 x i8] }>* @alloc219, i32 0, i32 0, i32 0), [16 x i8] c"R\00\00\00\00\00\00\00\09\00\00\00?\00\00\00" }>, align 8
@alloc204 = private unnamed_addr constant <{ [30 x i8] }> <{ [30 x i8] c"CARGO_FEATURE_RUSTC_DEP_OF_STD" }>, align 1
@alloc205 = private unnamed_addr constant <{ [19 x i8] }> <{ [19 x i8] c"CARGO_FEATURE_ALIGN" }>, align 1
@alloc206 = private unnamed_addr constant <{ [29 x i8] }> <{ [29 x i8] c"CARGO_FEATURE_CONST_EXTERN_FN" }>, align 1
@alloc207 = private unnamed_addr constant <{ [7 x i8] }> <{ [7 x i8] c"LIBC_CI" }>, align 1
@alloc208 = private unnamed_addr constant <{ [21 x i8] }> <{ [21 x i8] c"CARGO_FEATURE_USE_STD" }>, align 1
@alloc13 = private unnamed_addr constant <{ [132 x i8] }> <{ [132 x i8] c"cargo:warning=\22libc's use_std cargo feature is deprecated since libc 0.2.55; please consider using the `std` cargo feature instead\22\0A" }>, align 1
@alloc14 = private unnamed_addr constant <{ i8*, [8 x i8] }> <{ i8* getelementptr inbounds (<{ [132 x i8] }>, <{ [132 x i8] }>* @alloc13, i32 0, i32 0, i32 0), [8 x i8] c"\84\00\00\00\00\00\00\00" }>, align 8
@alloc33 = private unnamed_addr constant <{ [26 x i8] }> <{ [26 x i8] c"cargo:rustc-cfg=freebsd13\0A" }>, align 1
@alloc34 = private unnamed_addr constant <{ i8*, [8 x i8] }> <{ i8* getelementptr inbounds (<{ [26 x i8] }>, <{ [26 x i8] }>* @alloc33, i32 0, i32 0, i32 0), [8 x i8] c"\1A\00\00\00\00\00\00\00" }>, align 8
@alloc28 = private unnamed_addr constant <{ [26 x i8] }> <{ [26 x i8] c"cargo:rustc-cfg=freebsd12\0A" }>, align 1
@alloc29 = private unnamed_addr constant <{ i8*, [8 x i8] }> <{ i8* getelementptr inbounds (<{ [26 x i8] }>, <{ [26 x i8] }>* @alloc28, i32 0, i32 0, i32 0), [8 x i8] c"\1A\00\00\00\00\00\00\00" }>, align 8
@alloc38 = private unnamed_addr constant <{ [26 x i8] }> <{ [26 x i8] c"cargo:rustc-cfg=freebsd11\0A" }>, align 1
@alloc39 = private unnamed_addr constant <{ i8*, [8 x i8] }> <{ i8* getelementptr inbounds (<{ [26 x i8] }>, <{ [26 x i8] }>* @alloc38, i32 0, i32 0, i32 0), [8 x i8] c"\1A\00\00\00\00\00\00\00" }>, align 8
@alloc18 = private unnamed_addr constant <{ [26 x i8] }> <{ [26 x i8] c"cargo:rustc-cfg=freebsd10\0A" }>, align 1
@alloc19 = private unnamed_addr constant <{ i8*, [8 x i8] }> <{ i8* getelementptr inbounds (<{ [26 x i8] }>, <{ [26 x i8] }>* @alloc18, i32 0, i32 0, i32 0), [8 x i8] c"\1A\00\00\00\00\00\00\00" }>, align 8
@alloc43 = private unnamed_addr constant <{ [35 x i8] }> <{ [35 x i8] c"cargo:rustc-cfg=libc_deny_warnings\0A" }>, align 1
@alloc44 = private unnamed_addr constant <{ i8*, [8 x i8] }> <{ i8* getelementptr inbounds (<{ [35 x i8] }>, <{ [35 x i8] }>* @alloc43, i32 0, i32 0, i32 0), [8 x i8] c"#\00\00\00\00\00\00\00" }>, align 8
@alloc48 = private unnamed_addr constant <{ [34 x i8] }> <{ [34 x i8] c"cargo:rustc-cfg=libc_priv_mod_use\0A" }>, align 1
@alloc49 = private unnamed_addr constant <{ i8*, [8 x i8] }> <{ i8* getelementptr inbounds (<{ [34 x i8] }>, <{ [34 x i8] }>* @alloc48, i32 0, i32 0, i32 0), [8 x i8] c"\22\00\00\00\00\00\00\00" }>, align 8
@alloc53 = private unnamed_addr constant <{ [27 x i8] }> <{ [27 x i8] c"cargo:rustc-cfg=libc_union\0A" }>, align 1
@alloc54 = private unnamed_addr constant <{ i8*, [8 x i8] }> <{ i8* getelementptr inbounds (<{ [27 x i8] }>, <{ [27 x i8] }>* @alloc53, i32 0, i32 0, i32 0), [8 x i8] c"\1B\00\00\00\00\00\00\00" }>, align 8
@alloc58 = private unnamed_addr constant <{ [35 x i8] }> <{ [35 x i8] c"cargo:rustc-cfg=libc_const_size_of\0A" }>, align 1
@alloc59 = private unnamed_addr constant <{ i8*, [8 x i8] }> <{ i8* getelementptr inbounds (<{ [35 x i8] }>, <{ [35 x i8] }>* @alloc58, i32 0, i32 0, i32 0), [8 x i8] c"#\00\00\00\00\00\00\00" }>, align 8
@alloc63 = private unnamed_addr constant <{ [27 x i8] }> <{ [27 x i8] c"cargo:rustc-cfg=libc_align\0A" }>, align 1
@alloc64 = private unnamed_addr constant <{ i8*, [8 x i8] }> <{ i8* getelementptr inbounds (<{ [27 x i8] }>, <{ [27 x i8] }>* @alloc63, i32 0, i32 0, i32 0), [8 x i8] c"\1B\00\00\00\00\00\00\00" }>, align 8
@alloc68 = private unnamed_addr constant <{ [32 x i8] }> <{ [32 x i8] c"cargo:rustc-cfg=libc_core_cvoid\0A" }>, align 1
@alloc69 = private unnamed_addr constant <{ i8*, [8 x i8] }> <{ i8* getelementptr inbounds (<{ [32 x i8] }>, <{ [32 x i8] }>* @alloc68, i32 0, i32 0, i32 0), [8 x i8] c" \00\00\00\00\00\00\00" }>, align 8
@alloc73 = private unnamed_addr constant <{ [29 x i8] }> <{ [29 x i8] c"cargo:rustc-cfg=libc_packedN\0A" }>, align 1
@alloc74 = private unnamed_addr constant <{ i8*, [8 x i8] }> <{ i8* getelementptr inbounds (<{ [29 x i8] }>, <{ [29 x i8] }>* @alloc73, i32 0, i32 0, i32 0), [8 x i8] c"\1D\00\00\00\00\00\00\00" }>, align 8
@alloc78 = private unnamed_addr constant <{ [39 x i8] }> <{ [39 x i8] c"cargo:rustc-cfg=libc_cfg_target_vendor\0A" }>, align 1
@alloc79 = private unnamed_addr constant <{ i8*, [8 x i8] }> <{ i8* getelementptr inbounds (<{ [39 x i8] }>, <{ [39 x i8] }>* @alloc78, i32 0, i32 0, i32 0), [8 x i8] c"'\00\00\00\00\00\00\00" }>, align 8
@alloc83 = private unnamed_addr constant <{ [34 x i8] }> <{ [34 x i8] c"cargo:rustc-cfg=libc_thread_local\0A" }>, align 1
@alloc84 = private unnamed_addr constant <{ i8*, [8 x i8] }> <{ i8* getelementptr inbounds (<{ [34 x i8] }>, <{ [34 x i8] }>* @alloc83, i32 0, i32 0, i32 0), [8 x i8] c"\22\00\00\00\00\00\00\00" }>, align 8
@alloc209 = private unnamed_addr constant <{ [51 x i8] }> <{ [51 x i8] c"const-extern-fn requires a nightly compiler >= 1.40" }>, align 1
@alloc211 = private unnamed_addr constant <{ i8*, [16 x i8] }> <{ i8* getelementptr inbounds (<{ [82 x i8] }>, <{ [82 x i8] }>* @alloc219, i32 0, i32 0, i32 0), [16 x i8] c"R\00\00\00\00\00\00\00R\00\00\00\0D\00\00\00" }>, align 8
@alloc88 = private unnamed_addr constant <{ [37 x i8] }> <{ [37 x i8] c"cargo:rustc-cfg=libc_const_extern_fn\0A" }>, align 1
@alloc89 = private unnamed_addr constant <{ i8*, [8 x i8] }> <{ i8* getelementptr inbounds (<{ [37 x i8] }>, <{ [37 x i8] }>* @alloc88, i32 0, i32 0, i32 0), [8 x i8] c"%\00\00\00\00\00\00\00" }>, align 8
@alloc212 = private unnamed_addr constant <{ [5 x i8] }> <{ [5 x i8] c"RUSTC" }>, align 1
@alloc213 = private unnamed_addr constant <{ [9 x i8] }> <{ [9 x i8] c"--version" }>, align 1
@alloc100 = private unnamed_addr constant <{ [7 x i8] }> <{ [7 x i8] c"rustc 1" }>, align 1
@alloc101 = private unnamed_addr constant <{ i8*, [8 x i8] }> <{ i8* getelementptr inbounds (<{ [7 x i8] }>, <{ [7 x i8] }>* @alloc100, i32 0, i32 0, i32 0), [8 x i8] c"\07\00\00\00\00\00\00\00" }>, align 8
@alloc214 = private unnamed_addr constant <{ [3 x i8] }> <{ [3 x i8] c"dev" }>, align 1
@alloc215 = private unnamed_addr constant <{ [7 x i8] }> <{ [7 x i8] c"nightly" }>, align 1
@alloc216 = private unnamed_addr constant <{ [15 x i8] }> <{ [15 x i8] c"freebsd-version" }>, align 1
@alloc218 = private unnamed_addr constant <{ i8*, [16 x i8] }> <{ i8* getelementptr inbounds (<{ [82 x i8] }>, <{ [82 x i8] }>* @alloc219, i32 0, i32 0, i32 0), [16 x i8] c"R\00\00\00\00\00\00\00\80\00\00\00\19\00\00\00" }>, align 8
@alloc220 = private unnamed_addr constant <{ i8*, [16 x i8] }> <{ i8* getelementptr inbounds (<{ [82 x i8] }>, <{ [82 x i8] }>* @alloc219, i32 0, i32 0, i32 0), [16 x i8] c"R\00\00\00\00\00\00\00\89\00\00\00\19\00\00\00" }>, align 8
@alloc221 = private unnamed_addr constant <{ [2 x i8] }> <{ [2 x i8] c"10" }>, align 1
@alloc222 = private unnamed_addr constant <{ [2 x i8] }> <{ [2 x i8] c"11" }>, align 1
@alloc223 = private unnamed_addr constant <{ [2 x i8] }> <{ [2 x i8] c"12" }>, align 1
@alloc224 = private unnamed_addr constant <{ [2 x i8] }> <{ [2 x i8] c"13" }>, align 1

; <std::ffi::os_str::OsString as core::ops::index::Index<core::ops::range::RangeFull>>::index
; Function Attrs: inlinehint nonlazybind uwtable
define internal { %"std::ffi::OsStr"*, i64 } @"_ZN105_$LT$std..ffi..os_str..OsString$u20$as$u20$core..ops..index..Index$LT$core..ops..range..RangeFull$GT$$GT$5index17h45db50d3e74d251aE"(%"std::ffi::OsString"* mpk_immut noalias readonly align 8 dereferenceable(24) %self, %"std::panic::Location"* mpk_immut noalias readonly align 8 dereferenceable(24) %0) unnamed_addr #0 {
start:
  %_5 = bitcast %"std::ffi::OsString"* %self to %"std::sys_common::os_str_bytes::Buf"*, !MPK-SmartPointer !3
; call std::sys_common::os_str_bytes::Buf::as_slice
  %1 = call { %"std::sys_common::os_str_bytes::Slice"*, i64 } @_ZN3std10sys_common12os_str_bytes3Buf8as_slice17hf87cca2ab68e5fc4E(%"std::sys_common::os_str_bytes::Buf"* mpk_immut noalias readonly align 8 dereferenceable(24) %_5)
  %_4.0 = extractvalue { %"std::sys_common::os_str_bytes::Slice"*, i64 } %1, 0
  %_4.1 = extractvalue { %"std::sys_common::os_str_bytes::Slice"*, i64 } %1, 1
  br label %bb1

bb1:                                              ; preds = %start
; call std::ffi::os_str::OsStr::from_inner
  %2 = call { %"std::ffi::OsStr"*, i64 } @_ZN3std3ffi6os_str5OsStr10from_inner17h6c80895f9ad60525E(%"std::sys_common::os_str_bytes::Slice"* mpk_immut noalias nonnull readonly align 1 %_4.0, i64 %_4.1)
  %3 = extractvalue { %"std::ffi::OsStr"*, i64 } %2, 0
  %4 = extractvalue { %"std::ffi::OsStr"*, i64 } %2, 1
  br label %bb2

bb2:                                              ; preds = %bb1
  %5 = insertvalue { %"std::ffi::OsStr"*, i64 } undef, %"std::ffi::OsStr"* %3, 0
  %6 = insertvalue { %"std::ffi::OsStr"*, i64 } %5, i64 %4, 1
  ret { %"std::ffi::OsStr"*, i64 } %6
}

; <core::ops::range::Range<usize> as core::slice::index::SliceIndex<[T]>>::get_unchecked
; Function Attrs: inlinehint nonlazybind uwtable
define internal { [0 x i8]*, i64 } @"_ZN106_$LT$core..ops..range..Range$LT$usize$GT$$u20$as$u20$core..slice..index..SliceIndex$LT$$u5b$T$u5d$$GT$$GT$13get_unchecked17h22f649cd5e620877E"(i64 %self.0, i64 %self.1, [0 x i8]* mpk_immut mpk_unsafe %slice.0, i64 %slice.1) unnamed_addr #0 {
start:
  store i64 1, i64* @METASAFE_TYPE_ID, align 8
; call core::ptr::const_ptr::<impl *const [T]>::as_ptr
  %_4 = call mpk_immut i8* @"_ZN4core3ptr9const_ptr43_$LT$impl$u20$$BP$const$u20$$u5b$T$u5d$$GT$6as_ptr17h95f9230e8ed649a2E"([0 x i8]* mpk_immut %slice.0, i64 %slice.1), !MPK-Unsafe !4
  br label %bb1

bb1:                                              ; preds = %start
; call core::ptr::const_ptr::<impl *const T>::add
  %_3 = call mpk_immut mpk_unsafe i8* @"_ZN4core3ptr9const_ptr33_$LT$impl$u20$$BP$const$u20$T$GT$3add17h99c8c1bbc0117f6dE"(i8* mpk_immut mpk_unsafe %_4, i64 %self.0), !MPK-Unsafe !4
  br label %bb2

bb2:                                              ; preds = %bb1
  %_7 = sub i64 %self.1, %self.0
; call core::ptr::slice_from_raw_parts
  %0 = call { [0 x i8]*, i64 } @_ZN4core3ptr20slice_from_raw_parts17h3e19100558fc09ecE(i8* mpk_immut %_3, i64 %_7), !MPK-Unsafe !4
  %1 = extractvalue { [0 x i8]*, i64 } %0, 0
  %2 = extractvalue { [0 x i8]*, i64 } %0, 1
  br label %bb3

bb3:                                              ; preds = %bb2
  %3 = insertvalue { [0 x i8]*, i64 } undef, [0 x i8]* %1, 0
  %4 = insertvalue { [0 x i8]*, i64 } %3, i64 %2, 1
  ret { [0 x i8]*, i64 } %4
}

; <core::ops::range::Range<usize> as core::slice::index::SliceIndex<[T]>>::get_unchecked_mut
; Function Attrs: inlinehint nonlazybind uwtable
define internal { [0 x i8]*, i64 } @"_ZN106_$LT$core..ops..range..Range$LT$usize$GT$$u20$as$u20$core..slice..index..SliceIndex$LT$$u5b$T$u5d$$GT$$GT$17get_unchecked_mut17hd948b7b1bc25165eE"(i64 %self.0, i64 %self.1, [0 x i8]* mpk_unsafe %slice.0, i64 %slice.1) unnamed_addr #0 {
start:
  store i64 1, i64* @METASAFE_TYPE_ID, align 8
; call core::ptr::mut_ptr::<impl *mut [T]>::as_mut_ptr
  %_4 = call i8* @"_ZN4core3ptr7mut_ptr41_$LT$impl$u20$$BP$mut$u20$$u5b$T$u5d$$GT$10as_mut_ptr17h7923774adaf05c21E"([0 x i8]* %slice.0, i64 %slice.1), !MPK-Unsafe !4
  br label %bb1

bb1:                                              ; preds = %start
; call core::ptr::mut_ptr::<impl *mut T>::add
  %_3 = call mpk_unsafe i8* @"_ZN4core3ptr7mut_ptr31_$LT$impl$u20$$BP$mut$u20$T$GT$3add17heaf3a9c41fdb296cE"(i8* mpk_unsafe %_4, i64 %self.0), !MPK-Unsafe !4
  br label %bb2

bb2:                                              ; preds = %bb1
  %_7 = sub i64 %self.1, %self.0
; call core::ptr::slice_from_raw_parts_mut
  %0 = call { [0 x i8]*, i64 } @_ZN4core3ptr24slice_from_raw_parts_mut17h33e258338f177735E(i8* %_3, i64 %_7), !MPK-Unsafe !4
  %1 = extractvalue { [0 x i8]*, i64 } %0, 0
  %2 = extractvalue { [0 x i8]*, i64 } %0, 1
  br label %bb3

bb3:                                              ; preds = %bb2
  %3 = insertvalue { [0 x i8]*, i64 } undef, [0 x i8]* %1, 0
  %4 = insertvalue { [0 x i8]*, i64 } %3, i64 %2, 1
  ret { [0 x i8]*, i64 } %4
}

; <core::ops::range::Range<usize> as core::slice::index::SliceIndex<[T]>>::get
; Function Attrs: inlinehint nonlazybind uwtable
define internal { i8*, i64 } @"_ZN106_$LT$core..ops..range..Range$LT$usize$GT$$u20$as$u20$core..slice..index..SliceIndex$LT$$u5b$T$u5d$$GT$$GT$3get17h405b24b080b76800E"(i64 %self.0, i64 %self.1, [0 x i8]* mpk_immut noalias nonnull readonly align 1 %slice.0, i64 %slice.1) unnamed_addr #0 {
start:
  %_3 = alloca i8, align 1
  %0 = alloca { i8*, i64 }, align 8
  %_4 = icmp ugt i64 %self.0, %self.1
  br i1 %_4, label %bb1, label %bb3

bb1:                                              ; preds = %bb5, %start
  store i8 1, i8* %_3, align 1
  br label %bb4

bb2:                                              ; preds = %bb5
  store i8 0, i8* %_3, align 1
  br label %bb4

bb3:                                              ; preds = %start
; call core::slice::<impl [T]>::len
  %_9 = call i64 @"_ZN4core5slice29_$LT$impl$u20$$u5b$T$u5d$$GT$3len17h0631a2df7f60cba4E"([0 x i8]* mpk_immut noalias nonnull readonly align 1 %slice.0, i64 %slice.1)
  br label %bb5

bb4:                                              ; preds = %bb2, %bb1
  %1 = load i8, i8* %_3, align 1, !range !5
  %2 = trunc i8 %1 to i1
  br i1 %2, label %bb7, label %bb6

bb5:                                              ; preds = %bb3
  %_7 = icmp ugt i64 %self.1, %_9
  br i1 %_7, label %bb1, label %bb2

bb6:                                              ; preds = %bb4
; call <core::ops::range::Range<usize> as core::slice::index::SliceIndex<[T]>>::get_unchecked
  %3 = call { [0 x i8]*, i64 } @"_ZN106_$LT$core..ops..range..Range$LT$usize$GT$$u20$as$u20$core..slice..index..SliceIndex$LT$$u5b$T$u5d$$GT$$GT$13get_unchecked17h22f649cd5e620877E"(i64 %self.0, i64 %self.1, [0 x i8]* mpk_immut mpk_unsafe %slice.0, i64 %slice.1), !MPK-Unsafe !4
  %_13.0 = extractvalue { [0 x i8]*, i64 } %3, 0
  %_13.1 = extractvalue { [0 x i8]*, i64 } %3, 1
  br label %bb8

bb7:                                              ; preds = %bb4
  %4 = bitcast { i8*, i64 }* %0 to {}**
  store {}* null, {}** %4, align 8
  br label %bb9

bb8:                                              ; preds = %bb6
  %5 = bitcast { i8*, i64 }* %0 to { [0 x i8]*, i64 }*
  %6 = getelementptr inbounds { [0 x i8]*, i64 }, { [0 x i8]*, i64 }* %5, i32 0, i32 0
  store [0 x i8]* %_13.0, [0 x i8]** %6, align 8, !MPK-Unsafe !4
  %7 = getelementptr inbounds { [0 x i8]*, i64 }, { [0 x i8]*, i64 }* %5, i32 0, i32 1
  store i64 %_13.1, i64* %7, align 8, !MPK-Unsafe !4
  br label %bb9

bb9:                                              ; preds = %bb8, %bb7
  %8 = getelementptr inbounds { i8*, i64 }, { i8*, i64 }* %0, i32 0, i32 0
  %9 = load i8*, i8** %8, align 8
  %10 = getelementptr inbounds { i8*, i64 }, { i8*, i64 }* %0, i32 0, i32 1
  %11 = load i64, i64* %10, align 8
  %12 = insertvalue { i8*, i64 } undef, i8* %9, 0
  %13 = insertvalue { i8*, i64 } %12, i64 %11, 1
  ret { i8*, i64 } %13
}

; <core::ops::range::Range<usize> as core::slice::index::SliceIndex<[T]>>::index
; Function Attrs: inlinehint nonlazybind uwtable
define internal { [0 x i8]*, i64 } @"_ZN106_$LT$core..ops..range..Range$LT$usize$GT$$u20$as$u20$core..slice..index..SliceIndex$LT$$u5b$T$u5d$$GT$$GT$5index17h8f2194ebaad00742E"(i64 %self.0, i64 %self.1, [0 x i8]* mpk_immut noalias nonnull readonly align 1 %slice.0, i64 %slice.1, %"std::panic::Location"* mpk_immut noalias readonly align 8 dereferenceable(24) %0) unnamed_addr #0 {
start:
  %_3 = icmp ugt i64 %self.0, %self.1
  br i1 %_3, label %bb2, label %bb1

bb1:                                              ; preds = %start
; call core::slice::<impl [T]>::len
  %_10 = call i64 @"_ZN4core5slice29_$LT$impl$u20$$u5b$T$u5d$$GT$3len17h0631a2df7f60cba4E"([0 x i8]* mpk_immut noalias nonnull readonly align 1 %slice.0, i64 %slice.1)
  br label %bb3

bb2:                                              ; preds = %start
; call core::slice::index::slice_index_order_fail
  call void @_ZN4core5slice5index22slice_index_order_fail17hff3773a512c2a4b8E(i64 %self.0, i64 %self.1, %"std::panic::Location"* mpk_immut noalias readonly align 8 dereferenceable(24) %0)
  unreachable

bb3:                                              ; preds = %bb1
  %_8 = icmp ugt i64 %self.1, %_10
  br i1 %_8, label %bb5, label %bb4

bb4:                                              ; preds = %bb3
; call <core::ops::range::Range<usize> as core::slice::index::SliceIndex<[T]>>::get_unchecked
  %1 = call { [0 x i8]*, i64 } @"_ZN106_$LT$core..ops..range..Range$LT$usize$GT$$u20$as$u20$core..slice..index..SliceIndex$LT$$u5b$T$u5d$$GT$$GT$13get_unchecked17h22f649cd5e620877E"(i64 %self.0, i64 %self.1, [0 x i8]* mpk_immut mpk_unsafe %slice.0, i64 %slice.1), !MPK-Unsafe !4
  %_15.0 = extractvalue { [0 x i8]*, i64 } %1, 0
  %_15.1 = extractvalue { [0 x i8]*, i64 } %1, 1
  br label %bb7

bb5:                                              ; preds = %bb3
; call core::slice::<impl [T]>::len
  %_13 = call i64 @"_ZN4core5slice29_$LT$impl$u20$$u5b$T$u5d$$GT$3len17h0631a2df7f60cba4E"([0 x i8]* mpk_immut noalias nonnull readonly align 1 %slice.0, i64 %slice.1)
  br label %bb6

bb6:                                              ; preds = %bb5
; call core::slice::index::slice_end_index_len_fail
  call void @_ZN4core5slice5index24slice_end_index_len_fail17h63be533cc6b8936fE(i64 %self.1, i64 %_13, %"std::panic::Location"* mpk_immut noalias readonly align 8 dereferenceable(24) %0)
  unreachable

bb7:                                              ; preds = %bb4
  %2 = insertvalue { [0 x i8]*, i64 } undef, [0 x i8]* %_15.0, 0
  %3 = insertvalue { [0 x i8]*, i64 } %2, i64 %_15.1, 1
  ret { [0 x i8]*, i64 } %3
}

; <core::ops::range::Range<usize> as core::slice::index::SliceIndex<[T]>>::index_mut
; Function Attrs: inlinehint nonlazybind uwtable
define internal { [0 x i8]*, i64 } @"_ZN106_$LT$core..ops..range..Range$LT$usize$GT$$u20$as$u20$core..slice..index..SliceIndex$LT$$u5b$T$u5d$$GT$$GT$9index_mut17hb79147aeadc3ab84E"(i64 %self.0, i64 %self.1, [0 x i8]* nonnull align 1 %slice.0, i64 %slice.1, %"std::panic::Location"* mpk_immut noalias readonly align 8 dereferenceable(24) %0) unnamed_addr #0 {
start:
  %_4 = icmp ugt i64 %self.0, %self.1
  br i1 %_4, label %bb2, label %bb1

bb1:                                              ; preds = %start
; call core::slice::<impl [T]>::len
  %_11 = call i64 @"_ZN4core5slice29_$LT$impl$u20$$u5b$T$u5d$$GT$3len17h0631a2df7f60cba4E"([0 x i8]* mpk_immut noalias nonnull readonly align 1 %slice.0, i64 %slice.1)
  br label %bb3

bb2:                                              ; preds = %start
; call core::slice::index::slice_index_order_fail
  call void @_ZN4core5slice5index22slice_index_order_fail17hff3773a512c2a4b8E(i64 %self.0, i64 %self.1, %"std::panic::Location"* mpk_immut noalias readonly align 8 dereferenceable(24) %0)
  unreachable

bb3:                                              ; preds = %bb1
  %_9 = icmp ugt i64 %self.1, %_11
  br i1 %_9, label %bb5, label %bb4

bb4:                                              ; preds = %bb3
; call <core::ops::range::Range<usize> as core::slice::index::SliceIndex<[T]>>::get_unchecked_mut
  %1 = call { [0 x i8]*, i64 } @"_ZN106_$LT$core..ops..range..Range$LT$usize$GT$$u20$as$u20$core..slice..index..SliceIndex$LT$$u5b$T$u5d$$GT$$GT$17get_unchecked_mut17hd948b7b1bc25165eE"(i64 %self.0, i64 %self.1, [0 x i8]* mpk_unsafe %slice.0, i64 %slice.1), !MPK-Unsafe !4
  %_18.0 = extractvalue { [0 x i8]*, i64 } %1, 0
  %_18.1 = extractvalue { [0 x i8]*, i64 } %1, 1
  br label %bb7

bb5:                                              ; preds = %bb3
; call core::slice::<impl [T]>::len
  %_14 = call i64 @"_ZN4core5slice29_$LT$impl$u20$$u5b$T$u5d$$GT$3len17h0631a2df7f60cba4E"([0 x i8]* mpk_immut noalias nonnull readonly align 1 %slice.0, i64 %slice.1)
  br label %bb6

bb6:                                              ; preds = %bb5
; call core::slice::index::slice_end_index_len_fail
  call void @_ZN4core5slice5index24slice_end_index_len_fail17h63be533cc6b8936fE(i64 %self.1, i64 %_14, %"std::panic::Location"* mpk_immut noalias readonly align 8 dereferenceable(24) %0)
  unreachable

bb7:                                              ; preds = %bb4
  %2 = insertvalue { [0 x i8]*, i64 } undef, [0 x i8]* %_18.0, 0
  %3 = insertvalue { [0 x i8]*, i64 } %2, i64 %_18.1, 1
  ret { [0 x i8]*, i64 } %3
}

; <core::ops::range::RangeTo<usize> as core::slice::index::SliceIndex<[T]>>::index
; Function Attrs: inlinehint nonlazybind uwtable
define internal { [0 x i8]*, i64 } @"_ZN108_$LT$core..ops..range..RangeTo$LT$usize$GT$$u20$as$u20$core..slice..index..SliceIndex$LT$$u5b$T$u5d$$GT$$GT$5index17hfe75ae2e71962f17E"(i64 %self, [0 x i8]* mpk_immut noalias nonnull readonly align 1 %slice.0, i64 %slice.1, %"std::panic::Location"* mpk_immut noalias readonly align 8 dereferenceable(24) %0) unnamed_addr #0 {
start:
  %_3 = alloca { i64, i64 }, align 8
  %1 = bitcast { i64, i64 }* %_3 to i64*
  store i64 0, i64* %1, align 8
  %2 = getelementptr inbounds { i64, i64 }, { i64, i64 }* %_3, i32 0, i32 1
  store i64 %self, i64* %2, align 8
  %3 = getelementptr inbounds { i64, i64 }, { i64, i64 }* %_3, i32 0, i32 0
  %4 = load i64, i64* %3, align 8
  %5 = getelementptr inbounds { i64, i64 }, { i64, i64 }* %_3, i32 0, i32 1
  %6 = load i64, i64* %5, align 8
; call <core::ops::range::Range<usize> as core::slice::index::SliceIndex<[T]>>::index
  %7 = call { [0 x i8]*, i64 } @"_ZN106_$LT$core..ops..range..Range$LT$usize$GT$$u20$as$u20$core..slice..index..SliceIndex$LT$$u5b$T$u5d$$GT$$GT$5index17h8f2194ebaad00742E"(i64 %4, i64 %6, [0 x i8]* mpk_immut noalias nonnull readonly align 1 %slice.0, i64 %slice.1, %"std::panic::Location"* mpk_immut noalias readonly align 8 dereferenceable(24) %0)
  %8 = extractvalue { [0 x i8]*, i64 } %7, 0
  %9 = extractvalue { [0 x i8]*, i64 } %7, 1
  br label %bb1

bb1:                                              ; preds = %start
  %10 = insertvalue { [0 x i8]*, i64 } undef, [0 x i8]* %8, 0
  %11 = insertvalue { [0 x i8]*, i64 } %10, i64 %9, 1
  ret { [0 x i8]*, i64 } %11
}

; <core::ops::range::RangeTo<usize> as core::slice::index::SliceIndex<[T]>>::index_mut
; Function Attrs: inlinehint nonlazybind uwtable
define internal { [0 x i8]*, i64 } @"_ZN108_$LT$core..ops..range..RangeTo$LT$usize$GT$$u20$as$u20$core..slice..index..SliceIndex$LT$$u5b$T$u5d$$GT$$GT$9index_mut17he3091bbce1d1eebfE"(i64 %self, [0 x i8]* nonnull align 1 %slice.0, i64 %slice.1, %"std::panic::Location"* mpk_immut noalias readonly align 8 dereferenceable(24) %0) unnamed_addr #0 {
start:
  %_5 = alloca { i64, i64 }, align 8
  %1 = bitcast { i64, i64 }* %_5 to i64*
  store i64 0, i64* %1, align 8
  %2 = getelementptr inbounds { i64, i64 }, { i64, i64 }* %_5, i32 0, i32 1
  store i64 %self, i64* %2, align 8
  %3 = getelementptr inbounds { i64, i64 }, { i64, i64 }* %_5, i32 0, i32 0
  %4 = load i64, i64* %3, align 8
  %5 = getelementptr inbounds { i64, i64 }, { i64, i64 }* %_5, i32 0, i32 1
  %6 = load i64, i64* %5, align 8
; call <core::ops::range::Range<usize> as core::slice::index::SliceIndex<[T]>>::index_mut
  %7 = call { [0 x i8]*, i64 } @"_ZN106_$LT$core..ops..range..Range$LT$usize$GT$$u20$as$u20$core..slice..index..SliceIndex$LT$$u5b$T$u5d$$GT$$GT$9index_mut17hb79147aeadc3ab84E"(i64 %4, i64 %6, [0 x i8]* nonnull align 1 %slice.0, i64 %slice.1, %"std::panic::Location"* mpk_immut noalias readonly align 8 dereferenceable(24) %0)
  %_4.0 = extractvalue { [0 x i8]*, i64 } %7, 0
  %_4.1 = extractvalue { [0 x i8]*, i64 } %7, 1
  br label %bb1

bb1:                                              ; preds = %start
  %8 = insertvalue { [0 x i8]*, i64 } undef, [0 x i8]* %_4.0, 0
  %9 = insertvalue { [0 x i8]*, i64 } %8, i64 %_4.1, 1
  ret { [0 x i8]*, i64 } %9
}

; <alloc::collections::btree::map::IntoIter<K,V> as core::iter::traits::iterator::Iterator>::next
; Function Attrs: nonlazybind uwtable
define internal void @"_ZN112_$LT$alloc..collections..btree..map..IntoIter$LT$K$C$V$GT$$u20$as$u20$core..iter..traits..iterator..Iterator$GT$4next17ha327ca422ada72c2E"(%"std::option::Option<(std::ffi::OsString, std::option::Option<std::ffi::OsString>)>"* noalias nocapture sret dereferenceable(48) %0, %"std::collections::btree_map::IntoIter<std::ffi::OsString, std::option::Option<std::ffi::OsString>>"* align 8 dereferenceable(56) %self) unnamed_addr #1 {
start:
  %_3 = alloca { [0 x i64], %"std::ffi::OsString", [0 x i64], %"std::option::Option<std::ffi::OsString>", [0 x i64] }, align 8
  %1 = getelementptr inbounds %"std::collections::btree_map::IntoIter<std::ffi::OsString, std::option::Option<std::ffi::OsString>>", %"std::collections::btree_map::IntoIter<std::ffi::OsString, std::option::Option<std::ffi::OsString>>"* %self, i32 0, i32 5
  %_2 = load i64, i64* %1, align 8
  %2 = icmp eq i64 %_2, 0
  br i1 %2, label %bb2, label %bb1

bb1:                                              ; preds = %start
  %3 = getelementptr inbounds %"std::collections::btree_map::IntoIter<std::ffi::OsString, std::option::Option<std::ffi::OsString>>", %"std::collections::btree_map::IntoIter<std::ffi::OsString, std::option::Option<std::ffi::OsString>>"* %self, i32 0, i32 5
  %4 = getelementptr inbounds %"std::collections::btree_map::IntoIter<std::ffi::OsString, std::option::Option<std::ffi::OsString>>", %"std::collections::btree_map::IntoIter<std::ffi::OsString, std::option::Option<std::ffi::OsString>>"* %self, i32 0, i32 5
  %5 = load i64, i64* %4, align 8
  %6 = sub i64 %5, 1
  store i64 %6, i64* %3, align 8
  %_7 = bitcast %"std::collections::btree_map::IntoIter<std::ffi::OsString, std::option::Option<std::ffi::OsString>>"* %self to %"std::option::Option<alloc::collections::btree::node::Handle<alloc::collections::btree::node::NodeRef<alloc::collections::btree::node::marker::Owned, std::ffi::OsString, std::option::Option<std::ffi::OsString>, alloc::collections::btree::node::marker::Leaf>, alloc::collections::btree::node::marker::Edge>>"*
; call core::option::Option<T>::as_mut
  %_6 = call align 8 dereferenceable_or_null(24) i64* @"_ZN4core6option15Option$LT$T$GT$6as_mut17h4b2b0c430fdea080E"(%"std::option::Option<alloc::collections::btree::node::Handle<alloc::collections::btree::node::NodeRef<alloc::collections::btree::node::marker::Owned, std::ffi::OsString, std::option::Option<std::ffi::OsString>, alloc::collections::btree::node::marker::Leaf>, alloc::collections::btree::node::marker::Edge>>"* align 8 dereferenceable(24) %_7), !MPK-Unsafe !4
  br label %bb3

bb2:                                              ; preds = %start
  %7 = bitcast %"std::option::Option<(std::ffi::OsString, std::option::Option<std::ffi::OsString>)>"* %0 to {}**
  store {}* null, {}** %7, align 8
  br label %bb6

bb3:                                              ; preds = %bb1
; call core::option::Option<T>::unwrap
  %_5 = call align 8 dereferenceable(24) %"alloc::collections::btree::node::Handle<alloc::collections::btree::node::NodeRef<alloc::collections::btree::node::marker::Owned, std::ffi::OsString, std::option::Option<std::ffi::OsString>, alloc::collections::btree::node::marker::Leaf>, alloc::collections::btree::node::marker::Edge>"* @"_ZN4core6option15Option$LT$T$GT$6unwrap17h79b2436157265a1bE"(i64* align 8 dereferenceable_or_null(24) %_6, %"std::panic::Location"* mpk_immut noalias readonly align 8 dereferenceable(24) bitcast (<{ i8*, [16 x i8] }>* @alloc166 to %"std::panic::Location"*)), !MPK-Unsafe !4
  br label %bb4

bb4:                                              ; preds = %bb3
; call alloc::collections::btree::navigate::<impl alloc::collections::btree::node::Handle<alloc::collections::btree::node::NodeRef<alloc::collections::btree::node::marker::Owned,K,V,alloc::collections::btree::node::marker::Leaf>,alloc::collections::btree::node::marker::Edge>>::next_unchecked
  call void @"_ZN5alloc11collections5btree8navigate263_$LT$impl$u20$alloc..collections..btree..node..Handle$LT$alloc..collections..btree..node..NodeRef$LT$alloc..collections..btree..node..marker..Owned$C$K$C$V$C$alloc..collections..btree..node..marker..Leaf$GT$$C$alloc..collections..btree..node..marker..Edge$GT$$GT$14next_unchecked17hcee31d4d9dacfe44E"({ [0 x i64], %"std::ffi::OsString", [0 x i64], %"std::option::Option<std::ffi::OsString>", [0 x i64] }* noalias nocapture sret dereferenceable(48) %_3, %"alloc::collections::btree::node::Handle<alloc::collections::btree::node::NodeRef<alloc::collections::btree::node::marker::Owned, std::ffi::OsString, std::option::Option<std::ffi::OsString>, alloc::collections::btree::node::marker::Leaf>, alloc::collections::btree::node::marker::Edge>"* align 8 dereferenceable(24) %_5), !MPK-Unsafe !4
  br label %bb5

bb5:                                              ; preds = %bb4
  %8 = bitcast %"std::option::Option<(std::ffi::OsString, std::option::Option<std::ffi::OsString>)>"* %0 to %"std::option::Option<(std::ffi::OsString, std::option::Option<std::ffi::OsString>)>::Some"*
  %9 = bitcast %"std::option::Option<(std::ffi::OsString, std::option::Option<std::ffi::OsString>)>::Some"* %8 to { [0 x i64], %"std::ffi::OsString", [0 x i64], %"std::option::Option<std::ffi::OsString>", [0 x i64] }*
  %10 = bitcast { [0 x i64], %"std::ffi::OsString", [0 x i64], %"std::option::Option<std::ffi::OsString>", [0 x i64] }* %9 to i8*
  %11 = bitcast { [0 x i64], %"std::ffi::OsString", [0 x i64], %"std::option::Option<std::ffi::OsString>", [0 x i64] }* %_3 to i8*
  call void @llvm.memcpy.p0i8.p0i8.i64(i8* align 8 %10, i8* align 8 %11, i64 48, i1 false)
  br label %bb6

bb6:                                              ; preds = %bb2, %bb5
  ret void
}

; <alloc::collections::btree::map::BTreeMap<K,V> as core::iter::traits::collect::IntoIterator>::into_iter
; Function Attrs: nonlazybind uwtable
define internal void @"_ZN115_$LT$alloc..collections..btree..map..BTreeMap$LT$K$C$V$GT$$u20$as$u20$core..iter..traits..collect..IntoIterator$GT$9into_iter17h6283f53be42bc0bcE"(%"std::collections::btree_map::IntoIter<std::ffi::OsString, std::option::Option<std::ffi::OsString>>"* noalias nocapture sret dereferenceable(56) %0, %"std::collections::BTreeMap<std::ffi::OsString, std::option::Option<std::ffi::OsString>>"* noalias nocapture dereferenceable(24) %self) unnamed_addr #1 {
start:
  %_2.i = alloca %"std::collections::BTreeMap<std::ffi::OsString, std::option::Option<std::ffi::OsString>>", align 8
  %_23 = alloca %"std::option::Option<alloc::collections::btree::node::Handle<alloc::collections::btree::node::NodeRef<alloc::collections::btree::node::marker::Owned, std::ffi::OsString, std::option::Option<std::ffi::OsString>, alloc::collections::btree::node::marker::Leaf>, alloc::collections::btree::node::marker::Edge>>", align 8
  %_22 = alloca %"std::option::Option<alloc::collections::btree::node::Handle<alloc::collections::btree::node::NodeRef<alloc::collections::btree::node::marker::Owned, std::ffi::OsString, std::option::Option<std::ffi::OsString>, alloc::collections::btree::node::marker::Leaf>, alloc::collections::btree::node::marker::Edge>>", align 8
  %_18 = alloca %"alloc::collections::btree::node::Handle<alloc::collections::btree::node::NodeRef<alloc::collections::btree::node::marker::Owned, std::ffi::OsString, std::option::Option<std::ffi::OsString>, alloc::collections::btree::node::marker::Leaf>, alloc::collections::btree::node::marker::Edge>", align 8
  %_17 = alloca %"std::option::Option<alloc::collections::btree::node::Handle<alloc::collections::btree::node::NodeRef<alloc::collections::btree::node::marker::Owned, std::ffi::OsString, std::option::Option<std::ffi::OsString>, alloc::collections::btree::node::marker::Leaf>, alloc::collections::btree::node::marker::Edge>>", align 8
  %_16 = alloca %"alloc::collections::btree::node::Handle<alloc::collections::btree::node::NodeRef<alloc::collections::btree::node::marker::Owned, std::ffi::OsString, std::option::Option<std::ffi::OsString>, alloc::collections::btree::node::marker::Leaf>, alloc::collections::btree::node::marker::Edge>", align 8
  %_15 = alloca %"std::option::Option<alloc::collections::btree::node::Handle<alloc::collections::btree::node::NodeRef<alloc::collections::btree::node::marker::Owned, std::ffi::OsString, std::option::Option<std::ffi::OsString>, alloc::collections::btree::node::marker::Leaf>, alloc::collections::btree::node::marker::Edge>>", align 8
  %_12 = alloca { [0 x i64], %"alloc::collections::btree::node::Handle<alloc::collections::btree::node::NodeRef<alloc::collections::btree::node::marker::Owned, std::ffi::OsString, std::option::Option<std::ffi::OsString>, alloc::collections::btree::node::marker::Leaf>, alloc::collections::btree::node::marker::Edge>", [0 x i64], %"alloc::collections::btree::node::Handle<alloc::collections::btree::node::NodeRef<alloc::collections::btree::node::marker::Owned, std::ffi::OsString, std::option::Option<std::ffi::OsString>, alloc::collections::btree::node::marker::Leaf>, alloc::collections::btree::node::marker::Edge>", [0 x i64] }, align 8
  %b = alloca %"alloc::collections::btree::node::Handle<alloc::collections::btree::node::NodeRef<alloc::collections::btree::node::marker::Owned, std::ffi::OsString, std::option::Option<std::ffi::OsString>, alloc::collections::btree::node::marker::Leaf>, alloc::collections::btree::node::marker::Edge>", align 8
  %f = alloca %"alloc::collections::btree::node::Handle<alloc::collections::btree::node::NodeRef<alloc::collections::btree::node::marker::Owned, std::ffi::OsString, std::option::Option<std::ffi::OsString>, alloc::collections::btree::node::marker::Leaf>, alloc::collections::btree::node::marker::Edge>", align 8
  %_4 = alloca { i64*, i64 }, align 8
  %_3 = alloca %"std::collections::BTreeMap<std::ffi::OsString, std::option::Option<std::ffi::OsString>>", align 8
  %me = alloca %"std::mem::ManuallyDrop<std::collections::BTreeMap<std::ffi::OsString, std::option::Option<std::ffi::OsString>>>", align 8
  %1 = bitcast %"std::collections::BTreeMap<std::ffi::OsString, std::option::Option<std::ffi::OsString>>"* %_3 to i8*
  %2 = bitcast %"std::collections::BTreeMap<std::ffi::OsString, std::option::Option<std::ffi::OsString>>"* %self to i8*
  call void @llvm.memcpy.p0i8.p0i8.i64(i8* align 8 %1, i8* align 8 %2, i64 24, i1 false)
  %3 = bitcast %"std::collections::BTreeMap<std::ffi::OsString, std::option::Option<std::ffi::OsString>>"* %_2.i to i8*
  %4 = bitcast %"std::collections::BTreeMap<std::ffi::OsString, std::option::Option<std::ffi::OsString>>"* %_3 to i8*
  call void @llvm.memcpy.p0i8.p0i8.i64(i8* align 8 %3, i8* align 8 %4, i64 24, i1 false), !noalias !6
  %5 = bitcast %"std::mem::ManuallyDrop<std::collections::BTreeMap<std::ffi::OsString, std::option::Option<std::ffi::OsString>>>"* %me to %"std::collections::BTreeMap<std::ffi::OsString, std::option::Option<std::ffi::OsString>>"*
  %6 = bitcast %"std::collections::BTreeMap<std::ffi::OsString, std::option::Option<std::ffi::OsString>>"* %5 to i8*
  %7 = bitcast %"std::collections::BTreeMap<std::ffi::OsString, std::option::Option<std::ffi::OsString>>"* %_2.i to i8*
  call void @llvm.memcpy.p0i8.p0i8.i64(i8* align 8 %6, i8* align 8 %7, i64 24, i1 false), !noalias !9
  br label %bb1

bb1:                                              ; preds = %start
  %_3.i = bitcast %"std::mem::ManuallyDrop<std::collections::BTreeMap<std::ffi::OsString, std::option::Option<std::ffi::OsString>>>"* %me to %"std::collections::BTreeMap<std::ffi::OsString, std::option::Option<std::ffi::OsString>>"*
  br label %bb2

bb2:                                              ; preds = %bb1
  %_5 = bitcast %"std::collections::BTreeMap<std::ffi::OsString, std::option::Option<std::ffi::OsString>>"* %_3.i to { i64*, i64 }*
; call core::option::Option<T>::take
  %8 = call { i64*, i64 } @"_ZN4core6option15Option$LT$T$GT$4take17ha3b5f55c735034abE"({ i64*, i64 }* align 8 dereferenceable(16) %_5)
  store { i64*, i64 } %8, { i64*, i64 }* %_4, align 8
  br label %bb3

bb3:                                              ; preds = %bb2
  %9 = bitcast { i64*, i64 }* %_4 to {}**
  %10 = load {}*, {}** %9, align 8
  %11 = icmp eq {}* %10, null
  %_8 = select i1 %11, i64 0, i64 1
  %12 = icmp eq i64 %_8, 1
  br i1 %12, label %bb5, label %bb4

bb4:                                              ; preds = %bb3
  %13 = getelementptr inbounds %"std::option::Option<alloc::collections::btree::node::Handle<alloc::collections::btree::node::NodeRef<alloc::collections::btree::node::marker::Owned, std::ffi::OsString, std::option::Option<std::ffi::OsString>, alloc::collections::btree::node::marker::Leaf>, alloc::collections::btree::node::marker::Edge>>", %"std::option::Option<alloc::collections::btree::node::Handle<alloc::collections::btree::node::NodeRef<alloc::collections::btree::node::marker::Owned, std::ffi::OsString, std::option::Option<std::ffi::OsString>, alloc::collections::btree::node::marker::Leaf>, alloc::collections::btree::node::marker::Edge>>"* %_22, i32 0, i32 1
  store {}* null, {}** %13, align 8
  %14 = getelementptr inbounds %"std::option::Option<alloc::collections::btree::node::Handle<alloc::collections::btree::node::NodeRef<alloc::collections::btree::node::marker::Owned, std::ffi::OsString, std::option::Option<std::ffi::OsString>, alloc::collections::btree::node::marker::Leaf>, alloc::collections::btree::node::marker::Edge>>", %"std::option::Option<alloc::collections::btree::node::Handle<alloc::collections::btree::node::NodeRef<alloc::collections::btree::node::marker::Owned, std::ffi::OsString, std::option::Option<std::ffi::OsString>, alloc::collections::btree::node::marker::Leaf>, alloc::collections::btree::node::marker::Edge>>"* %_23, i32 0, i32 1
  store {}* null, {}** %14, align 8
  %15 = bitcast %"std::collections::btree_map::IntoIter<std::ffi::OsString, std::option::Option<std::ffi::OsString>>"* %0 to %"std::option::Option<alloc::collections::btree::node::Handle<alloc::collections::btree::node::NodeRef<alloc::collections::btree::node::marker::Owned, std::ffi::OsString, std::option::Option<std::ffi::OsString>, alloc::collections::btree::node::marker::Leaf>, alloc::collections::btree::node::marker::Edge>>"*
  %16 = bitcast %"std::option::Option<alloc::collections::btree::node::Handle<alloc::collections::btree::node::NodeRef<alloc::collections::btree::node::marker::Owned, std::ffi::OsString, std::option::Option<std::ffi::OsString>, alloc::collections::btree::node::marker::Leaf>, alloc::collections::btree::node::marker::Edge>>"* %15 to i8*
  %17 = bitcast %"std::option::Option<alloc::collections::btree::node::Handle<alloc::collections::btree::node::NodeRef<alloc::collections::btree::node::marker::Owned, std::ffi::OsString, std::option::Option<std::ffi::OsString>, alloc::collections::btree::node::marker::Leaf>, alloc::collections::btree::node::marker::Edge>>"* %_22 to i8*
  call void @llvm.memcpy.p0i8.p0i8.i64(i8* align 8 %16, i8* align 8 %17, i64 24, i1 false)
  %18 = getelementptr inbounds %"std::collections::btree_map::IntoIter<std::ffi::OsString, std::option::Option<std::ffi::OsString>>", %"std::collections::btree_map::IntoIter<std::ffi::OsString, std::option::Option<std::ffi::OsString>>"* %0, i32 0, i32 3
  %19 = bitcast %"std::option::Option<alloc::collections::btree::node::Handle<alloc::collections::btree::node::NodeRef<alloc::collections::btree::node::marker::Owned, std::ffi::OsString, std::option::Option<std::ffi::OsString>, alloc::collections::btree::node::marker::Leaf>, alloc::collections::btree::node::marker::Edge>>"* %18 to i8*
  %20 = bitcast %"std::option::Option<alloc::collections::btree::node::Handle<alloc::collections::btree::node::NodeRef<alloc::collections::btree::node::marker::Owned, std::ffi::OsString, std::option::Option<std::ffi::OsString>, alloc::collections::btree::node::marker::Leaf>, alloc::collections::btree::node::marker::Edge>>"* %_23 to i8*
  call void @llvm.memcpy.p0i8.p0i8.i64(i8* align 8 %19, i8* align 8 %20, i64 24, i1 false)
  %21 = getelementptr inbounds %"std::collections::btree_map::IntoIter<std::ffi::OsString, std::option::Option<std::ffi::OsString>>", %"std::collections::btree_map::IntoIter<std::ffi::OsString, std::option::Option<std::ffi::OsString>>"* %0, i32 0, i32 5
  store i64 0, i64* %21, align 8
  br label %bb9

bb5:                                              ; preds = %bb3
  %22 = getelementptr inbounds { i64*, i64 }, { i64*, i64 }* %_4, i32 0, i32 0
  %root.0 = load i64*, i64** %22, align 8, !nonnull !11
  %23 = getelementptr inbounds { i64*, i64 }, { i64*, i64 }* %_4, i32 0, i32 1
  %root.1 = load i64, i64* %23, align 8
; call alloc::collections::btree::node::Root<K,V>::into_ref
  %24 = call { i64, i64* } @"_ZN5alloc11collections5btree4node17Root$LT$K$C$V$GT$8into_ref17h6460d3310c92462bE"(i64* mpk_immut nonnull %root.0, i64 %root.1)
  %_13.0 = extractvalue { i64, i64* } %24, 0
  %_13.1 = extractvalue { i64, i64* } %24, 1
  br label %bb6

bb6:                                              ; preds = %bb5
; call alloc::collections::btree::navigate::<impl alloc::collections::btree::node::NodeRef<alloc::collections::btree::node::marker::Owned,K,V,alloc::collections::btree::node::marker::LeafOrInternal>>::full_range
  call void @"_ZN5alloc11collections5btree8navigate178_$LT$impl$u20$alloc..collections..btree..node..NodeRef$LT$alloc..collections..btree..node..marker..Owned$C$K$C$V$C$alloc..collections..btree..node..marker..LeafOrInternal$GT$$GT$10full_range17hc4c7989b8ff762a6E"({ [0 x i64], %"alloc::collections::btree::node::Handle<alloc::collections::btree::node::NodeRef<alloc::collections::btree::node::marker::Owned, std::ffi::OsString, std::option::Option<std::ffi::OsString>, alloc::collections::btree::node::marker::Leaf>, alloc::collections::btree::node::marker::Edge>", [0 x i64], %"alloc::collections::btree::node::Handle<alloc::collections::btree::node::NodeRef<alloc::collections::btree::node::marker::Owned, std::ffi::OsString, std::option::Option<std::ffi::OsString>, alloc::collections::btree::node::marker::Leaf>, alloc::collections::btree::node::marker::Edge>", [0 x i64] }* noalias nocapture sret dereferenceable(48) %_12, i64 %_13.0, i64* mpk_immut nonnull %_13.1)
  br label %bb7

bb7:                                              ; preds = %bb6
  %25 = bitcast { [0 x i64], %"alloc::collections::btree::node::Handle<alloc::collections::btree::node::NodeRef<alloc::collections::btree::node::marker::Owned, std::ffi::OsString, std::option::Option<std::ffi::OsString>, alloc::collections::btree::node::marker::Leaf>, alloc::collections::btree::node::marker::Edge>", [0 x i64], %"alloc::collections::btree::node::Handle<alloc::collections::btree::node::NodeRef<alloc::collections::btree::node::marker::Owned, std::ffi::OsString, std::option::Option<std::ffi::OsString>, alloc::collections::btree::node::marker::Leaf>, alloc::collections::btree::node::marker::Edge>", [0 x i64] }* %_12 to %"alloc::collections::btree::node::Handle<alloc::collections::btree::node::NodeRef<alloc::collections::btree::node::marker::Owned, std::ffi::OsString, std::option::Option<std::ffi::OsString>, alloc::collections::btree::node::marker::Leaf>, alloc::collections::btree::node::marker::Edge>"*
  %26 = bitcast %"alloc::collections::btree::node::Handle<alloc::collections::btree::node::NodeRef<alloc::collections::btree::node::marker::Owned, std::ffi::OsString, std::option::Option<std::ffi::OsString>, alloc::collections::btree::node::marker::Leaf>, alloc::collections::btree::node::marker::Edge>"* %f to i8*
  %27 = bitcast %"alloc::collections::btree::node::Handle<alloc::collections::btree::node::NodeRef<alloc::collections::btree::node::marker::Owned, std::ffi::OsString, std::option::Option<std::ffi::OsString>, alloc::collections::btree::node::marker::Leaf>, alloc::collections::btree::node::marker::Edge>"* %25 to i8*
  call void @llvm.memcpy.p0i8.p0i8.i64(i8* align 8 %26, i8* align 8 %27, i64 24, i1 false)
  %28 = getelementptr inbounds { [0 x i64], %"alloc::collections::btree::node::Handle<alloc::collections::btree::node::NodeRef<alloc::collections::btree::node::marker::Owned, std::ffi::OsString, std::option::Option<std::ffi::OsString>, alloc::collections::btree::node::marker::Leaf>, alloc::collections::btree::node::marker::Edge>", [0 x i64], %"alloc::collections::btree::node::Handle<alloc::collections::btree::node::NodeRef<alloc::collections::btree::node::marker::Owned, std::ffi::OsString, std::option::Option<std::ffi::OsString>, alloc::collections::btree::node::marker::Leaf>, alloc::collections::btree::node::marker::Edge>", [0 x i64] }, { [0 x i64], %"alloc::collections::btree::node::Handle<alloc::collections::btree::node::NodeRef<alloc::collections::btree::node::marker::Owned, std::ffi::OsString, std::option::Option<std::ffi::OsString>, alloc::collections::btree::node::marker::Leaf>, alloc::collections::btree::node::marker::Edge>", [0 x i64], %"alloc::collections::btree::node::Handle<alloc::collections::btree::node::NodeRef<alloc::collections::btree::node::marker::Owned, std::ffi::OsString, std::option::Option<std::ffi::OsString>, alloc::collections::btree::node::marker::Leaf>, alloc::collections::btree::node::marker::Edge>", [0 x i64] }* %_12, i32 0, i32 3
  %29 = bitcast %"alloc::collections::btree::node::Handle<alloc::collections::btree::node::NodeRef<alloc::collections::btree::node::marker::Owned, std::ffi::OsString, std::option::Option<std::ffi::OsString>, alloc::collections::btree::node::marker::Leaf>, alloc::collections::btree::node::marker::Edge>"* %b to i8*
  %30 = bitcast %"alloc::collections::btree::node::Handle<alloc::collections::btree::node::NodeRef<alloc::collections::btree::node::marker::Owned, std::ffi::OsString, std::option::Option<std::ffi::OsString>, alloc::collections::btree::node::marker::Leaf>, alloc::collections::btree::node::marker::Edge>"* %28 to i8*
  call void @llvm.memcpy.p0i8.p0i8.i64(i8* align 8 %29, i8* align 8 %30, i64 24, i1 false)
  %31 = bitcast %"alloc::collections::btree::node::Handle<alloc::collections::btree::node::NodeRef<alloc::collections::btree::node::marker::Owned, std::ffi::OsString, std::option::Option<std::ffi::OsString>, alloc::collections::btree::node::marker::Leaf>, alloc::collections::btree::node::marker::Edge>"* %_16 to i8*
  %32 = bitcast %"alloc::collections::btree::node::Handle<alloc::collections::btree::node::NodeRef<alloc::collections::btree::node::marker::Owned, std::ffi::OsString, std::option::Option<std::ffi::OsString>, alloc::collections::btree::node::marker::Leaf>, alloc::collections::btree::node::marker::Edge>"* %f to i8*
  call void @llvm.memcpy.p0i8.p0i8.i64(i8* align 8 %31, i8* align 8 %32, i64 24, i1 false)
  %33 = bitcast %"std::option::Option<alloc::collections::btree::node::Handle<alloc::collections::btree::node::NodeRef<alloc::collections::btree::node::marker::Owned, std::ffi::OsString, std::option::Option<std::ffi::OsString>, alloc::collections::btree::node::marker::Leaf>, alloc::collections::btree::node::marker::Edge>>"* %_15 to %"std::option::Option<alloc::collections::btree::node::Handle<alloc::collections::btree::node::NodeRef<alloc::collections::btree::node::marker::Owned, std::ffi::OsString, std::option::Option<std::ffi::OsString>, alloc::collections::btree::node::marker::Leaf>, alloc::collections::btree::node::marker::Edge>>::Some"*
  %34 = bitcast %"std::option::Option<alloc::collections::btree::node::Handle<alloc::collections::btree::node::NodeRef<alloc::collections::btree::node::marker::Owned, std::ffi::OsString, std::option::Option<std::ffi::OsString>, alloc::collections::btree::node::marker::Leaf>, alloc::collections::btree::node::marker::Edge>>::Some"* %33 to %"alloc::collections::btree::node::Handle<alloc::collections::btree::node::NodeRef<alloc::collections::btree::node::marker::Owned, std::ffi::OsString, std::option::Option<std::ffi::OsString>, alloc::collections::btree::node::marker::Leaf>, alloc::collections::btree::node::marker::Edge>"*
  %35 = bitcast %"alloc::collections::btree::node::Handle<alloc::collections::btree::node::NodeRef<alloc::collections::btree::node::marker::Owned, std::ffi::OsString, std::option::Option<std::ffi::OsString>, alloc::collections::btree::node::marker::Leaf>, alloc::collections::btree::node::marker::Edge>"* %34 to i8*
  %36 = bitcast %"alloc::collections::btree::node::Handle<alloc::collections::btree::node::NodeRef<alloc::collections::btree::node::marker::Owned, std::ffi::OsString, std::option::Option<std::ffi::OsString>, alloc::collections::btree::node::marker::Leaf>, alloc::collections::btree::node::marker::Edge>"* %_16 to i8*
  call void @llvm.memcpy.p0i8.p0i8.i64(i8* align 8 %35, i8* align 8 %36, i64 24, i1 false)
  %37 = bitcast %"alloc::collections::btree::node::Handle<alloc::collections::btree::node::NodeRef<alloc::collections::btree::node::marker::Owned, std::ffi::OsString, std::option::Option<std::ffi::OsString>, alloc::collections::btree::node::marker::Leaf>, alloc::collections::btree::node::marker::Edge>"* %_18 to i8*
  %38 = bitcast %"alloc::collections::btree::node::Handle<alloc::collections::btree::node::NodeRef<alloc::collections::btree::node::marker::Owned, std::ffi::OsString, std::option::Option<std::ffi::OsString>, alloc::collections::btree::node::marker::Leaf>, alloc::collections::btree::node::marker::Edge>"* %b to i8*
  call void @llvm.memcpy.p0i8.p0i8.i64(i8* align 8 %37, i8* align 8 %38, i64 24, i1 false)
  %39 = bitcast %"std::option::Option<alloc::collections::btree::node::Handle<alloc::collections::btree::node::NodeRef<alloc::collections::btree::node::marker::Owned, std::ffi::OsString, std::option::Option<std::ffi::OsString>, alloc::collections::btree::node::marker::Leaf>, alloc::collections::btree::node::marker::Edge>>"* %_17 to %"std::option::Option<alloc::collections::btree::node::Handle<alloc::collections::btree::node::NodeRef<alloc::collections::btree::node::marker::Owned, std::ffi::OsString, std::option::Option<std::ffi::OsString>, alloc::collections::btree::node::marker::Leaf>, alloc::collections::btree::node::marker::Edge>>::Some"*
  %40 = bitcast %"std::option::Option<alloc::collections::btree::node::Handle<alloc::collections::btree::node::NodeRef<alloc::collections::btree::node::marker::Owned, std::ffi::OsString, std::option::Option<std::ffi::OsString>, alloc::collections::btree::node::marker::Leaf>, alloc::collections::btree::node::marker::Edge>>::Some"* %39 to %"alloc::collections::btree::node::Handle<alloc::collections::btree::node::NodeRef<alloc::collections::btree::node::marker::Owned, std::ffi::OsString, std::option::Option<std::ffi::OsString>, alloc::collections::btree::node::marker::Leaf>, alloc::collections::btree::node::marker::Edge>"*
  %41 = bitcast %"alloc::collections::btree::node::Handle<alloc::collections::btree::node::NodeRef<alloc::collections::btree::node::marker::Owned, std::ffi::OsString, std::option::Option<std::ffi::OsString>, alloc::collections::btree::node::marker::Leaf>, alloc::collections::btree::node::marker::Edge>"* %40 to i8*
  %42 = bitcast %"alloc::collections::btree::node::Handle<alloc::collections::btree::node::NodeRef<alloc::collections::btree::node::marker::Owned, std::ffi::OsString, std::option::Option<std::ffi::OsString>, alloc::collections::btree::node::marker::Leaf>, alloc::collections::btree::node::marker::Edge>"* %_18 to i8*
  call void @llvm.memcpy.p0i8.p0i8.i64(i8* align 8 %41, i8* align 8 %42, i64 24, i1 false)
  %43 = bitcast %"std::mem::ManuallyDrop<std::collections::BTreeMap<std::ffi::OsString, std::option::Option<std::ffi::OsString>>>"* %me to %"std::collections::BTreeMap<std::ffi::OsString, std::option::Option<std::ffi::OsString>>"*
  br label %bb8

bb8:                                              ; preds = %bb7
  %44 = getelementptr inbounds %"std::collections::BTreeMap<std::ffi::OsString, std::option::Option<std::ffi::OsString>>", %"std::collections::BTreeMap<std::ffi::OsString, std::option::Option<std::ffi::OsString>>"* %43, i32 0, i32 3
  %_19 = load i64, i64* %44, align 8
  %45 = bitcast %"std::collections::btree_map::IntoIter<std::ffi::OsString, std::option::Option<std::ffi::OsString>>"* %0 to %"std::option::Option<alloc::collections::btree::node::Handle<alloc::collections::btree::node::NodeRef<alloc::collections::btree::node::marker::Owned, std::ffi::OsString, std::option::Option<std::ffi::OsString>, alloc::collections::btree::node::marker::Leaf>, alloc::collections::btree::node::marker::Edge>>"*
  %46 = bitcast %"std::option::Option<alloc::collections::btree::node::Handle<alloc::collections::btree::node::NodeRef<alloc::collections::btree::node::marker::Owned, std::ffi::OsString, std::option::Option<std::ffi::OsString>, alloc::collections::btree::node::marker::Leaf>, alloc::collections::btree::node::marker::Edge>>"* %45 to i8*
  %47 = bitcast %"std::option::Option<alloc::collections::btree::node::Handle<alloc::collections::btree::node::NodeRef<alloc::collections::btree::node::marker::Owned, std::ffi::OsString, std::option::Option<std::ffi::OsString>, alloc::collections::btree::node::marker::Leaf>, alloc::collections::btree::node::marker::Edge>>"* %_15 to i8*
  call void @llvm.memcpy.p0i8.p0i8.i64(i8* align 8 %46, i8* align 8 %47, i64 24, i1 false)
  %48 = getelementptr inbounds %"std::collections::btree_map::IntoIter<std::ffi::OsString, std::option::Option<std::ffi::OsString>>", %"std::collections::btree_map::IntoIter<std::ffi::OsString, std::option::Option<std::ffi::OsString>>"* %0, i32 0, i32 3
  %49 = bitcast %"std::option::Option<alloc::collections::btree::node::Handle<alloc::collections::btree::node::NodeRef<alloc::collections::btree::node::marker::Owned, std::ffi::OsString, std::option::Option<std::ffi::OsString>, alloc::collections::btree::node::marker::Leaf>, alloc::collections::btree::node::marker::Edge>>"* %48 to i8*
  %50 = bitcast %"std::option::Option<alloc::collections::btree::node::Handle<alloc::collections::btree::node::NodeRef<alloc::collections::btree::node::marker::Owned, std::ffi::OsString, std::option::Option<std::ffi::OsString>, alloc::collections::btree::node::marker::Leaf>, alloc::collections::btree::node::marker::Edge>>"* %_17 to i8*
  call void @llvm.memcpy.p0i8.p0i8.i64(i8* align 8 %49, i8* align 8 %50, i64 24, i1 false)
  %51 = getelementptr inbounds %"std::collections::btree_map::IntoIter<std::ffi::OsString, std::option::Option<std::ffi::OsString>>", %"std::collections::btree_map::IntoIter<std::ffi::OsString, std::option::Option<std::ffi::OsString>>"* %0, i32 0, i32 5
  store i64 %_19, i64* %51, align 8
  br label %bb9

bb9:                                              ; preds = %bb8, %bb4
  ret void
}

; <core::ptr::non_null::NonNull<T> as core::convert::From<core::ptr::unique::Unique<T>>>::from
; Function Attrs: inlinehint nonlazybind uwtable
define internal mpk_immut nonnull i8* @"_ZN119_$LT$core..ptr..non_null..NonNull$LT$T$GT$$u20$as$u20$core..convert..From$LT$core..ptr..unique..Unique$LT$T$GT$$GT$$GT$4from17h27883e369023a667E"(i8* mpk_immut nonnull %unique) unnamed_addr #0 {
start:
; call core::ptr::unique::Unique<T>::as_ptr
  %_2 = call i8* @"_ZN4core3ptr6unique15Unique$LT$T$GT$6as_ptr17h055a443b2e13d456E"(i8* mpk_immut nonnull %unique), !MPK-Unsafe !4
  br label %bb1

bb1:                                              ; preds = %start
; call core::ptr::non_null::NonNull<T>::new_unchecked
  %0 = call mpk_immut mpk_unsafe nonnull i8* @"_ZN4core3ptr8non_null16NonNull$LT$T$GT$13new_unchecked17h5c5c968be544278cE"(i8* mpk_unsafe %_2), !MPK-Unsafe !4
  br label %bb2

bb2:                                              ; preds = %bb1
  ret i8* %0
}

; <core::ptr::non_null::NonNull<T> as core::convert::From<core::ptr::unique::Unique<T>>>::from
; Function Attrs: inlinehint nonlazybind uwtable
define internal mpk_immut nonnull i64* @"_ZN119_$LT$core..ptr..non_null..NonNull$LT$T$GT$$u20$as$u20$core..convert..From$LT$core..ptr..unique..Unique$LT$T$GT$$GT$$GT$4from17he6db5958d3c3a6c4E"(i64* mpk_immut nonnull %unique) unnamed_addr #0 {
start:
; call core::ptr::unique::Unique<T>::as_ptr
  %_2 = call %"alloc::collections::btree::node::LeafNode<std::ffi::OsString, std::option::Option<std::ffi::OsString>>"* @"_ZN4core3ptr6unique15Unique$LT$T$GT$6as_ptr17hca9ca350dbe1ad0cE"(i64* mpk_immut nonnull %unique), !MPK-Unsafe !4
  br label %bb1

bb1:                                              ; preds = %start
; call core::ptr::non_null::NonNull<T>::new_unchecked
  %0 = call mpk_immut mpk_unsafe nonnull i64* @"_ZN4core3ptr8non_null16NonNull$LT$T$GT$13new_unchecked17h86967d3eb292b06bE"(%"alloc::collections::btree::node::LeafNode<std::ffi::OsString, std::option::Option<std::ffi::OsString>>"* mpk_unsafe %_2), !MPK-Unsafe !4
  br label %bb2

bb2:                                              ; preds = %bb1
  ret i64* %0
}

; <<alloc::collections::btree::map::IntoIter<K,V> as core::ops::drop::Drop>::drop::DropGuard<K,V> as core::ops::drop::Drop>::drop
; Function Attrs: nonlazybind uwtable
define internal void @"_ZN166_$LT$$LT$alloc..collections..btree..map..IntoIter$LT$K$C$V$GT$$u20$as$u20$core..ops..drop..Drop$GT$..drop..DropGuard$LT$K$C$V$GT$$u20$as$u20$core..ops..drop..Drop$GT$4drop17h0988e0d5cbda9ad4E"(i64** align 8 dereferenceable(8) %self) unnamed_addr #1 {
start:
  %_2.i = alloca %"std::option::Option<alloc::collections::btree::node::Handle<alloc::collections::btree::node::NodeRef<alloc::collections::btree::node::marker::Owned, std::ffi::OsString, std::option::Option<std::ffi::OsString>, alloc::collections::btree::node::marker::Leaf>, alloc::collections::btree::node::marker::Edge>>", align 8
  %_17 = alloca %"alloc::collections::btree::node::Handle<alloc::collections::btree::node::NodeRef<alloc::collections::btree::node::marker::Owned, std::ffi::OsString, std::option::Option<std::ffi::OsString>, alloc::collections::btree::node::marker::Internal>, alloc::collections::btree::node::marker::Edge>", align 8
  %parent = alloca %"alloc::collections::btree::node::Handle<alloc::collections::btree::node::NodeRef<alloc::collections::btree::node::marker::Owned, std::ffi::OsString, std::option::Option<std::ffi::OsString>, alloc::collections::btree::node::marker::Internal>, alloc::collections::btree::node::marker::Edge>", align 8
  %_11 = alloca %"std::option::Option<alloc::collections::btree::node::Handle<alloc::collections::btree::node::NodeRef<alloc::collections::btree::node::marker::Owned, std::ffi::OsString, std::option::Option<std::ffi::OsString>, alloc::collections::btree::node::marker::Internal>, alloc::collections::btree::node::marker::Edge>>", align 8
  %_8 = alloca %"std::option::Option<alloc::collections::btree::node::Handle<alloc::collections::btree::node::NodeRef<alloc::collections::btree::node::marker::Owned, std::ffi::OsString, std::option::Option<std::ffi::OsString>, alloc::collections::btree::node::marker::Leaf>, alloc::collections::btree::node::marker::Edge>>", align 8
  %_7 = alloca %"alloc::collections::btree::node::Handle<alloc::collections::btree::node::NodeRef<alloc::collections::btree::node::marker::Owned, std::ffi::OsString, std::option::Option<std::ffi::OsString>, alloc::collections::btree::node::marker::Leaf>, alloc::collections::btree::node::marker::Edge>", align 8
  %node = alloca { i64, i64* }, align 8
  %_2 = alloca %"std::option::Option<(std::ffi::OsString, std::option::Option<std::ffi::OsString>)>", align 8
  br label %bb1

bb1:                                              ; preds = %bb5, %start
  %0 = bitcast i64** %self to %"std::collections::btree_map::IntoIter<std::ffi::OsString, std::option::Option<std::ffi::OsString>>"**
  %_3 = load %"std::collections::btree_map::IntoIter<std::ffi::OsString, std::option::Option<std::ffi::OsString>>"*, %"std::collections::btree_map::IntoIter<std::ffi::OsString, std::option::Option<std::ffi::OsString>>"** %0, align 8, !nonnull !11
; call <alloc::collections::btree::map::IntoIter<K,V> as core::iter::traits::iterator::Iterator>::next
  call void @"_ZN112_$LT$alloc..collections..btree..map..IntoIter$LT$K$C$V$GT$$u20$as$u20$core..iter..traits..iterator..Iterator$GT$4next17ha327ca422ada72c2E"(%"std::option::Option<(std::ffi::OsString, std::option::Option<std::ffi::OsString>)>"* noalias nocapture sret dereferenceable(48) %_2, %"std::collections::btree_map::IntoIter<std::ffi::OsString, std::option::Option<std::ffi::OsString>>"* align 8 dereferenceable(56) %_3)
  br label %bb2

bb2:                                              ; preds = %bb1
  %1 = bitcast %"std::option::Option<(std::ffi::OsString, std::option::Option<std::ffi::OsString>)>"* %_2 to {}**
  %2 = load {}*, {}** %1, align 8
  %3 = icmp eq {}* %2, null
  %_4 = select i1 %3, i64 0, i64 1
  %4 = icmp eq i64 %_4, 1
  br i1 %4, label %bb4, label %bb3

bb3:                                              ; preds = %bb2
; call core::ptr::drop_in_place
  call void @_ZN4core3ptr13drop_in_place17hdfc8b089247fb3e6E(%"std::option::Option<(std::ffi::OsString, std::option::Option<std::ffi::OsString>)>"* mpk_unsafe %_2)
  br label %bb6

bb4:                                              ; preds = %bb2
; call core::ptr::drop_in_place
  call void @_ZN4core3ptr13drop_in_place17hdfc8b089247fb3e6E(%"std::option::Option<(std::ffi::OsString, std::option::Option<std::ffi::OsString>)>"* mpk_unsafe %_2)
  br label %bb5

bb5:                                              ; preds = %bb4
  br label %bb1

bb6:                                              ; preds = %bb3
  %5 = bitcast i64** %self to %"std::collections::btree_map::IntoIter<std::ffi::OsString, std::option::Option<std::ffi::OsString>>"**
  %6 = load %"std::collections::btree_map::IntoIter<std::ffi::OsString, std::option::Option<std::ffi::OsString>>"*, %"std::collections::btree_map::IntoIter<std::ffi::OsString, std::option::Option<std::ffi::OsString>>"** %5, align 8, !nonnull !11, !MPK-Unsafe !4
  %_10 = bitcast %"std::collections::btree_map::IntoIter<std::ffi::OsString, std::option::Option<std::ffi::OsString>>"* %6 to %"std::option::Option<alloc::collections::btree::node::Handle<alloc::collections::btree::node::NodeRef<alloc::collections::btree::node::marker::Owned, std::ffi::OsString, std::option::Option<std::ffi::OsString>, alloc::collections::btree::node::marker::Leaf>, alloc::collections::btree::node::marker::Edge>>"*
; call core::ptr::read
  call void @_ZN4core3ptr4read17hc31b192d5fea81d6E(%"std::option::Option<alloc::collections::btree::node::Handle<alloc::collections::btree::node::NodeRef<alloc::collections::btree::node::marker::Owned, std::ffi::OsString, std::option::Option<std::ffi::OsString>, alloc::collections::btree::node::marker::Leaf>, alloc::collections::btree::node::marker::Edge>>"* noalias nocapture sret dereferenceable(24) %_8, %"std::option::Option<alloc::collections::btree::node::Handle<alloc::collections::btree::node::NodeRef<alloc::collections::btree::node::marker::Owned, std::ffi::OsString, std::option::Option<std::ffi::OsString>, alloc::collections::btree::node::marker::Leaf>, alloc::collections::btree::node::marker::Edge>>"* mpk_immut mpk_unsafe %_10), !MPK-Unsafe !4
  br label %bb7

bb7:                                              ; preds = %bb6
  %7 = bitcast %"std::option::Option<alloc::collections::btree::node::Handle<alloc::collections::btree::node::NodeRef<alloc::collections::btree::node::marker::Owned, std::ffi::OsString, std::option::Option<std::ffi::OsString>, alloc::collections::btree::node::marker::Leaf>, alloc::collections::btree::node::marker::Edge>>"* %_2.i to i8*
  %8 = bitcast %"std::option::Option<alloc::collections::btree::node::Handle<alloc::collections::btree::node::NodeRef<alloc::collections::btree::node::marker::Owned, std::ffi::OsString, std::option::Option<std::ffi::OsString>, alloc::collections::btree::node::marker::Leaf>, alloc::collections::btree::node::marker::Edge>>"* %_8 to i8*
  call void @llvm.memcpy.p0i8.p0i8.i64(i8* align 8 %7, i8* align 8 %8, i64 24, i1 false), !noalias !12
; call core::option::Option<T>::unwrap_or_else
  call void @"_ZN4core6option15Option$LT$T$GT$14unwrap_or_else17h848bf7541053ac9aE"(%"alloc::collections::btree::node::Handle<alloc::collections::btree::node::NodeRef<alloc::collections::btree::node::marker::Owned, std::ffi::OsString, std::option::Option<std::ffi::OsString>, alloc::collections::btree::node::marker::Leaf>, alloc::collections::btree::node::marker::Edge>"* noalias nocapture sret dereferenceable(24) %_7, %"std::option::Option<alloc::collections::btree::node::Handle<alloc::collections::btree::node::NodeRef<alloc::collections::btree::node::marker::Owned, std::ffi::OsString, std::option::Option<std::ffi::OsString>, alloc::collections::btree::node::marker::Leaf>, alloc::collections::btree::node::marker::Edge>>"* noalias nocapture dereferenceable(24) %_2.i), !noalias !15
  br label %bb8

bb8:                                              ; preds = %bb7
; call alloc::collections::btree::node::Handle<Node,Type>::into_node
  %9 = call { i64, i64* } @"_ZN5alloc11collections5btree4node25Handle$LT$Node$C$Type$GT$9into_node17h2f076b47bed1596fE"(%"alloc::collections::btree::node::Handle<alloc::collections::btree::node::NodeRef<alloc::collections::btree::node::marker::Owned, std::ffi::OsString, std::option::Option<std::ffi::OsString>, alloc::collections::btree::node::marker::Leaf>, alloc::collections::btree::node::marker::Edge>"* noalias nocapture dereferenceable(24) %_7), !MPK-Unsafe !4
  %_6.0 = extractvalue { i64, i64* } %9, 0
  %_6.1 = extractvalue { i64, i64* } %9, 1
  br label %bb9

bb9:                                              ; preds = %bb8
; call alloc::collections::btree::node::NodeRef<BorrowType,K,V,alloc::collections::btree::node::marker::Leaf>::forget_type
  %10 = call { i64, i64* } @"_ZN5alloc11collections5btree4node81NodeRef$LT$BorrowType$C$K$C$V$C$alloc..collections..btree..node..marker..Leaf$GT$11forget_type17hfcc8340e47be90c1E"(i64 %_6.0, i64* mpk_immut nonnull %_6.1), !MPK-Unsafe !4
  store { i64, i64* } %10, { i64, i64* }* %node, align 8, !MPK-Unsafe !4
  br label %bb10

bb10:                                             ; preds = %bb9
  br label %bb11

bb11:                                             ; preds = %bb16, %bb10
  %11 = getelementptr inbounds { i64, i64* }, { i64, i64* }* %node, i32 0, i32 0
  %_12.0 = load i64, i64* %11, align 8, !MPK-Unsafe !4
  %12 = getelementptr inbounds { i64, i64* }, { i64, i64* }* %node, i32 0, i32 1
  %_12.1 = load i64*, i64** %12, align 8, !nonnull !11, !MPK-Unsafe !4
; call alloc::collections::btree::node::NodeRef<alloc::collections::btree::node::marker::Owned,K,V,alloc::collections::btree::node::marker::LeafOrInternal>::deallocate_and_ascend
  call void @"_ZN5alloc11collections5btree4node127NodeRef$LT$alloc..collections..btree..node..marker..Owned$C$K$C$V$C$alloc..collections..btree..node..marker..LeafOrInternal$GT$21deallocate_and_ascend17h4079bfe7baf266d6E"(%"std::option::Option<alloc::collections::btree::node::Handle<alloc::collections::btree::node::NodeRef<alloc::collections::btree::node::marker::Owned, std::ffi::OsString, std::option::Option<std::ffi::OsString>, alloc::collections::btree::node::marker::Internal>, alloc::collections::btree::node::marker::Edge>>"* noalias nocapture sret dereferenceable(24) %_11, i64 %_12.0, i64* mpk_immut mpk_unsafe nonnull %_12.1), !MPK-Unsafe !4
  br label %bb12

bb12:                                             ; preds = %bb11
  %13 = getelementptr inbounds %"std::option::Option<alloc::collections::btree::node::Handle<alloc::collections::btree::node::NodeRef<alloc::collections::btree::node::marker::Owned, std::ffi::OsString, std::option::Option<std::ffi::OsString>, alloc::collections::btree::node::marker::Internal>, alloc::collections::btree::node::marker::Edge>>", %"std::option::Option<alloc::collections::btree::node::Handle<alloc::collections::btree::node::NodeRef<alloc::collections::btree::node::marker::Owned, std::ffi::OsString, std::option::Option<std::ffi::OsString>, alloc::collections::btree::node::marker::Internal>, alloc::collections::btree::node::marker::Edge>>"* %_11, i32 0, i32 1
  %14 = load {}*, {}** %13, align 8, !MPK-Unsafe !4
  %15 = icmp eq {}* %14, null
  %_13 = select i1 %15, i64 0, i64 1
  %16 = icmp eq i64 %_13, 1
  br i1 %16, label %bb14, label %bb13

bb13:                                             ; preds = %bb12
  ret void

bb14:                                             ; preds = %bb12
  %17 = bitcast %"std::option::Option<alloc::collections::btree::node::Handle<alloc::collections::btree::node::NodeRef<alloc::collections::btree::node::marker::Owned, std::ffi::OsString, std::option::Option<std::ffi::OsString>, alloc::collections::btree::node::marker::Internal>, alloc::collections::btree::node::marker::Edge>>"* %_11 to %"std::option::Option<alloc::collections::btree::node::Handle<alloc::collections::btree::node::NodeRef<alloc::collections::btree::node::marker::Owned, std::ffi::OsString, std::option::Option<std::ffi::OsString>, alloc::collections::btree::node::marker::Internal>, alloc::collections::btree::node::marker::Edge>>::Some"*
  %18 = bitcast %"std::option::Option<alloc::collections::btree::node::Handle<alloc::collections::btree::node::NodeRef<alloc::collections::btree::node::marker::Owned, std::ffi::OsString, std::option::Option<std::ffi::OsString>, alloc::collections::btree::node::marker::Internal>, alloc::collections::btree::node::marker::Edge>>::Some"* %17 to %"alloc::collections::btree::node::Handle<alloc::collections::btree::node::NodeRef<alloc::collections::btree::node::marker::Owned, std::ffi::OsString, std::option::Option<std::ffi::OsString>, alloc::collections::btree::node::marker::Internal>, alloc::collections::btree::node::marker::Edge>"*
  %19 = bitcast %"alloc::collections::btree::node::Handle<alloc::collections::btree::node::NodeRef<alloc::collections::btree::node::marker::Owned, std::ffi::OsString, std::option::Option<std::ffi::OsString>, alloc::collections::btree::node::marker::Internal>, alloc::collections::btree::node::marker::Edge>"* %parent to i8*
  %20 = bitcast %"alloc::collections::btree::node::Handle<alloc::collections::btree::node::NodeRef<alloc::collections::btree::node::marker::Owned, std::ffi::OsString, std::option::Option<std::ffi::OsString>, alloc::collections::btree::node::marker::Internal>, alloc::collections::btree::node::marker::Edge>"* %18 to i8*
  call void @llvm.memcpy.p0i8.p0i8.i64(i8* align 8 %19, i8* align 8 %20, i64 24, i1 false), !MPK-Unsafe !4
  %21 = bitcast %"alloc::collections::btree::node::Handle<alloc::collections::btree::node::NodeRef<alloc::collections::btree::node::marker::Owned, std::ffi::OsString, std::option::Option<std::ffi::OsString>, alloc::collections::btree::node::marker::Internal>, alloc::collections::btree::node::marker::Edge>"* %_17 to i8*
  %22 = bitcast %"alloc::collections::btree::node::Handle<alloc::collections::btree::node::NodeRef<alloc::collections::btree::node::marker::Owned, std::ffi::OsString, std::option::Option<std::ffi::OsString>, alloc::collections::btree::node::marker::Internal>, alloc::collections::btree::node::marker::Edge>"* %parent to i8*
  call void @llvm.memcpy.p0i8.p0i8.i64(i8* align 8 %21, i8* align 8 %22, i64 24, i1 false), !MPK-Unsafe !4
; call alloc::collections::btree::node::Handle<Node,Type>::into_node
  %23 = call { i64, i64* } @"_ZN5alloc11collections5btree4node25Handle$LT$Node$C$Type$GT$9into_node17hbae0866c3ee7c49fE"(%"alloc::collections::btree::node::Handle<alloc::collections::btree::node::NodeRef<alloc::collections::btree::node::marker::Owned, std::ffi::OsString, std::option::Option<std::ffi::OsString>, alloc::collections::btree::node::marker::Internal>, alloc::collections::btree::node::marker::Edge>"* noalias nocapture dereferenceable(24) %_17), !MPK-Unsafe !4
  %_16.0 = extractvalue { i64, i64* } %23, 0
  %_16.1 = extractvalue { i64, i64* } %23, 1
  br label %bb15

bb15:                                             ; preds = %bb14
; call alloc::collections::btree::node::NodeRef<BorrowType,K,V,alloc::collections::btree::node::marker::Internal>::forget_type
  %24 = call { i64, i64* } @"_ZN5alloc11collections5btree4node85NodeRef$LT$BorrowType$C$K$C$V$C$alloc..collections..btree..node..marker..Internal$GT$11forget_type17h144b8b4505e325a2E"(i64 %_16.0, i64* mpk_immut nonnull %_16.1), !MPK-Unsafe !4
  %_15.0 = extractvalue { i64, i64* } %24, 0
  %_15.1 = extractvalue { i64, i64* } %24, 1
  br label %bb16

bb16:                                             ; preds = %bb15
  %25 = getelementptr inbounds { i64, i64* }, { i64, i64* }* %node, i32 0, i32 0
  store i64 %_15.0, i64* %25, align 8, !MPK-Unsafe !4
  %26 = getelementptr inbounds { i64, i64* }, { i64, i64* }* %node, i32 0, i32 1
  store i64* %_15.1, i64** %26, align 8, !MPK-Unsafe !4
  br label %bb11
}

; <T as core::any::Any>::type_id
; Function Attrs: nonlazybind uwtable
define internal i64 @"_ZN36_$LT$T$u20$as$u20$core..any..Any$GT$7type_id17h5d51012198a4764eE"({ [0 x i8]*, i64 }* mpk_immut noalias readonly align 8 dereferenceable(16) %self) unnamed_addr #1 {
start:
; call core::any::TypeId::of
  %0 = call i64 @_ZN4core3any6TypeId2of17h1c59568a209856c6E()
  br label %bb1

bb1:                                              ; preds = %start
  ret i64 %0
}

; std::sys_common::os_str_bytes::Buf::as_slice
; Function Attrs: inlinehint nonlazybind uwtable
define internal { %"std::sys_common::os_str_bytes::Slice"*, i64 } @_ZN3std10sys_common12os_str_bytes3Buf8as_slice17hf87cca2ab68e5fc4E(%"std::sys_common::os_str_bytes::Buf"* mpk_immut noalias readonly align 8 dereferenceable(24) %self) unnamed_addr #0 {
start:
  %0 = alloca { %"std::sys_common::os_str_bytes::Slice"*, i64 }, align 8, !MPK-Unsafe !4
  %_4 = bitcast %"std::sys_common::os_str_bytes::Buf"* %self to %"std::vec::Vec<u8>"*, !MPK-SmartPointer !3
; call <alloc::vec::Vec<T> as core::ops::deref::Deref>::deref
  %1 = call { [0 x i8]*, i64 } @"_ZN68_$LT$alloc..vec..Vec$LT$T$GT$$u20$as$u20$core..ops..deref..Deref$GT$5deref17hfe00dc9b466b7d4dE"(%"std::vec::Vec<u8>"* mpk_immut noalias readonly align 8 dereferenceable(24) %_4), !MPK-Unsafe !4
  %_3.0 = extractvalue { [0 x i8]*, i64 } %1, 0
  %_3.1 = extractvalue { [0 x i8]*, i64 } %1, 1
  br label %bb1

bb1:                                              ; preds = %start
  %2 = bitcast { %"std::sys_common::os_str_bytes::Slice"*, i64 }* %0 to { [0 x i8]*, i64 }*
  %3 = getelementptr inbounds { [0 x i8]*, i64 }, { [0 x i8]*, i64 }* %2, i32 0, i32 0
  store [0 x i8]* %_3.0, [0 x i8]** %3, align 8, !MPK-Unsafe !4
  %4 = getelementptr inbounds { [0 x i8]*, i64 }, { [0 x i8]*, i64 }* %2, i32 0, i32 1
  store i64 %_3.1, i64* %4, align 8, !MPK-Unsafe !4
  %5 = getelementptr inbounds { %"std::sys_common::os_str_bytes::Slice"*, i64 }, { %"std::sys_common::os_str_bytes::Slice"*, i64 }* %0, i32 0, i32 0
  %6 = load %"std::sys_common::os_str_bytes::Slice"*, %"std::sys_common::os_str_bytes::Slice"** %5, align 8, !nonnull !11, !MPK-Unsafe !4
  %7 = getelementptr inbounds { %"std::sys_common::os_str_bytes::Slice"*, i64 }, { %"std::sys_common::os_str_bytes::Slice"*, i64 }* %0, i32 0, i32 1
  %8 = load i64, i64* %7, align 8, !MPK-Unsafe !4
  br label %bb2

bb2:                                              ; preds = %bb1
  %9 = insertvalue { %"std::sys_common::os_str_bytes::Slice"*, i64 } undef, %"std::sys_common::os_str_bytes::Slice"* %6, 0
  %10 = insertvalue { %"std::sys_common::os_str_bytes::Slice"*, i64 } %9, i64 %8, 1
  ret { %"std::sys_common::os_str_bytes::Slice"*, i64 } %10
}

; std::sys_common::os_str_bytes::Slice::from_u8_slice
; Function Attrs: inlinehint nonlazybind uwtable
define internal { %"std::sys_common::os_str_bytes::Slice"*, i64 } @_ZN3std10sys_common12os_str_bytes5Slice13from_u8_slice17hd512af9db01a6198E([0 x i8]* mpk_immut noalias nonnull readonly align 1 %s.0, i64 %s.1) unnamed_addr #0 {
start:
  %0 = alloca { %"std::sys_common::os_str_bytes::Slice"*, i64 }, align 8, !MPK-Unsafe !4
  %1 = bitcast { %"std::sys_common::os_str_bytes::Slice"*, i64 }* %0 to { [0 x i8]*, i64 }*
  %2 = getelementptr inbounds { [0 x i8]*, i64 }, { [0 x i8]*, i64 }* %1, i32 0, i32 0
  store [0 x i8]* %s.0, [0 x i8]** %2, align 8, !MPK-Unsafe !4
  %3 = getelementptr inbounds { [0 x i8]*, i64 }, { [0 x i8]*, i64 }* %1, i32 0, i32 1
  store i64 %s.1, i64* %3, align 8, !MPK-Unsafe !4
  %4 = getelementptr inbounds { %"std::sys_common::os_str_bytes::Slice"*, i64 }, { %"std::sys_common::os_str_bytes::Slice"*, i64 }* %0, i32 0, i32 0
  %5 = load %"std::sys_common::os_str_bytes::Slice"*, %"std::sys_common::os_str_bytes::Slice"** %4, align 8, !nonnull !11, !MPK-Unsafe !4
  %6 = getelementptr inbounds { %"std::sys_common::os_str_bytes::Slice"*, i64 }, { %"std::sys_common::os_str_bytes::Slice"*, i64 }* %0, i32 0, i32 1
  %7 = load i64, i64* %6, align 8, !MPK-Unsafe !4
  br label %bb1

bb1:                                              ; preds = %start
  %8 = insertvalue { %"std::sys_common::os_str_bytes::Slice"*, i64 } undef, %"std::sys_common::os_str_bytes::Slice"* %5, 0
  %9 = insertvalue { %"std::sys_common::os_str_bytes::Slice"*, i64 } %8, i64 %7, 1
  ret { %"std::sys_common::os_str_bytes::Slice"*, i64 } %9
}

; std::sys_common::os_str_bytes::Slice::from_str
; Function Attrs: inlinehint nonlazybind uwtable
define internal { %"std::sys_common::os_str_bytes::Slice"*, i64 } @_ZN3std10sys_common12os_str_bytes5Slice8from_str17h793b823e46005143E([0 x i8]* mpk_immut noalias nonnull readonly align 1 %s.0, i64 %s.1) unnamed_addr #0 {
start:
  %0 = alloca { [0 x i8]*, i64 }, align 8, !MPK-Unsafe !4
  %1 = getelementptr inbounds { [0 x i8]*, i64 }, { [0 x i8]*, i64 }* %0, i32 0, i32 0
  store [0 x i8]* %s.0, [0 x i8]** %1, align 8, !noalias !17, !MPK-Unsafe !4
  %2 = getelementptr inbounds { [0 x i8]*, i64 }, { [0 x i8]*, i64 }* %0, i32 0, i32 1
  store i64 %s.1, i64* %2, align 8, !noalias !17, !MPK-Unsafe !4
  %3 = getelementptr inbounds { [0 x i8]*, i64 }, { [0 x i8]*, i64 }* %0, i32 0, i32 0
  %4 = load [0 x i8]*, [0 x i8]** %3, align 8, !noalias !17, !nonnull !11, !MPK-Unsafe !4
  %5 = getelementptr inbounds { [0 x i8]*, i64 }, { [0 x i8]*, i64 }* %0, i32 0, i32 1
  %6 = load i64, i64* %5, align 8, !noalias !17, !MPK-Unsafe !4
  %7 = insertvalue { [0 x i8]*, i64 } undef, [0 x i8]* %4, 0
  %8 = insertvalue { [0 x i8]*, i64 } %7, i64 %6, 1
  %_3.0 = extractvalue { [0 x i8]*, i64 } %8, 0
  %_3.1 = extractvalue { [0 x i8]*, i64 } %8, 1
  br label %bb1

bb1:                                              ; preds = %start
; call std::sys_common::os_str_bytes::Slice::from_u8_slice
  %9 = call { %"std::sys_common::os_str_bytes::Slice"*, i64 } @_ZN3std10sys_common12os_str_bytes5Slice13from_u8_slice17hd512af9db01a6198E([0 x i8]* mpk_immut noalias nonnull readonly align 1 %_3.0, i64 %_3.1)
  %10 = extractvalue { %"std::sys_common::os_str_bytes::Slice"*, i64 } %9, 0
  %11 = extractvalue { %"std::sys_common::os_str_bytes::Slice"*, i64 } %9, 1
  br label %bb2

bb2:                                              ; preds = %bb1
  %12 = insertvalue { %"std::sys_common::os_str_bytes::Slice"*, i64 } undef, %"std::sys_common::os_str_bytes::Slice"* %10, 0
  %13 = insertvalue { %"std::sys_common::os_str_bytes::Slice"*, i64 } %12, i64 %11, 1
  ret { %"std::sys_common::os_str_bytes::Slice"*, i64 } %13
}

; std::sys_common::backtrace::__rust_end_short_backtrace
; Function Attrs: noinline noreturn nonlazybind uwtable
define internal void @_ZN3std10sys_common9backtrace26__rust_end_short_backtrace17h3365c94aba92c7b6E(%"[closure@std::rt::begin_panic<&str>::{closure#0}]"* noalias nocapture dereferenceable(24) %f) unnamed_addr #2 personality i32 (i32, i32, i64, %"unwind::libunwind::_Unwind_Exception"*, %"unwind::libunwind::_Unwind_Context"*)* @rust_eh_personality {
start:
  %0 = alloca { i8*, i32 }, align 8
  %_5 = alloca {}, align 1
  %_3 = alloca {}, align 1
  %_2 = alloca %"[closure@std::rt::begin_panic<&str>::{closure#0}]", align 8
  %1 = bitcast %"[closure@std::rt::begin_panic<&str>::{closure#0}]"* %_2 to i8*
  %2 = bitcast %"[closure@std::rt::begin_panic<&str>::{closure#0}]"* %f to i8*
  call void @llvm.memcpy.p0i8.p0i8.i64(i8* align 8 %1, i8* align 8 %2, i64 24, i1 false)
; call std::panicking::begin_panic::{{closure}}
  call void @"_ZN3std9panicking11begin_panic28_$u7b$$u7b$closure$u7d$$u7d$17he73226c26d1f0131E"(%"[closure@std::rt::begin_panic<&str>::{closure#0}]"* noalias nocapture dereferenceable(24) %_2)
  br label %bb1

bb1:                                              ; preds = %start
; invoke core::hint::black_box
  invoke void @_ZN4core4hint9black_box17haf62e4539d9d534eE()
          to label %bb2 unwind label %cleanup

bb2:                                              ; preds = %bb1
  call void @llvm.trap()
  unreachable

bb3:                                              ; preds = %cleanup
  br label %bb4

bb4:                                              ; preds = %bb3
  %3 = bitcast { i8*, i32 }* %0 to i8**
  %4 = load i8*, i8** %3, align 8
  %5 = getelementptr inbounds { i8*, i32 }, { i8*, i32 }* %0, i32 0, i32 1
  %6 = load i32, i32* %5, align 8
  %7 = insertvalue { i8*, i32 } undef, i8* %4, 0
  %8 = insertvalue { i8*, i32 } %7, i32 %6, 1
  resume { i8*, i32 } %8

cleanup:                                          ; preds = %bb1
  %9 = landingpad { i8*, i32 }
          cleanup
  %10 = extractvalue { i8*, i32 } %9, 0
  %11 = extractvalue { i8*, i32 } %9, 1
  %12 = getelementptr inbounds { i8*, i32 }, { i8*, i32 }* %0, i32 0, i32 0
  store i8* %10, i8** %12, align 8
  %13 = getelementptr inbounds { i8*, i32 }, { i8*, i32 }* %0, i32 0, i32 1
  store i32 %11, i32* %13, align 8
  br label %bb3
}

; std::sys_common::backtrace::__rust_begin_short_backtrace
; Function Attrs: noinline nonlazybind uwtable
define internal void @_ZN3std10sys_common9backtrace28__rust_begin_short_backtrace17he6ae76e7b58c630dE(void ()* mpk_immut nonnull %f) unnamed_addr #3 personality i32 (i32, i32, i64, %"unwind::libunwind::_Unwind_Exception"*, %"unwind::libunwind::_Unwind_Context"*)* @rust_eh_personality {
start:
  %0 = alloca { i8*, i32 }, align 8
  %_5 = alloca {}, align 1
  %_3 = alloca {}, align 1
; call core::ops::function::FnOnce::call_once
  call void @_ZN4core3ops8function6FnOnce9call_once17hb0f61a47df5fc4b8E(void ()* mpk_immut nonnull %f)
  br label %bb1

bb1:                                              ; preds = %start
; invoke core::hint::black_box
  invoke void @_ZN4core4hint9black_box17haf62e4539d9d534eE()
          to label %bb2 unwind label %cleanup

bb2:                                              ; preds = %bb1
  ret void

bb3:                                              ; preds = %cleanup
  br label %bb4

bb4:                                              ; preds = %bb3
  %1 = bitcast { i8*, i32 }* %0 to i8**
  %2 = load i8*, i8** %1, align 8
  %3 = getelementptr inbounds { i8*, i32 }, { i8*, i32 }* %0, i32 0, i32 1
  %4 = load i32, i32* %3, align 8
  %5 = insertvalue { i8*, i32 } undef, i8* %2, 0
  %6 = insertvalue { i8*, i32 } %5, i32 %4, 1
  resume { i8*, i32 } %6

cleanup:                                          ; preds = %bb1
  %7 = landingpad { i8*, i32 }
          cleanup
  %8 = extractvalue { i8*, i32 } %7, 0
  %9 = extractvalue { i8*, i32 } %7, 1
  %10 = getelementptr inbounds { i8*, i32 }, { i8*, i32 }* %0, i32 0, i32 0
  store i8* %8, i8** %10, align 8
  %11 = getelementptr inbounds { i8*, i32 }, { i8*, i32 }* %0, i32 0, i32 1
  store i32 %9, i32* %11, align 8
  br label %bb3
}

; std::rt::lang_start
; Function Attrs: nonlazybind uwtable
define hidden i64 @_ZN3std2rt10lang_start17ha1ada3f1c945e901E(void ()* mpk_immut nonnull %main, i64 %argc, i8** mpk_immut %argv) unnamed_addr #1 {
start:
  %_7 = alloca i64*, align 8
  %0 = bitcast i64** %_7 to void ()**
  store void ()* %main, void ()** %0, align 8
  %_4.0 = bitcast i64** %_7 to {}*
; call std::rt::lang_start_internal
  %1 = call i64 @_ZN3std2rt19lang_start_internal17h2677a686eee71786E({}* mpk_immut nonnull align 1 %_4.0, [3 x i64]* mpk_immut noalias readonly align 8 dereferenceable(24) bitcast ({ void (i64**)*, i64, i64, i32 (i64**)*, i32 (i64**)*, i32 (i64**)* }* @vtable.0 to [3 x i64]*), i64 %argc, i8** mpk_immut %argv)
  br label %bb1

bb1:                                              ; preds = %start
  ret i64 %1
}

; std::rt::lang_start::{{closure}}
; Function Attrs: nonlazybind uwtable
define internal i32 @"_ZN3std2rt10lang_start28_$u7b$$u7b$closure$u7d$$u7d$17hd348c98e2a8984ebE"(i64** mpk_immut noalias readonly align 8 dereferenceable(8) %_1) unnamed_addr #1 {
start:
  %0 = bitcast i64** %_1 to void ()**
  %_3 = load void ()*, void ()** %0, align 8, !nonnull !11
; call std::sys_common::backtrace::__rust_begin_short_backtrace
  call void @_ZN3std10sys_common9backtrace28__rust_begin_short_backtrace17he6ae76e7b58c630dE(void ()* mpk_immut nonnull %_3)
  br label %bb1

bb1:                                              ; preds = %start
; call <() as std::process::Termination>::report
  %1 = call i32 @"_ZN54_$LT$$LP$$RP$$u20$as$u20$std..process..Termination$GT$6report17h2d838450e2c37799E"()
  br label %bb2

bb2:                                              ; preds = %bb1
  ret i32 %1
}

; std::env::var
; Function Attrs: nonlazybind uwtable
define internal void @_ZN3std3env3var17h2642a6f9a8f4a38fE(%"std::result::Result<std::string::String, std::env::VarError>"* noalias nocapture sret dereferenceable(32) %0, [0 x i8]* mpk_immut noalias nonnull readonly align 1 %1, i64 %2) unnamed_addr #1 personality i32 (i32, i32, i64, %"unwind::libunwind::_Unwind_Exception"*, %"unwind::libunwind::_Unwind_Context"*)* @rust_eh_personality {
start:
  %3 = alloca { i8*, i32 }, align 8
  %key = alloca { [0 x i8]*, i64 }, align 8
  %4 = getelementptr inbounds { [0 x i8]*, i64 }, { [0 x i8]*, i64 }* %key, i32 0, i32 0
  store [0 x i8]* %1, [0 x i8]** %4, align 8
  %5 = getelementptr inbounds { [0 x i8]*, i64 }, { [0 x i8]*, i64 }* %key, i32 0, i32 1
  store i64 %2, i64* %5, align 8
; invoke <&T as core::convert::AsRef<U>>::as_ref
  %6 = invoke { %"std::ffi::OsStr"*, i64 } @"_ZN55_$LT$$RF$T$u20$as$u20$core..convert..AsRef$LT$U$GT$$GT$6as_ref17h48e9281acdda823eE"({ [0 x i8]*, i64 }* mpk_immut noalias readonly align 8 dereferenceable(16) %key)
          to label %bb1 unwind label %cleanup

bb1:                                              ; preds = %start
  %_3.0 = extractvalue { %"std::ffi::OsStr"*, i64 } %6, 0
  %_3.1 = extractvalue { %"std::ffi::OsStr"*, i64 } %6, 1
; invoke std::env::_var
  invoke void @_ZN3std3env4_var17hf3cab80e3a018b1aE(%"std::result::Result<std::string::String, std::env::VarError>"* noalias nocapture sret dereferenceable(32) %0, %"std::ffi::OsStr"* mpk_immut noalias nonnull readonly align 1 %_3.0, i64 %_3.1)
          to label %bb2 unwind label %cleanup

bb2:                                              ; preds = %bb1
  br label %bb3

bb3:                                              ; preds = %bb2
  ret void

bb4:                                              ; preds = %cleanup
  br label %bb5

bb5:                                              ; preds = %bb4
  %7 = bitcast { i8*, i32 }* %3 to i8**
  %8 = load i8*, i8** %7, align 8
  %9 = getelementptr inbounds { i8*, i32 }, { i8*, i32 }* %3, i32 0, i32 1
  %10 = load i32, i32* %9, align 8
  %11 = insertvalue { i8*, i32 } undef, i8* %8, 0
  %12 = insertvalue { i8*, i32 } %11, i32 %10, 1
  resume { i8*, i32 } %12

cleanup:                                          ; preds = %bb1, %start
  %13 = landingpad { i8*, i32 }
          cleanup
  %14 = extractvalue { i8*, i32 } %13, 0
  %15 = extractvalue { i8*, i32 } %13, 1
  %16 = getelementptr inbounds { i8*, i32 }, { i8*, i32 }* %3, i32 0, i32 0
  store i8* %14, i8** %16, align 8
  %17 = getelementptr inbounds { i8*, i32 }, { i8*, i32 }* %3, i32 0, i32 1
  store i32 %15, i32* %17, align 8
  br label %bb4
}

; std::env::var_os
; Function Attrs: nonlazybind uwtable
define internal void @_ZN3std3env6var_os17h113e58876ab98543E(%"std::option::Option<std::ffi::OsString>"* noalias nocapture sret dereferenceable(24) %0, [0 x i8]* mpk_immut noalias nonnull readonly align 1 %1, i64 %2) unnamed_addr #1 personality i32 (i32, i32, i64, %"unwind::libunwind::_Unwind_Exception"*, %"unwind::libunwind::_Unwind_Context"*)* @rust_eh_personality {
start:
  %3 = alloca { i8*, i32 }, align 8
  %key = alloca { [0 x i8]*, i64 }, align 8
  %4 = getelementptr inbounds { [0 x i8]*, i64 }, { [0 x i8]*, i64 }* %key, i32 0, i32 0
  store [0 x i8]* %1, [0 x i8]** %4, align 8
  %5 = getelementptr inbounds { [0 x i8]*, i64 }, { [0 x i8]*, i64 }* %key, i32 0, i32 1
  store i64 %2, i64* %5, align 8
; invoke <&T as core::convert::AsRef<U>>::as_ref
  %6 = invoke { %"std::ffi::OsStr"*, i64 } @"_ZN55_$LT$$RF$T$u20$as$u20$core..convert..AsRef$LT$U$GT$$GT$6as_ref17h48e9281acdda823eE"({ [0 x i8]*, i64 }* mpk_immut noalias readonly align 8 dereferenceable(16) %key)
          to label %bb1 unwind label %cleanup

bb1:                                              ; preds = %start
  %_3.0 = extractvalue { %"std::ffi::OsStr"*, i64 } %6, 0
  %_3.1 = extractvalue { %"std::ffi::OsStr"*, i64 } %6, 1
; invoke std::env::_var_os
  invoke void @_ZN3std3env7_var_os17h7a041bd284a5ba2dE(%"std::option::Option<std::ffi::OsString>"* noalias nocapture sret dereferenceable(24) %0, %"std::ffi::OsStr"* mpk_immut noalias nonnull readonly align 1 %_3.0, i64 %_3.1)
          to label %bb2 unwind label %cleanup

bb2:                                              ; preds = %bb1
  br label %bb3

bb3:                                              ; preds = %bb2
  ret void

bb4:                                              ; preds = %cleanup
  br label %bb5

bb5:                                              ; preds = %bb4
  %7 = bitcast { i8*, i32 }* %3 to i8**
  %8 = load i8*, i8** %7, align 8
  %9 = getelementptr inbounds { i8*, i32 }, { i8*, i32 }* %3, i32 0, i32 1
  %10 = load i32, i32* %9, align 8
  %11 = insertvalue { i8*, i32 } undef, i8* %8, 0
  %12 = insertvalue { i8*, i32 } %11, i32 %10, 1
  resume { i8*, i32 } %12

cleanup:                                          ; preds = %bb1, %start
  %13 = landingpad { i8*, i32 }
          cleanup
  %14 = extractvalue { i8*, i32 } %13, 0
  %15 = extractvalue { i8*, i32 } %13, 1
  %16 = getelementptr inbounds { i8*, i32 }, { i8*, i32 }* %3, i32 0, i32 0
  store i8* %14, i8** %16, align 8
  %17 = getelementptr inbounds { i8*, i32 }, { i8*, i32 }* %3, i32 0, i32 1
  store i32 %15, i32* %17, align 8
  br label %bb4
}

; std::ffi::os_str::OsStr::from_inner
; Function Attrs: inlinehint nonlazybind uwtable
define internal { %"std::ffi::OsStr"*, i64 } @_ZN3std3ffi6os_str5OsStr10from_inner17h6c80895f9ad60525E(%"std::sys_common::os_str_bytes::Slice"* mpk_immut noalias nonnull readonly align 1 %inner.0, i64 %inner.1) unnamed_addr #0 {
start:
  %_2.0 = bitcast %"std::sys_common::os_str_bytes::Slice"* %inner.0 to %"std::ffi::OsStr"*
  %0 = insertvalue { %"std::ffi::OsStr"*, i64 } undef, %"std::ffi::OsStr"* %_2.0, 0
  %1 = insertvalue { %"std::ffi::OsStr"*, i64 } %0, i64 %inner.1, 1
  ret { %"std::ffi::OsStr"*, i64 } %1
}

; std::ffi::os_str::<impl core::convert::AsRef<std::ffi::os_str::OsStr> for str>::as_ref
; Function Attrs: inlinehint nonlazybind uwtable
define internal { %"std::ffi::OsStr"*, i64 } @"_ZN3std3ffi6os_str85_$LT$impl$u20$core..convert..AsRef$LT$std..ffi..os_str..OsStr$GT$$u20$for$u20$str$GT$6as_ref17h2e998311c0d316fbE"([0 x i8]* mpk_immut noalias nonnull readonly align 1 %self.0, i64 %self.1) unnamed_addr #0 {
start:
; call std::sys_common::os_str_bytes::Slice::from_str
  %0 = call { %"std::sys_common::os_str_bytes::Slice"*, i64 } @_ZN3std10sys_common12os_str_bytes5Slice8from_str17h793b823e46005143E([0 x i8]* mpk_immut noalias nonnull readonly align 1 %self.0, i64 %self.1)
  %_3.0 = extractvalue { %"std::sys_common::os_str_bytes::Slice"*, i64 } %0, 0
  %_3.1 = extractvalue { %"std::sys_common::os_str_bytes::Slice"*, i64 } %0, 1
  br label %bb1

bb1:                                              ; preds = %start
; call std::ffi::os_str::OsStr::from_inner
  %1 = call { %"std::ffi::OsStr"*, i64 } @_ZN3std3ffi6os_str5OsStr10from_inner17h6c80895f9ad60525E(%"std::sys_common::os_str_bytes::Slice"* mpk_immut noalias nonnull readonly align 1 %_3.0, i64 %_3.1)
  %2 = extractvalue { %"std::ffi::OsStr"*, i64 } %1, 0
  %3 = extractvalue { %"std::ffi::OsStr"*, i64 } %1, 1
  br label %bb2

bb2:                                              ; preds = %bb1
  %4 = insertvalue { %"std::ffi::OsStr"*, i64 } undef, %"std::ffi::OsStr"* %2, 0
  %5 = insertvalue { %"std::ffi::OsStr"*, i64 } %4, i64 %3, 1
  ret { %"std::ffi::OsStr"*, i64 } %5
}

; std::sys::unix::process::process_common::ExitCode::as_i32
; Function Attrs: inlinehint nonlazybind uwtable
define internal i32 @_ZN3std3sys4unix7process14process_common8ExitCode6as_i3217h2aacd81451ee587bE(i8* mpk_immut noalias readonly align 1 dereferenceable(1) %self) unnamed_addr #0 {
start:
  %_2 = load i8, i8* %self, align 1
  %0 = zext i8 %_2 to i32
  ret i32 %0
}

; std::process::Command::arg
; Function Attrs: nonlazybind uwtable
define internal align 8 dereferenceable(184) %"std::process::Command"* @_ZN3std7process7Command3arg17hc34f3aafdf5e38bfE(%"std::process::Command"* align 8 dereferenceable(184) %self, [0 x i8]* mpk_immut noalias nonnull readonly align 1 %0, i64 %1) unnamed_addr #1 personality i32 (i32, i32, i64, %"unwind::libunwind::_Unwind_Exception"*, %"unwind::libunwind::_Unwind_Context"*)* @rust_eh_personality {
start:
  %2 = alloca { i8*, i32 }, align 8
  %arg = alloca { [0 x i8]*, i64 }, align 8
  %3 = getelementptr inbounds { [0 x i8]*, i64 }, { [0 x i8]*, i64 }* %arg, i32 0, i32 0
  store [0 x i8]* %0, [0 x i8]** %3, align 8
  %4 = getelementptr inbounds { [0 x i8]*, i64 }, { [0 x i8]*, i64 }* %arg, i32 0, i32 1
  store i64 %1, i64* %4, align 8
  %_5 = bitcast %"std::process::Command"* %self to %"std::sys::unix::process::process_common::Command"*, !MPK-SmartPointer !3
; invoke <&T as core::convert::AsRef<U>>::as_ref
  %5 = invoke { %"std::ffi::OsStr"*, i64 } @"_ZN55_$LT$$RF$T$u20$as$u20$core..convert..AsRef$LT$U$GT$$GT$6as_ref17h48e9281acdda823eE"({ [0 x i8]*, i64 }* mpk_immut noalias readonly align 8 dereferenceable(16) %arg)
          to label %bb1 unwind label %cleanup

bb1:                                              ; preds = %start
  %_7.0 = extractvalue { %"std::ffi::OsStr"*, i64 } %5, 0
  %_7.1 = extractvalue { %"std::ffi::OsStr"*, i64 } %5, 1
; invoke std::sys::unix::process::process_common::Command::arg
  invoke void @_ZN3std3sys4unix7process14process_common7Command3arg17hd2f046177e388b39E(%"std::sys::unix::process::process_common::Command"* align 8 dereferenceable(184) %_5, %"std::ffi::OsStr"* mpk_immut noalias nonnull readonly align 1 %_7.0, i64 %_7.1)
          to label %bb2 unwind label %cleanup

bb2:                                              ; preds = %bb1
  br label %bb3

bb3:                                              ; preds = %bb2
  ret %"std::process::Command"* %self

bb4:                                              ; preds = %cleanup
  br label %bb5

bb5:                                              ; preds = %bb4
  %6 = bitcast { i8*, i32 }* %2 to i8**
  %7 = load i8*, i8** %6, align 8
  %8 = getelementptr inbounds { i8*, i32 }, { i8*, i32 }* %2, i32 0, i32 1
  %9 = load i32, i32* %8, align 8
  %10 = insertvalue { i8*, i32 } undef, i8* %7, 0
  %11 = insertvalue { i8*, i32 } %10, i32 %9, 1
  resume { i8*, i32 } %11

cleanup:                                          ; preds = %bb1, %start
  %12 = landingpad { i8*, i32 }
          cleanup
  %13 = extractvalue { i8*, i32 } %12, 0
  %14 = extractvalue { i8*, i32 } %12, 1
  %15 = getelementptr inbounds { i8*, i32 }, { i8*, i32 }* %2, i32 0, i32 0
  store i8* %13, i8** %15, align 8
  %16 = getelementptr inbounds { i8*, i32 }, { i8*, i32 }* %2, i32 0, i32 1
  store i32 %14, i32* %16, align 8
  br label %bb4
}

; std::process::Command::new
; Function Attrs: nonlazybind uwtable
define internal void @_ZN3std7process7Command3new17h54d8e050dff9d886E(%"std::process::Command"* noalias nocapture sret dereferenceable(184) %0, %"std::ffi::OsString"* noalias nocapture dereferenceable(24) %program) unnamed_addr #1 personality i32 (i32, i32, i64, %"unwind::libunwind::_Unwind_Exception"*, %"unwind::libunwind::_Unwind_Context"*)* @rust_eh_personality {
start:
  %1 = alloca { i8*, i32 }, align 8
  %_2 = alloca %"std::sys::unix::process::process_common::Command", align 8
; invoke <std::ffi::os_str::OsString as core::convert::AsRef<std::ffi::os_str::OsStr>>::as_ref
  %2 = invoke { %"std::ffi::OsStr"*, i64 } @"_ZN98_$LT$std..ffi..os_str..OsString$u20$as$u20$core..convert..AsRef$LT$std..ffi..os_str..OsStr$GT$$GT$6as_ref17h5699c6f683bdeff1E"(%"std::ffi::OsString"* mpk_immut noalias readonly align 8 dereferenceable(24) %program)
          to label %bb1 unwind label %cleanup

bb1:                                              ; preds = %start
  %_4.0 = extractvalue { %"std::ffi::OsStr"*, i64 } %2, 0
  %_4.1 = extractvalue { %"std::ffi::OsStr"*, i64 } %2, 1
; invoke std::sys::unix::process::process_common::Command::new
  invoke void @_ZN3std3sys4unix7process14process_common7Command3new17h0d78b572904cac1bE(%"std::sys::unix::process::process_common::Command"* noalias nocapture sret dereferenceable(184) %_2, %"std::ffi::OsStr"* mpk_immut noalias nonnull readonly align 1 %_4.0, i64 %_4.1)
          to label %bb2 unwind label %cleanup

bb2:                                              ; preds = %bb1
  %3 = bitcast %"std::process::Command"* %0 to %"std::sys::unix::process::process_common::Command"*, !MPK-SmartPointer !3
  %4 = bitcast %"std::sys::unix::process::process_common::Command"* %3 to i8*
  %5 = bitcast %"std::sys::unix::process::process_common::Command"* %_2 to i8*
  call void @llvm.memcpy.p0i8.p0i8.i64(i8* align 8 %4, i8* align 8 %5, i64 184, i1 false)
; call core::ptr::drop_in_place
  call void @_ZN4core3ptr13drop_in_place17h49c15d43aee983b9E(%"std::ffi::OsString"* mpk_unsafe %program)
  br label %bb3

bb3:                                              ; preds = %bb2
  ret void

bb4:                                              ; preds = %cleanup
; call core::ptr::drop_in_place
  call void @_ZN4core3ptr13drop_in_place17h49c15d43aee983b9E(%"std::ffi::OsString"* mpk_unsafe %program) #14
  br label %bb5

bb5:                                              ; preds = %bb4
  %6 = bitcast { i8*, i32 }* %1 to i8**
  %7 = load i8*, i8** %6, align 8
  %8 = getelementptr inbounds { i8*, i32 }, { i8*, i32 }* %1, i32 0, i32 1
  %9 = load i32, i32* %8, align 8
  %10 = insertvalue { i8*, i32 } undef, i8* %7, 0
  %11 = insertvalue { i8*, i32 } %10, i32 %9, 1
  resume { i8*, i32 } %11

cleanup:                                          ; preds = %bb1, %start
  %12 = landingpad { i8*, i32 }
          cleanup
  %13 = extractvalue { i8*, i32 } %12, 0
  %14 = extractvalue { i8*, i32 } %12, 1
  %15 = getelementptr inbounds { i8*, i32 }, { i8*, i32 }* %1, i32 0, i32 0
  store i8* %13, i8** %15, align 8
  %16 = getelementptr inbounds { i8*, i32 }, { i8*, i32 }* %1, i32 0, i32 1
  store i32 %14, i32* %16, align 8
  br label %bb4
}

; std::process::Command::new
; Function Attrs: nonlazybind uwtable
define internal void @_ZN3std7process7Command3new17he848548e12c3b5c1E(%"std::process::Command"* noalias nocapture sret dereferenceable(184) %0, [0 x i8]* mpk_immut noalias nonnull readonly align 1 %1, i64 %2) unnamed_addr #1 personality i32 (i32, i32, i64, %"unwind::libunwind::_Unwind_Exception"*, %"unwind::libunwind::_Unwind_Context"*)* @rust_eh_personality {
start:
  %3 = alloca { i8*, i32 }, align 8
  %_2 = alloca %"std::sys::unix::process::process_common::Command", align 8
  %program = alloca { [0 x i8]*, i64 }, align 8
  %4 = getelementptr inbounds { [0 x i8]*, i64 }, { [0 x i8]*, i64 }* %program, i32 0, i32 0
  store [0 x i8]* %1, [0 x i8]** %4, align 8
  %5 = getelementptr inbounds { [0 x i8]*, i64 }, { [0 x i8]*, i64 }* %program, i32 0, i32 1
  store i64 %2, i64* %5, align 8
; invoke <&T as core::convert::AsRef<U>>::as_ref
  %6 = invoke { %"std::ffi::OsStr"*, i64 } @"_ZN55_$LT$$RF$T$u20$as$u20$core..convert..AsRef$LT$U$GT$$GT$6as_ref17h48e9281acdda823eE"({ [0 x i8]*, i64 }* mpk_immut noalias readonly align 8 dereferenceable(16) %program)
          to label %bb1 unwind label %cleanup

bb1:                                              ; preds = %start
  %_4.0 = extractvalue { %"std::ffi::OsStr"*, i64 } %6, 0
  %_4.1 = extractvalue { %"std::ffi::OsStr"*, i64 } %6, 1
; invoke std::sys::unix::process::process_common::Command::new
  invoke void @_ZN3std3sys4unix7process14process_common7Command3new17h0d78b572904cac1bE(%"std::sys::unix::process::process_common::Command"* noalias nocapture sret dereferenceable(184) %_2, %"std::ffi::OsStr"* mpk_immut noalias nonnull readonly align 1 %_4.0, i64 %_4.1)
          to label %bb2 unwind label %cleanup

bb2:                                              ; preds = %bb1
  %7 = bitcast %"std::process::Command"* %0 to %"std::sys::unix::process::process_common::Command"*, !MPK-SmartPointer !3
  %8 = bitcast %"std::sys::unix::process::process_common::Command"* %7 to i8*
  %9 = bitcast %"std::sys::unix::process::process_common::Command"* %_2 to i8*
  call void @llvm.memcpy.p0i8.p0i8.i64(i8* align 8 %8, i8* align 8 %9, i64 184, i1 false)
  br label %bb3

bb3:                                              ; preds = %bb2
  ret void

bb4:                                              ; preds = %cleanup
  br label %bb5

bb5:                                              ; preds = %bb4
  %10 = bitcast { i8*, i32 }* %3 to i8**
  %11 = load i8*, i8** %10, align 8
  %12 = getelementptr inbounds { i8*, i32 }, { i8*, i32 }* %3, i32 0, i32 1
  %13 = load i32, i32* %12, align 8
  %14 = insertvalue { i8*, i32 } undef, i8* %11, 0
  %15 = insertvalue { i8*, i32 } %14, i32 %13, 1
  resume { i8*, i32 } %15

cleanup:                                          ; preds = %bb1, %start
  %16 = landingpad { i8*, i32 }
          cleanup
  %17 = extractvalue { i8*, i32 } %16, 0
  %18 = extractvalue { i8*, i32 } %16, 1
  %19 = getelementptr inbounds { i8*, i32 }, { i8*, i32 }* %3, i32 0, i32 0
  store i8* %17, i8** %19, align 8
  %20 = getelementptr inbounds { i8*, i32 }, { i8*, i32 }* %3, i32 0, i32 1
  store i32 %18, i32* %20, align 8
  br label %bb4
}

; std::panicking::begin_panic
; Function Attrs: cold noinline noreturn nonlazybind uwtable
define internal void @_ZN3std9panicking11begin_panic17h2c2e27bf65c0b307E([0 x i8]* mpk_immut noalias nonnull readonly align 1 %msg.0, i64 %msg.1, %"std::panic::Location"* mpk_immut noalias readonly align 8 dereferenceable(24) %0) unnamed_addr #4 personality i32 (i32, i32, i64, %"unwind::libunwind::_Unwind_Exception"*, %"unwind::libunwind::_Unwind_Context"*)* @rust_eh_personality {
start:
  %1 = alloca { i8*, i32 }, align 8
  %_4 = alloca i8, align 1
  %_3 = alloca %"[closure@std::rt::begin_panic<&str>::{closure#0}]", align 8
  store i8 0, i8* %_4, align 1
  store i8 1, i8* %_4, align 1
; invoke core::panic::Location::caller
  %loc = invoke mpk_immut align 8 dereferenceable(24) %"std::panic::Location"* @_ZN4core5panic8Location6caller17hdc67367c0d053777E(%"std::panic::Location"* mpk_immut noalias readonly align 8 dereferenceable(24) %0)
          to label %bb1 unwind label %cleanup

bb1:                                              ; preds = %start
  store i8 0, i8* %_4, align 1
  %2 = bitcast %"[closure@std::rt::begin_panic<&str>::{closure#0}]"* %_3 to { [0 x i8]*, i64 }*
  %3 = getelementptr inbounds { [0 x i8]*, i64 }, { [0 x i8]*, i64 }* %2, i32 0, i32 0
  store [0 x i8]* %msg.0, [0 x i8]** %3, align 8
  %4 = getelementptr inbounds { [0 x i8]*, i64 }, { [0 x i8]*, i64 }* %2, i32 0, i32 1
  store i64 %msg.1, i64* %4, align 8
  %5 = getelementptr inbounds %"[closure@std::rt::begin_panic<&str>::{closure#0}]", %"[closure@std::rt::begin_panic<&str>::{closure#0}]"* %_3, i32 0, i32 3
  store %"std::panic::Location"* %loc, %"std::panic::Location"** %5, align 8
; invoke std::sys_common::backtrace::__rust_end_short_backtrace
  invoke void @_ZN3std10sys_common9backtrace26__rust_end_short_backtrace17h3365c94aba92c7b6E(%"[closure@std::rt::begin_panic<&str>::{closure#0}]"* noalias nocapture dereferenceable(24) %_3)
          to label %unreachable unwind label %cleanup

bb2:                                              ; preds = %bb3, %bb4
  %6 = bitcast { i8*, i32 }* %1 to i8**
  %7 = load i8*, i8** %6, align 8
  %8 = getelementptr inbounds { i8*, i32 }, { i8*, i32 }* %1, i32 0, i32 1
  %9 = load i32, i32* %8, align 8
  %10 = insertvalue { i8*, i32 } undef, i8* %7, 0
  %11 = insertvalue { i8*, i32 } %10, i32 %9, 1
  resume { i8*, i32 } %11

bb3:                                              ; preds = %bb4
  br label %bb2

bb4:                                              ; preds = %cleanup
  %12 = load i8, i8* %_4, align 1, !range !5
  %13 = trunc i8 %12 to i1
  br i1 %13, label %bb3, label %bb2

cleanup:                                          ; preds = %bb1, %start
  %14 = landingpad { i8*, i32 }
          cleanup
  %15 = extractvalue { i8*, i32 } %14, 0
  %16 = extractvalue { i8*, i32 } %14, 1
  %17 = getelementptr inbounds { i8*, i32 }, { i8*, i32 }* %1, i32 0, i32 0
  store i8* %15, i8** %17, align 8
  %18 = getelementptr inbounds { i8*, i32 }, { i8*, i32 }* %1, i32 0, i32 1
  store i32 %16, i32* %18, align 8
  br label %bb4

unreachable:                                      ; preds = %bb1
  unreachable
}

; std::panicking::begin_panic::PanicPayload<A>::new
; Function Attrs: nonlazybind uwtable
define internal { i8*, i64 } @"_ZN3std9panicking11begin_panic21PanicPayload$LT$A$GT$3new17h6343fd1698243118E"([0 x i8]* mpk_immut noalias nonnull readonly align 1 %inner.0, i64 %inner.1) unnamed_addr #1 {
start:
  %_2 = alloca { i8*, i64 }, align 8
  %0 = alloca { i8*, i64 }, align 8
  %1 = bitcast { i8*, i64 }* %_2 to { [0 x i8]*, i64 }*
  %2 = getelementptr inbounds { [0 x i8]*, i64 }, { [0 x i8]*, i64 }* %1, i32 0, i32 0
  store [0 x i8]* %inner.0, [0 x i8]** %2, align 8
  %3 = getelementptr inbounds { [0 x i8]*, i64 }, { [0 x i8]*, i64 }* %1, i32 0, i32 1
  store i64 %inner.1, i64* %3, align 8
  %4 = getelementptr inbounds { i8*, i64 }, { i8*, i64 }* %_2, i32 0, i32 0
  %5 = load i8*, i8** %4, align 8
  %6 = getelementptr inbounds { i8*, i64 }, { i8*, i64 }* %_2, i32 0, i32 1
  %7 = load i64, i64* %6, align 8
  %8 = getelementptr inbounds { i8*, i64 }, { i8*, i64 }* %0, i32 0, i32 0
  store i8* %5, i8** %8, align 8
  %9 = getelementptr inbounds { i8*, i64 }, { i8*, i64 }* %0, i32 0, i32 1
  store i64 %7, i64* %9, align 8
  %10 = getelementptr inbounds { i8*, i64 }, { i8*, i64 }* %0, i32 0, i32 0
  %11 = load i8*, i8** %10, align 8
  %12 = getelementptr inbounds { i8*, i64 }, { i8*, i64 }* %0, i32 0, i32 1
  %13 = load i64, i64* %12, align 8
  %14 = insertvalue { i8*, i64 } undef, i8* %11, 0
  %15 = insertvalue { i8*, i64 } %14, i64 %13, 1
  ret { i8*, i64 } %15
}

; std::panicking::begin_panic::{{closure}}
; Function Attrs: noreturn nonlazybind uwtable
define internal void @"_ZN3std9panicking11begin_panic28_$u7b$$u7b$closure$u7d$$u7d$17he73226c26d1f0131E"(%"[closure@std::rt::begin_panic<&str>::{closure#0}]"* noalias nocapture dereferenceable(24) %_1) unnamed_addr #5 personality i32 (i32, i32, i64, %"unwind::libunwind::_Unwind_Exception"*, %"unwind::libunwind::_Unwind_Context"*)* @rust_eh_personality {
start:
  %0 = alloca { i8*, i32 }, align 8
  %_7 = alloca i64*, align 8
  %_5 = alloca { i8*, i64 }, align 8
  %1 = bitcast %"[closure@std::rt::begin_panic<&str>::{closure#0}]"* %_1 to { [0 x i8]*, i64 }*
  %2 = getelementptr inbounds { [0 x i8]*, i64 }, { [0 x i8]*, i64 }* %1, i32 0, i32 0
  %_6.0 = load [0 x i8]*, [0 x i8]** %2, align 8, !nonnull !11
  %3 = getelementptr inbounds { [0 x i8]*, i64 }, { [0 x i8]*, i64 }* %1, i32 0, i32 1
  %_6.1 = load i64, i64* %3, align 8
; call std::panicking::begin_panic::PanicPayload<A>::new
  %4 = call { i8*, i64 } @"_ZN3std9panicking11begin_panic21PanicPayload$LT$A$GT$3new17h6343fd1698243118E"([0 x i8]* mpk_immut noalias nonnull readonly align 1 %_6.0, i64 %_6.1)
  store { i8*, i64 } %4, { i8*, i64 }* %_5, align 8
  br label %bb1

bb1:                                              ; preds = %start
  %_2.0 = bitcast { i8*, i64 }* %_5 to {}*
  %5 = bitcast i64** %_7 to {}**
  store {}* null, {}** %5, align 8
  %6 = getelementptr inbounds %"[closure@std::rt::begin_panic<&str>::{closure#0}]", %"[closure@std::rt::begin_panic<&str>::{closure#0}]"* %_1, i32 0, i32 3
  %_8 = load %"std::panic::Location"*, %"std::panic::Location"** %6, align 8, !nonnull !11
  %7 = load i64*, i64** %_7, align 8
; invoke std::panicking::rust_panic_with_hook
  invoke void @_ZN3std9panicking20rust_panic_with_hook17he34aa81080741830E({}* nonnull align 1 %_2.0, [3 x i64]* mpk_immut noalias readonly align 8 dereferenceable(24) bitcast ({ void ({ i8*, i64 }*)*, i64, i64, { {}*, [3 x i64]* } ({ i8*, i64 }*)*, { {}*, [3 x i64]* } ({ i8*, i64 }*)* }* @vtable.1 to [3 x i64]*), i64* mpk_immut noalias readonly align 8 dereferenceable_or_null(48) %7, %"std::panic::Location"* mpk_immut noalias readonly align 8 dereferenceable(24) %_8)
          to label %unreachable unwind label %cleanup

bb2:                                              ; preds = %cleanup
  br label %bb3

bb3:                                              ; preds = %bb2
  %8 = bitcast { i8*, i32 }* %0 to i8**
  %9 = load i8*, i8** %8, align 8
  %10 = getelementptr inbounds { i8*, i32 }, { i8*, i32 }* %0, i32 0, i32 1
  %11 = load i32, i32* %10, align 8
  %12 = insertvalue { i8*, i32 } undef, i8* %9, 0
  %13 = insertvalue { i8*, i32 } %12, i32 %11, 1
  resume { i8*, i32 } %13

unreachable:                                      ; preds = %bb1
  unreachable

cleanup:                                          ; preds = %bb1
  %14 = landingpad { i8*, i32 }
          cleanup
  %15 = extractvalue { i8*, i32 } %14, 0
  %16 = extractvalue { i8*, i32 } %14, 1
  %17 = getelementptr inbounds { i8*, i32 }, { i8*, i32 }* %0, i32 0, i32 0
  store i8* %15, i8** %17, align 8
  %18 = getelementptr inbounds { i8*, i32 }, { i8*, i32 }* %0, i32 0, i32 1
  store i32 %16, i32* %18, align 8
  br label %bb2
}

; <&T as core::fmt::Display>::fmt
; Function Attrs: nonlazybind uwtable
define internal zeroext i1 @"_ZN44_$LT$$RF$T$u20$as$u20$core..fmt..Display$GT$3fmt17h80e1dc8c3233516eE"({ [0 x i8]*, i64 }* mpk_immut noalias readonly align 8 dereferenceable(16) %self, %"std::fmt::Formatter"* align 8 dereferenceable(64) %f) unnamed_addr #1 {
start:
  %0 = getelementptr inbounds { [0 x i8]*, i64 }, { [0 x i8]*, i64 }* %self, i32 0, i32 0
  %_4.0 = load [0 x i8]*, [0 x i8]** %0, align 8, !nonnull !11
  %1 = getelementptr inbounds { [0 x i8]*, i64 }, { [0 x i8]*, i64 }* %self, i32 0, i32 1
  %_4.1 = load i64, i64* %1, align 8
; call <str as core::fmt::Display>::fmt
  %2 = call zeroext i1 @"_ZN42_$LT$str$u20$as$u20$core..fmt..Display$GT$3fmt17h8d32920bf513d1aeE"([0 x i8]* mpk_immut noalias nonnull readonly align 1 %_4.0, i64 %_4.1, %"std::fmt::Formatter"* align 8 dereferenceable(64) %f)
  br label %bb1

bb1:                                              ; preds = %start
  ret i1 %2
}

; <usize as core::iter::range::Step>::forward_unchecked
; Function Attrs: inlinehint nonlazybind uwtable
define internal i64 @"_ZN49_$LT$usize$u20$as$u20$core..iter..range..Step$GT$17forward_unchecked17hf6bbc741b2b54270E"(i64 %start1, i64 %n) unnamed_addr #0 {
start:
; call core::num::<impl usize>::unchecked_add
  %0 = call i64 @"_ZN4core3num23_$LT$impl$u20$usize$GT$13unchecked_add17h1fb6f4d4d849c880E"(i64 %start1, i64 %n), !MPK-Unsafe !4
  br label %bb1

bb1:                                              ; preds = %start
  ret i64 %0
}

; core::intrinsics::copy_nonoverlapping
; Function Attrs: inlinehint nonlazybind uwtable
define internal void @_ZN4core10intrinsics19copy_nonoverlapping17h25443b14e669492bE(%"std::collections::BTreeMap<std::ffi::OsString, std::option::Option<std::ffi::OsString>>"* mpk_immut mpk_unsafe %src, %"std::collections::BTreeMap<std::ffi::OsString, std::option::Option<std::ffi::OsString>>"* mpk_unsafe %dst, i64 %count) unnamed_addr #0 {
start:
  %0 = mul i64 24, %count
  %1 = bitcast %"std::collections::BTreeMap<std::ffi::OsString, std::option::Option<std::ffi::OsString>>"* %dst to i8*
  %2 = bitcast %"std::collections::BTreeMap<std::ffi::OsString, std::option::Option<std::ffi::OsString>>"* %src to i8*
  call void @llvm.memcpy.p0i8.p0i8.i64(i8* align 8 %1, i8* align 8 %2, i64 %0, i1 false), !MPK-Unsafe !4
  br label %bb1

bb1:                                              ; preds = %start
  ret void
}

; core::intrinsics::copy_nonoverlapping
; Function Attrs: inlinehint nonlazybind uwtable
define internal void @_ZN4core10intrinsics19copy_nonoverlapping17h33dc6cc49163f985E(%"std::option::Option<alloc::collections::btree::node::Handle<alloc::collections::btree::node::NodeRef<alloc::collections::btree::node::marker::Owned, std::ffi::OsString, std::option::Option<std::ffi::OsString>, alloc::collections::btree::node::marker::Leaf>, alloc::collections::btree::node::marker::Edge>>"* mpk_immut mpk_unsafe %src, %"std::option::Option<alloc::collections::btree::node::Handle<alloc::collections::btree::node::NodeRef<alloc::collections::btree::node::marker::Owned, std::ffi::OsString, std::option::Option<std::ffi::OsString>, alloc::collections::btree::node::marker::Leaf>, alloc::collections::btree::node::marker::Edge>>"* mpk_unsafe %dst, i64 %count) unnamed_addr #0 {
start:
  %0 = mul i64 24, %count
  %1 = bitcast %"std::option::Option<alloc::collections::btree::node::Handle<alloc::collections::btree::node::NodeRef<alloc::collections::btree::node::marker::Owned, std::ffi::OsString, std::option::Option<std::ffi::OsString>, alloc::collections::btree::node::marker::Leaf>, alloc::collections::btree::node::marker::Edge>>"* %dst to i8*
  %2 = bitcast %"std::option::Option<alloc::collections::btree::node::Handle<alloc::collections::btree::node::NodeRef<alloc::collections::btree::node::marker::Owned, std::ffi::OsString, std::option::Option<std::ffi::OsString>, alloc::collections::btree::node::marker::Leaf>, alloc::collections::btree::node::marker::Edge>>"* %src to i8*
  call void @llvm.memcpy.p0i8.p0i8.i64(i8* align 8 %1, i8* align 8 %2, i64 %0, i1 false), !MPK-Unsafe !4
  br label %bb1

bb1:                                              ; preds = %start
  ret void
}

; core::intrinsics::copy_nonoverlapping
; Function Attrs: inlinehint nonlazybind uwtable
define internal void @_ZN4core10intrinsics19copy_nonoverlapping17h3633a71a02d07b71E(%"std::option::Option<std::ffi::OsString>"* mpk_immut mpk_unsafe %src, %"std::option::Option<std::ffi::OsString>"* mpk_unsafe %dst, i64 %count) unnamed_addr #0 {
start:
  %0 = mul i64 24, %count
  %1 = bitcast %"std::option::Option<std::ffi::OsString>"* %dst to i8*
  %2 = bitcast %"std::option::Option<std::ffi::OsString>"* %src to i8*
  call void @llvm.memcpy.p0i8.p0i8.i64(i8* align 8 %1, i8* align 8 %2, i64 %0, i1 false), !MPK-Unsafe !4
  br label %bb1

bb1:                                              ; preds = %start
  ret void
}

; core::intrinsics::copy_nonoverlapping
; Function Attrs: inlinehint nonlazybind uwtable
define internal void @_ZN4core10intrinsics19copy_nonoverlapping17h39b77f011644999cE({ i64, i64* }* mpk_immut mpk_unsafe %src, { i64, i64* }* mpk_unsafe %dst, i64 %count) unnamed_addr #0 {
start:
  %0 = mul i64 16, %count
  %1 = bitcast { i64, i64* }* %dst to i8*
  %2 = bitcast { i64, i64* }* %src to i8*
  call void @llvm.memcpy.p0i8.p0i8.i64(i8* align 8 %1, i8* align 8 %2, i64 %0, i1 false), !MPK-Unsafe !4
  br label %bb1

bb1:                                              ; preds = %start
  ret void
}

; core::intrinsics::copy_nonoverlapping
; Function Attrs: inlinehint nonlazybind uwtable
define internal void @_ZN4core10intrinsics19copy_nonoverlapping17h428b5e52243e57a3E(i8* mpk_immut mpk_unsafe %src, i8* mpk_unsafe %dst, i64 %count) unnamed_addr #0 {
start:
  %0 = mul i64 1, %count
  call void @llvm.memcpy.p0i8.p0i8.i64(i8* align 1 %dst, i8* align 1 %src, i64 %0, i1 false), !MPK-Unsafe !4
  br label %bb1

bb1:                                              ; preds = %start
  ret void
}

; core::intrinsics::copy_nonoverlapping
; Function Attrs: inlinehint nonlazybind uwtable
define internal void @_ZN4core10intrinsics19copy_nonoverlapping17h46efc78f72814690E(i64* mpk_immut mpk_unsafe %src, i64* mpk_unsafe %dst, i64 %count) unnamed_addr #0 {
start:
  %0 = mul i64 8, %count
  %1 = bitcast i64* %dst to i8*
  %2 = bitcast i64* %src to i8*
  call void @llvm.memcpy.p0i8.p0i8.i64(i8* align 8 %1, i8* align 8 %2, i64 %0, i1 false), !MPK-Unsafe !4
  br label %bb1

bb1:                                              ; preds = %start
  ret void
}

; core::intrinsics::copy_nonoverlapping
; Function Attrs: inlinehint nonlazybind uwtable
define internal void @_ZN4core10intrinsics19copy_nonoverlapping17h4c297f92ab4736bbE(%"alloc::collections::btree::node::Handle<alloc::collections::btree::node::NodeRef<alloc::collections::btree::node::marker::Owned, std::ffi::OsString, std::option::Option<std::ffi::OsString>, alloc::collections::btree::node::marker::Leaf>, alloc::collections::btree::node::marker::Edge>"* mpk_immut mpk_unsafe %src, %"alloc::collections::btree::node::Handle<alloc::collections::btree::node::NodeRef<alloc::collections::btree::node::marker::Owned, std::ffi::OsString, std::option::Option<std::ffi::OsString>, alloc::collections::btree::node::marker::Leaf>, alloc::collections::btree::node::marker::Edge>"* mpk_unsafe %dst, i64 %count) unnamed_addr #0 {
start:
  %0 = mul i64 24, %count
  %1 = bitcast %"alloc::collections::btree::node::Handle<alloc::collections::btree::node::NodeRef<alloc::collections::btree::node::marker::Owned, std::ffi::OsString, std::option::Option<std::ffi::OsString>, alloc::collections::btree::node::marker::Leaf>, alloc::collections::btree::node::marker::Edge>"* %dst to i8*
  %2 = bitcast %"alloc::collections::btree::node::Handle<alloc::collections::btree::node::NodeRef<alloc::collections::btree::node::marker::Owned, std::ffi::OsString, std::option::Option<std::ffi::OsString>, alloc::collections::btree::node::marker::Leaf>, alloc::collections::btree::node::marker::Edge>"* %src to i8*
  call void @llvm.memcpy.p0i8.p0i8.i64(i8* align 8 %1, i8* align 8 %2, i64 %0, i1 false), !MPK-Unsafe !4
  br label %bb1

bb1:                                              ; preds = %start
  ret void
}

; core::intrinsics::copy_nonoverlapping
; Function Attrs: inlinehint nonlazybind uwtable
define internal void @_ZN4core10intrinsics19copy_nonoverlapping17h4e24f846eecb6479E({ i64*, i64 }* mpk_immut mpk_unsafe %src, { i64*, i64 }* mpk_unsafe %dst, i64 %count) unnamed_addr #0 {
start:
  %0 = mul i64 16, %count
  %1 = bitcast { i64*, i64 }* %dst to i8*
  %2 = bitcast { i64*, i64 }* %src to i8*
  call void @llvm.memcpy.p0i8.p0i8.i64(i8* align 8 %1, i8* align 8 %2, i64 %0, i1 false), !MPK-Unsafe !4
  br label %bb1

bb1:                                              ; preds = %start
  ret void
}

; core::intrinsics::copy_nonoverlapping
; Function Attrs: inlinehint nonlazybind uwtable
define internal void @_ZN4core10intrinsics19copy_nonoverlapping17h5bdc1c13616869a2E({ i8*, i64 }* mpk_immut mpk_unsafe %src, { i8*, i64 }* mpk_unsafe %dst, i64 %count) unnamed_addr #0 {
start:
  %0 = mul i64 16, %count
  %1 = bitcast { i8*, i64 }* %dst to i8*
  %2 = bitcast { i8*, i64 }* %src to i8*
  call void @llvm.memcpy.p0i8.p0i8.i64(i8* align 8 %1, i8* align 8 %2, i64 %0, i1 false), !MPK-Unsafe !4
  br label %bb1

bb1:                                              ; preds = %start
  ret void
}

; core::intrinsics::copy_nonoverlapping
; Function Attrs: inlinehint nonlazybind uwtable
define internal void @_ZN4core10intrinsics19copy_nonoverlapping17haedc4244148763ccE(i64** mpk_immut mpk_unsafe %src, i64** mpk_unsafe %dst, i64 %count) unnamed_addr #0 {
start:
  %0 = mul i64 8, %count
  %1 = bitcast i64** %dst to i8*
  %2 = bitcast i64** %src to i8*
  call void @llvm.memcpy.p0i8.p0i8.i64(i8* align 8 %1, i8* align 8 %2, i64 %0, i1 false), !MPK-Unsafe !4
  br label %bb1

bb1:                                              ; preds = %start
  ret void
}

; core::intrinsics::copy_nonoverlapping
; Function Attrs: inlinehint nonlazybind uwtable
define internal void @_ZN4core10intrinsics19copy_nonoverlapping17hc975b9534d6a5c38E(%"std::alloc::Global"* mpk_immut mpk_unsafe %src, %"std::alloc::Global"* mpk_unsafe %dst, i64 %count) unnamed_addr #0 {
start:
  %0 = mul i64 0, %count
  %1 = bitcast %"std::alloc::Global"* %dst to i8*
  %2 = bitcast %"std::alloc::Global"* %src to i8*
  call void @llvm.memcpy.p0i8.p0i8.i64(i8* align 1 %1, i8* align 1 %2, i64 %0, i1 false), !MPK-Unsafe !4
  br label %bb1

bb1:                                              ; preds = %start
  ret void
}

; core::intrinsics::copy_nonoverlapping
; Function Attrs: inlinehint nonlazybind uwtable
define internal void @_ZN4core10intrinsics19copy_nonoverlapping17hecbea3c17c39049fE(%"std::ffi::OsString"* mpk_immut mpk_unsafe %src, %"std::ffi::OsString"* mpk_unsafe %dst, i64 %count) unnamed_addr #0 {
start:
  %0 = mul i64 24, %count
  %1 = bitcast %"std::ffi::OsString"* %dst to i8*
  %2 = bitcast %"std::ffi::OsString"* %src to i8*
  call void @llvm.memcpy.p0i8.p0i8.i64(i8* align 8 %1, i8* align 8 %2, i64 %0, i1 false), !MPK-Unsafe !4
  br label %bb1

bb1:                                              ; preds = %start
  ret void
}

; core::any::TypeId::of
; Function Attrs: nonlazybind uwtable
define internal i64 @_ZN4core3any6TypeId2of17h1c59568a209856c6E() unnamed_addr #1 {
start:
  %0 = alloca i64, align 8
  %1 = alloca i64, align 8
  store i64 9147559743429524724, i64* %0, align 8
  %_1 = load i64, i64* %0, align 8
  br label %bb1

bb1:                                              ; preds = %start
  store i64 %_1, i64* %1, align 8
  %2 = load i64, i64* %1, align 8
  ret i64 %2
}

; core::cmp::impls::<impl core::cmp::PartialOrd for usize>::lt
; Function Attrs: inlinehint nonlazybind uwtable
define internal zeroext i1 @"_ZN4core3cmp5impls57_$LT$impl$u20$core..cmp..PartialOrd$u20$for$u20$usize$GT$2lt17hdfeb2774e9a09366E"(i64* mpk_immut noalias readonly align 8 dereferenceable(8) %self, i64* mpk_immut noalias readonly align 8 dereferenceable(8) %other) unnamed_addr #0 {
start:
  %_3 = load i64, i64* %self, align 8
  %_4 = load i64, i64* %other, align 8
  %0 = icmp ult i64 %_3, %_4
  ret i1 %0
}

; core::cmp::impls::<impl core::cmp::PartialEq<&B> for &A>::eq
; Function Attrs: inlinehint nonlazybind uwtable
define internal zeroext i1 @"_ZN4core3cmp5impls69_$LT$impl$u20$core..cmp..PartialEq$LT$$RF$B$GT$$u20$for$u20$$RF$A$GT$2eq17h5a0874503325093dE"({ [0 x i8]*, i64 }* mpk_immut noalias readonly align 8 dereferenceable(16) %self, { [0 x i8]*, i64 }* mpk_immut noalias readonly align 8 dereferenceable(16) %other) unnamed_addr #0 {
start:
  %0 = getelementptr inbounds { [0 x i8]*, i64 }, { [0 x i8]*, i64 }* %self, i32 0, i32 0
  %_3.0 = load [0 x i8]*, [0 x i8]** %0, align 8, !nonnull !11
  %1 = getelementptr inbounds { [0 x i8]*, i64 }, { [0 x i8]*, i64 }* %self, i32 0, i32 1
  %_3.1 = load i64, i64* %1, align 8
  %2 = getelementptr inbounds { [0 x i8]*, i64 }, { [0 x i8]*, i64 }* %other, i32 0, i32 0
  %_4.0 = load [0 x i8]*, [0 x i8]** %2, align 8, !nonnull !11
  %3 = getelementptr inbounds { [0 x i8]*, i64 }, { [0 x i8]*, i64 }* %other, i32 0, i32 1
  %_4.1 = load i64, i64* %3, align 8
; call core::slice::cmp::<impl core::cmp::PartialEq<[B]> for [A]>::eq
  %4 = call zeroext i1 @"_ZN4core5slice3cmp81_$LT$impl$u20$core..cmp..PartialEq$LT$$u5b$B$u5d$$GT$$u20$for$u20$$u5b$A$u5d$$GT$2eq17h059ebe82a3200ccaE"([0 x i8]* mpk_immut noalias nonnull readonly align 1 %_3.0, i64 %_3.1, [0 x i8]* mpk_immut noalias nonnull readonly align 1 %_4.0, i64 %_4.1)
  br label %bb1

bb1:                                              ; preds = %start
  ret i1 %4
}

; core::cmp::impls::<impl core::cmp::PartialEq<&B> for &A>::ne
; Function Attrs: inlinehint nonlazybind uwtable
define internal zeroext i1 @"_ZN4core3cmp5impls69_$LT$impl$u20$core..cmp..PartialEq$LT$$RF$B$GT$$u20$for$u20$$RF$A$GT$2ne17h44f36eb1e402783eE"({ [0 x i8]*, i64 }* mpk_immut noalias readonly align 8 dereferenceable(16) %self, { [0 x i8]*, i64 }* mpk_immut noalias readonly align 8 dereferenceable(16) %other) unnamed_addr #0 {
start:
  %0 = getelementptr inbounds { [0 x i8]*, i64 }, { [0 x i8]*, i64 }* %self, i32 0, i32 0
  %_3.0 = load [0 x i8]*, [0 x i8]** %0, align 8, !nonnull !11
  %1 = getelementptr inbounds { [0 x i8]*, i64 }, { [0 x i8]*, i64 }* %self, i32 0, i32 1
  %_3.1 = load i64, i64* %1, align 8
  %2 = getelementptr inbounds { [0 x i8]*, i64 }, { [0 x i8]*, i64 }* %other, i32 0, i32 0
  %_4.0 = load [0 x i8]*, [0 x i8]** %2, align 8, !nonnull !11
  %3 = getelementptr inbounds { [0 x i8]*, i64 }, { [0 x i8]*, i64 }* %other, i32 0, i32 1
  %_4.1 = load i64, i64* %3, align 8
; call core::str::traits::<impl core::cmp::PartialEq for str>::ne
  %4 = call zeroext i1 @"_ZN4core3str6traits54_$LT$impl$u20$core..cmp..PartialEq$u20$for$u20$str$GT$2ne17h840cf27d56ba505eE"([0 x i8]* mpk_immut noalias nonnull readonly align 1 %_3.0, i64 %_3.1, [0 x i8]* mpk_immut noalias nonnull readonly align 1 %_4.0, i64 %_4.1)
  br label %bb1

bb1:                                              ; preds = %start
  ret i1 %4
}

; core::fmt::ArgumentV1::new
; Function Attrs: nonlazybind uwtable
define internal { i8*, i64* } @_ZN4core3fmt10ArgumentV13new17h95c2430e331161a0E({ [0 x i8]*, i64 }* mpk_immut noalias readonly align 8 dereferenceable(16) %x, i1 ({ [0 x i8]*, i64 }*, %"std::fmt::Formatter"*)* mpk_immut nonnull %f) unnamed_addr #1 {
start:
  %0 = alloca %"core::fmt::Opaque"*, align 8, !MPK-Unsafe !4
  %1 = alloca i1 (%"core::fmt::Opaque"*, %"std::fmt::Formatter"*)*, align 8, !MPK-Unsafe !4
  %2 = alloca { i8*, i64* }, align 8
  %3 = bitcast i1 (%"core::fmt::Opaque"*, %"std::fmt::Formatter"*)** %1 to i1 ({ [0 x i8]*, i64 }*, %"std::fmt::Formatter"*)**
  store i1 ({ [0 x i8]*, i64 }*, %"std::fmt::Formatter"*)* %f, i1 ({ [0 x i8]*, i64 }*, %"std::fmt::Formatter"*)** %3, align 8, !MPK-Unsafe !4
  %_3 = load i1 (%"core::fmt::Opaque"*, %"std::fmt::Formatter"*)*, i1 (%"core::fmt::Opaque"*, %"std::fmt::Formatter"*)** %1, align 8, !nonnull !11, !MPK-Unsafe !4
  br label %bb1

bb1:                                              ; preds = %start
  %4 = bitcast %"core::fmt::Opaque"** %0 to { [0 x i8]*, i64 }**
  store { [0 x i8]*, i64 }* %x, { [0 x i8]*, i64 }** %4, align 8, !MPK-Unsafe !4
  %_5 = load %"core::fmt::Opaque"*, %"core::fmt::Opaque"** %0, align 8, !nonnull !11, !MPK-Unsafe !4
  br label %bb2

bb2:                                              ; preds = %bb1
  %5 = bitcast { i8*, i64* }* %2 to %"core::fmt::Opaque"**
  store %"core::fmt::Opaque"* %_5, %"core::fmt::Opaque"** %5, align 8, !MPK-Unsafe !4
  %6 = getelementptr inbounds { i8*, i64* }, { i8*, i64* }* %2, i32 0, i32 1
  %7 = bitcast i64** %6 to i1 (%"core::fmt::Opaque"*, %"std::fmt::Formatter"*)**
  store i1 (%"core::fmt::Opaque"*, %"std::fmt::Formatter"*)* %_3, i1 (%"core::fmt::Opaque"*, %"std::fmt::Formatter"*)** %7, align 8, !MPK-Unsafe !4
  %8 = getelementptr inbounds { i8*, i64* }, { i8*, i64* }* %2, i32 0, i32 0
  %9 = load i8*, i8** %8, align 8, !nonnull !11, !MPK-Unsafe !4
  %10 = getelementptr inbounds { i8*, i64* }, { i8*, i64* }* %2, i32 0, i32 1
  %11 = load i64*, i64** %10, align 8, !nonnull !11, !MPK-Unsafe !4
  %12 = insertvalue { i8*, i64* } undef, i8* %9, 0
  %13 = insertvalue { i8*, i64* } %12, i64* %11, 1
  ret { i8*, i64* } %13
}

; core::fmt::ArgumentV1::new
; Function Attrs: nonlazybind uwtable
define internal { i8*, i64* } @_ZN4core3fmt10ArgumentV13new17h9614be4a74880fe3E(i64* mpk_immut noalias readonly align 8 dereferenceable(8) %x, i1 (i64*, %"std::fmt::Formatter"*)* mpk_immut nonnull %f) unnamed_addr #1 {
start:
  %0 = alloca %"core::fmt::Opaque"*, align 8, !MPK-Unsafe !4
  %1 = alloca i1 (%"core::fmt::Opaque"*, %"std::fmt::Formatter"*)*, align 8, !MPK-Unsafe !4
  %2 = alloca { i8*, i64* }, align 8
  %3 = bitcast i1 (%"core::fmt::Opaque"*, %"std::fmt::Formatter"*)** %1 to i1 (i64*, %"std::fmt::Formatter"*)**
  store i1 (i64*, %"std::fmt::Formatter"*)* %f, i1 (i64*, %"std::fmt::Formatter"*)** %3, align 8, !MPK-Unsafe !4
  %_3 = load i1 (%"core::fmt::Opaque"*, %"std::fmt::Formatter"*)*, i1 (%"core::fmt::Opaque"*, %"std::fmt::Formatter"*)** %1, align 8, !nonnull !11, !MPK-Unsafe !4
  br label %bb1

bb1:                                              ; preds = %start
  %4 = bitcast %"core::fmt::Opaque"** %0 to i64**
  store i64* %x, i64** %4, align 8, !MPK-Unsafe !4
  %_5 = load %"core::fmt::Opaque"*, %"core::fmt::Opaque"** %0, align 8, !nonnull !11, !MPK-Unsafe !4
  br label %bb2

bb2:                                              ; preds = %bb1
  %5 = bitcast { i8*, i64* }* %2 to %"core::fmt::Opaque"**
  store %"core::fmt::Opaque"* %_5, %"core::fmt::Opaque"** %5, align 8, !MPK-Unsafe !4
  %6 = getelementptr inbounds { i8*, i64* }, { i8*, i64* }* %2, i32 0, i32 1
  %7 = bitcast i64** %6 to i1 (%"core::fmt::Opaque"*, %"std::fmt::Formatter"*)**
  store i1 (%"core::fmt::Opaque"*, %"std::fmt::Formatter"*)* %_3, i1 (%"core::fmt::Opaque"*, %"std::fmt::Formatter"*)** %7, align 8, !MPK-Unsafe !4
  %8 = getelementptr inbounds { i8*, i64* }, { i8*, i64* }* %2, i32 0, i32 0
  %9 = load i8*, i8** %8, align 8, !nonnull !11, !MPK-Unsafe !4
  %10 = getelementptr inbounds { i8*, i64* }, { i8*, i64* }* %2, i32 0, i32 1
  %11 = load i64*, i64** %10, align 8, !nonnull !11, !MPK-Unsafe !4
  %12 = insertvalue { i8*, i64* } undef, i8* %9, 0
  %13 = insertvalue { i8*, i64* } %12, i64* %11, 1
  ret { i8*, i64* } %13
}

; core::fmt::ArgumentV1::new
; Function Attrs: nonlazybind uwtable
define internal { i8*, i64* } @_ZN4core3fmt10ArgumentV13new17hd30e0ab06b7a3addE(i32* mpk_immut noalias readonly align 4 dereferenceable(4) %x, i1 (i32*, %"std::fmt::Formatter"*)* mpk_immut nonnull %f) unnamed_addr #1 {
start:
  %0 = alloca %"core::fmt::Opaque"*, align 8, !MPK-Unsafe !4
  %1 = alloca i1 (%"core::fmt::Opaque"*, %"std::fmt::Formatter"*)*, align 8, !MPK-Unsafe !4
  %2 = alloca { i8*, i64* }, align 8
  %3 = bitcast i1 (%"core::fmt::Opaque"*, %"std::fmt::Formatter"*)** %1 to i1 (i32*, %"std::fmt::Formatter"*)**
  store i1 (i32*, %"std::fmt::Formatter"*)* %f, i1 (i32*, %"std::fmt::Formatter"*)** %3, align 8, !MPK-Unsafe !4
  %_3 = load i1 (%"core::fmt::Opaque"*, %"std::fmt::Formatter"*)*, i1 (%"core::fmt::Opaque"*, %"std::fmt::Formatter"*)** %1, align 8, !nonnull !11, !MPK-Unsafe !4
  br label %bb1

bb1:                                              ; preds = %start
  %4 = bitcast %"core::fmt::Opaque"** %0 to i32**
  store i32* %x, i32** %4, align 8, !MPK-Unsafe !4
  %_5 = load %"core::fmt::Opaque"*, %"core::fmt::Opaque"** %0, align 8, !nonnull !11, !MPK-Unsafe !4
  br label %bb2

bb2:                                              ; preds = %bb1
  %5 = bitcast { i8*, i64* }* %2 to %"core::fmt::Opaque"**
  store %"core::fmt::Opaque"* %_5, %"core::fmt::Opaque"** %5, align 8, !MPK-Unsafe !4
  %6 = getelementptr inbounds { i8*, i64* }, { i8*, i64* }* %2, i32 0, i32 1
  %7 = bitcast i64** %6 to i1 (%"core::fmt::Opaque"*, %"std::fmt::Formatter"*)**
  store i1 (%"core::fmt::Opaque"*, %"std::fmt::Formatter"*)* %_3, i1 (%"core::fmt::Opaque"*, %"std::fmt::Formatter"*)** %7, align 8, !MPK-Unsafe !4
  %8 = getelementptr inbounds { i8*, i64* }, { i8*, i64* }* %2, i32 0, i32 0
  %9 = load i8*, i8** %8, align 8, !nonnull !11, !MPK-Unsafe !4
  %10 = getelementptr inbounds { i8*, i64* }, { i8*, i64* }* %2, i32 0, i32 1
  %11 = load i64*, i64** %10, align 8, !nonnull !11, !MPK-Unsafe !4
  %12 = insertvalue { i8*, i64* } undef, i8* %9, 0
  %13 = insertvalue { i8*, i64* } %12, i64* %11, 1
  ret { i8*, i64* } %13
}

; core::fmt::Arguments::new_v1
; Function Attrs: inlinehint nonlazybind uwtable
define internal void @_ZN4core3fmt9Arguments6new_v117ha97d3258f80eed53E(%"std::fmt::Arguments"* noalias nocapture sret dereferenceable(48) %0, [0 x { [0 x i8]*, i64 }]* mpk_immut noalias nonnull readonly align 8 %pieces.0, i64 %pieces.1, [0 x { i8*, i64* }]* mpk_immut noalias nonnull readonly align 8 %args.0, i64 %args.1) unnamed_addr #0 {
start:
  %_4 = alloca { i64*, i64 }, align 8
  %1 = bitcast { i64*, i64 }* %_4 to {}**
  store {}* null, {}** %1, align 8
  %2 = bitcast %"std::fmt::Arguments"* %0 to { [0 x { [0 x i8]*, i64 }]*, i64 }*
  %3 = getelementptr inbounds { [0 x { [0 x i8]*, i64 }]*, i64 }, { [0 x { [0 x i8]*, i64 }]*, i64 }* %2, i32 0, i32 0
  store [0 x { [0 x i8]*, i64 }]* %pieces.0, [0 x { [0 x i8]*, i64 }]** %3, align 8
  %4 = getelementptr inbounds { [0 x { [0 x i8]*, i64 }]*, i64 }, { [0 x { [0 x i8]*, i64 }]*, i64 }* %2, i32 0, i32 1
  store i64 %pieces.1, i64* %4, align 8
  %5 = getelementptr inbounds %"std::fmt::Arguments", %"std::fmt::Arguments"* %0, i32 0, i32 3
  %6 = getelementptr inbounds { i64*, i64 }, { i64*, i64 }* %_4, i32 0, i32 0
  %7 = load i64*, i64** %6, align 8
  %8 = getelementptr inbounds { i64*, i64 }, { i64*, i64 }* %_4, i32 0, i32 1
  %9 = load i64, i64* %8, align 8
  %10 = getelementptr inbounds { i64*, i64 }, { i64*, i64 }* %5, i32 0, i32 0
  store i64* %7, i64** %10, align 8
  %11 = getelementptr inbounds { i64*, i64 }, { i64*, i64 }* %5, i32 0, i32 1
  store i64 %9, i64* %11, align 8
  %12 = getelementptr inbounds %"std::fmt::Arguments", %"std::fmt::Arguments"* %0, i32 0, i32 5
  %13 = getelementptr inbounds { [0 x { i8*, i64* }]*, i64 }, { [0 x { i8*, i64* }]*, i64 }* %12, i32 0, i32 0
  store [0 x { i8*, i64* }]* %args.0, [0 x { i8*, i64* }]** %13, align 8
  %14 = getelementptr inbounds { [0 x { i8*, i64* }]*, i64 }, { [0 x { i8*, i64* }]*, i64 }* %12, i32 0, i32 1
  store i64 %args.1, i64* %14, align 8
  ret void
}

; core::mem::size_of_val
; Function Attrs: inlinehint nonlazybind uwtable
define internal i64 @_ZN4core3mem11size_of_val17hb797e2a3a2f8bfc4E([0 x i8]* mpk_immut noalias nonnull readonly align 1 %val.0, i64 %val.1) unnamed_addr #0 {
start:
  %0 = alloca i64, align 8
  %1 = mul i64 %val.1, 1
  store i64 %1, i64* %0, align 8
  %2 = load i64, i64* %0, align 8
  br label %bb1

bb1:                                              ; preds = %start
  ret i64 %2
}

; core::mem::drop
; Function Attrs: inlinehint nonlazybind uwtable
define internal void @_ZN4core3mem4drop17h0bf1687fe04c972cE(%"std::collections::btree_map::IntoIter<std::ffi::OsString, std::option::Option<std::ffi::OsString>>"* noalias nocapture dereferenceable(56) %_x) unnamed_addr #0 {
start:
; call core::ptr::drop_in_place
  call void @_ZN4core3ptr13drop_in_place17h1759f50957095470E(%"std::collections::btree_map::IntoIter<std::ffi::OsString, std::option::Option<std::ffi::OsString>>"* mpk_unsafe %_x)
  br label %bb1

bb1:                                              ; preds = %start
  ret void
}

; core::mem::drop
; Function Attrs: inlinehint nonlazybind uwtable
define internal void @_ZN4core3mem4drop17h6ed8125703b788a3E({ [0 x i64], %"std::ffi::OsString", [0 x i64], %"std::option::Option<std::ffi::OsString>", [0 x i64] }* noalias nocapture dereferenceable(48) %_x) unnamed_addr #0 {
start:
; call core::ptr::drop_in_place
  call void @_ZN4core3ptr13drop_in_place17h5431fb575a1b2b7eE({ [0 x i64], %"std::ffi::OsString", [0 x i64], %"std::option::Option<std::ffi::OsString>", [0 x i64] }* mpk_unsafe %_x)
  br label %bb1

bb1:                                              ; preds = %start
  ret void
}

; core::mem::swap
; Function Attrs: inlinehint nonlazybind uwtable
define internal void @_ZN4core3mem4swap17h608990769002651fE({ i8*, i64 }* align 8 dereferenceable(16) %x, { i8*, i64 }* align 8 dereferenceable(16) %y) unnamed_addr #0 {
start:
; call core::ptr::swap_nonoverlapping_one
  call void @_ZN4core3ptr23swap_nonoverlapping_one17hd564d9b243055803E({ i8*, i64 }* mpk_unsafe %x, { i8*, i64 }* mpk_unsafe %y), !MPK-Unsafe !4
  br label %bb1

bb1:                                              ; preds = %start
  ret void
}

; core::mem::swap
; Function Attrs: inlinehint nonlazybind uwtable
define internal void @_ZN4core3mem4swap17h8d528d52fb8ebde1E({ i64*, i64 }* align 8 dereferenceable(16) %x, { i64*, i64 }* align 8 dereferenceable(16) %y) unnamed_addr #0 {
start:
; call core::ptr::swap_nonoverlapping_one
  call void @_ZN4core3ptr23swap_nonoverlapping_one17h38e29042fe1d0b59E({ i64*, i64 }* mpk_unsafe %x, { i64*, i64 }* mpk_unsafe %y), !MPK-Unsafe !4
  br label %bb1

bb1:                                              ; preds = %start
  ret void
}

; core::mem::swap
; Function Attrs: inlinehint nonlazybind uwtable
define internal void @_ZN4core3mem4swap17hb000e5ae7e165621E(i64* align 8 dereferenceable(8) %x, i64* align 8 dereferenceable(8) %y) unnamed_addr #0 {
start:
; call core::ptr::swap_nonoverlapping_one
  call void @_ZN4core3ptr23swap_nonoverlapping_one17h622c64681fa30c2dE(i64* mpk_unsafe %x, i64* mpk_unsafe %y), !MPK-Unsafe !4
  br label %bb1

bb1:                                              ; preds = %start
  ret void
}

; core::mem::take
; Function Attrs: inlinehint nonlazybind uwtable
define internal { i8*, i64 } @_ZN4core3mem4take17h086bdabf0b4d15ebE({ i8*, i64 }* align 8 dereferenceable(16) %dest) unnamed_addr #0 {
start:
; call <core::option::Option<T> as core::default::Default>::default
  %0 = call { i8*, i64 } @"_ZN72_$LT$core..option..Option$LT$T$GT$$u20$as$u20$core..default..Default$GT$7default17h8c9221f3229e5336E"()
  %_3.0 = extractvalue { i8*, i64 } %0, 0
  %_3.1 = extractvalue { i8*, i64 } %0, 1
  br label %bb1

bb1:                                              ; preds = %start
; call core::mem::replace
  %1 = call { i8*, i64 } @_ZN4core3mem7replace17hda7c329bbdd15937E({ i8*, i64 }* align 8 dereferenceable(16) %dest, i8* mpk_immut noalias readonly align 1 %_3.0, i64 %_3.1)
  %2 = extractvalue { i8*, i64 } %1, 0
  %3 = extractvalue { i8*, i64 } %1, 1
  br label %bb2

bb2:                                              ; preds = %bb1
  %4 = insertvalue { i8*, i64 } undef, i8* %2, 0
  %5 = insertvalue { i8*, i64 } %4, i64 %3, 1
  ret { i8*, i64 } %5
}

; core::mem::take
; Function Attrs: inlinehint nonlazybind uwtable
define internal { i64*, i64 } @_ZN4core3mem4take17hca945d2c967eca45E({ i64*, i64 }* align 8 dereferenceable(16) %dest) unnamed_addr #0 {
start:
; call <core::option::Option<T> as core::default::Default>::default
  %0 = call { i64*, i64 } @"_ZN72_$LT$core..option..Option$LT$T$GT$$u20$as$u20$core..default..Default$GT$7default17h94811efe173bb29dE"()
  %_3.0 = extractvalue { i64*, i64 } %0, 0
  %_3.1 = extractvalue { i64*, i64 } %0, 1
  br label %bb1

bb1:                                              ; preds = %start
; call core::mem::replace
  %1 = call { i64*, i64 } @_ZN4core3mem7replace17he69fc30503b5579cE({ i64*, i64 }* align 8 dereferenceable(16) %dest, i64* mpk_immut %_3.0, i64 %_3.1)
  %2 = extractvalue { i64*, i64 } %1, 0
  %3 = extractvalue { i64*, i64 } %1, 1
  br label %bb2

bb2:                                              ; preds = %bb1
  %4 = insertvalue { i64*, i64 } undef, i64* %2, 0
  %5 = insertvalue { i64*, i64 } %4, i64 %3, 1
  ret { i64*, i64 } %5
}

; core::mem::forget
; Function Attrs: inlinehint nonlazybind uwtable
define internal void @_ZN4core3mem6forget17h2ee503e9785972d4E(i64* align 8 dereferenceable(56) %t) unnamed_addr #0 {
start:
  %0 = alloca i64*, align 8
  store i64* %t, i64** %0, align 8
  %1 = load i64*, i64** %0, align 8, !nonnull !11
  br label %bb1

bb1:                                              ; preds = %start
  ret void
}

; core::mem::forget
; Function Attrs: inlinehint nonlazybind uwtable
define internal void @_ZN4core3mem6forget17h31500c94f1a86283E() unnamed_addr #0 {
start:
  %0 = alloca %"std::mem::ManuallyDrop<alloc::collections::btree::mem::replace::PanicGuard>", align 1
  %1 = bitcast %"std::mem::ManuallyDrop<alloc::collections::btree::mem::replace::PanicGuard>"* %0 to %"alloc::collections::btree::mem::replace::PanicGuard"*
  br label %bb1

bb1:                                              ; preds = %start
  ret void
}

; core::mem::replace
; Function Attrs: inlinehint nonlazybind uwtable
define internal i64 @_ZN4core3mem7replace17h58124cfc911d8b54E(i64* align 8 dereferenceable(8) %dest, i64 %0) unnamed_addr #0 personality i32 (i32, i32, i64, %"unwind::libunwind::_Unwind_Exception"*, %"unwind::libunwind::_Unwind_Context"*)* @rust_eh_personality {
start:
  %1 = alloca { i8*, i32 }, align 8
  %src = alloca i64, align 8
  store i64 %0, i64* %src, align 8
; invoke core::mem::swap
  invoke void @_ZN4core3mem4swap17hb000e5ae7e165621E(i64* align 8 dereferenceable(8) %dest, i64* align 8 dereferenceable(8) %src)
          to label %bb1 unwind label %cleanup

bb1:                                              ; preds = %start
  %2 = load i64, i64* %src, align 8
  ret i64 %2

bb2:                                              ; preds = %cleanup
  br label %bb3

bb3:                                              ; preds = %bb2
  %3 = bitcast { i8*, i32 }* %1 to i8**
  %4 = load i8*, i8** %3, align 8
  %5 = getelementptr inbounds { i8*, i32 }, { i8*, i32 }* %1, i32 0, i32 1
  %6 = load i32, i32* %5, align 8
  %7 = insertvalue { i8*, i32 } undef, i8* %4, 0
  %8 = insertvalue { i8*, i32 } %7, i32 %6, 1
  resume { i8*, i32 } %8

cleanup:                                          ; preds = %start
  %9 = landingpad { i8*, i32 }
          cleanup
  %10 = extractvalue { i8*, i32 } %9, 0
  %11 = extractvalue { i8*, i32 } %9, 1
  %12 = getelementptr inbounds { i8*, i32 }, { i8*, i32 }* %1, i32 0, i32 0
  store i8* %10, i8** %12, align 8
  %13 = getelementptr inbounds { i8*, i32 }, { i8*, i32 }* %1, i32 0, i32 1
  store i32 %11, i32* %13, align 8
  br label %bb2
}

; core::mem::replace
; Function Attrs: inlinehint nonlazybind uwtable
define internal { i8*, i64 } @_ZN4core3mem7replace17hda7c329bbdd15937E({ i8*, i64 }* align 8 dereferenceable(16) %dest, i8* mpk_immut noalias readonly align 1 %0, i64 %1) unnamed_addr #0 personality i32 (i32, i32, i64, %"unwind::libunwind::_Unwind_Exception"*, %"unwind::libunwind::_Unwind_Context"*)* @rust_eh_personality {
start:
  %2 = alloca { i8*, i32 }, align 8
  %src = alloca { i8*, i64 }, align 8
  %3 = getelementptr inbounds { i8*, i64 }, { i8*, i64 }* %src, i32 0, i32 0
  store i8* %0, i8** %3, align 8
  %4 = getelementptr inbounds { i8*, i64 }, { i8*, i64 }* %src, i32 0, i32 1
  store i64 %1, i64* %4, align 8
; invoke core::mem::swap
  invoke void @_ZN4core3mem4swap17h608990769002651fE({ i8*, i64 }* align 8 dereferenceable(16) %dest, { i8*, i64 }* align 8 dereferenceable(16) %src)
          to label %bb1 unwind label %cleanup

bb1:                                              ; preds = %start
  %5 = getelementptr inbounds { i8*, i64 }, { i8*, i64 }* %src, i32 0, i32 0
  %6 = load i8*, i8** %5, align 8
  %7 = getelementptr inbounds { i8*, i64 }, { i8*, i64 }* %src, i32 0, i32 1
  %8 = load i64, i64* %7, align 8
  %9 = insertvalue { i8*, i64 } undef, i8* %6, 0
  %10 = insertvalue { i8*, i64 } %9, i64 %8, 1
  ret { i8*, i64 } %10

bb2:                                              ; preds = %cleanup
  br label %bb3

bb3:                                              ; preds = %bb2
  %11 = bitcast { i8*, i32 }* %2 to i8**
  %12 = load i8*, i8** %11, align 8
  %13 = getelementptr inbounds { i8*, i32 }, { i8*, i32 }* %2, i32 0, i32 1
  %14 = load i32, i32* %13, align 8
  %15 = insertvalue { i8*, i32 } undef, i8* %12, 0
  %16 = insertvalue { i8*, i32 } %15, i32 %14, 1
  resume { i8*, i32 } %16

cleanup:                                          ; preds = %start
  %17 = landingpad { i8*, i32 }
          cleanup
  %18 = extractvalue { i8*, i32 } %17, 0
  %19 = extractvalue { i8*, i32 } %17, 1
  %20 = getelementptr inbounds { i8*, i32 }, { i8*, i32 }* %2, i32 0, i32 0
  store i8* %18, i8** %20, align 8
  %21 = getelementptr inbounds { i8*, i32 }, { i8*, i32 }* %2, i32 0, i32 1
  store i32 %19, i32* %21, align 8
  br label %bb2
}

; core::mem::replace
; Function Attrs: inlinehint nonlazybind uwtable
define internal { i64*, i64 } @_ZN4core3mem7replace17he69fc30503b5579cE({ i64*, i64 }* align 8 dereferenceable(16) %dest, i64* mpk_immut %0, i64 %1) unnamed_addr #0 personality i32 (i32, i32, i64, %"unwind::libunwind::_Unwind_Exception"*, %"unwind::libunwind::_Unwind_Context"*)* @rust_eh_personality {
start:
  %2 = alloca { i8*, i32 }, align 8
  %src = alloca { i64*, i64 }, align 8
  %3 = getelementptr inbounds { i64*, i64 }, { i64*, i64 }* %src, i32 0, i32 0
  store i64* %0, i64** %3, align 8
  %4 = getelementptr inbounds { i64*, i64 }, { i64*, i64 }* %src, i32 0, i32 1
  store i64 %1, i64* %4, align 8
; invoke core::mem::swap
  invoke void @_ZN4core3mem4swap17h8d528d52fb8ebde1E({ i64*, i64 }* align 8 dereferenceable(16) %dest, { i64*, i64 }* align 8 dereferenceable(16) %src)
          to label %bb1 unwind label %cleanup

bb1:                                              ; preds = %start
  %5 = getelementptr inbounds { i64*, i64 }, { i64*, i64 }* %src, i32 0, i32 0
  %6 = load i64*, i64** %5, align 8
  %7 = getelementptr inbounds { i64*, i64 }, { i64*, i64 }* %src, i32 0, i32 1
  %8 = load i64, i64* %7, align 8
  %9 = insertvalue { i64*, i64 } undef, i64* %6, 0
  %10 = insertvalue { i64*, i64 } %9, i64 %8, 1
  ret { i64*, i64 } %10

bb2:                                              ; preds = %cleanup
  br label %bb3

bb3:                                              ; preds = %bb2
  %11 = bitcast { i8*, i32 }* %2 to i8**
  %12 = load i8*, i8** %11, align 8
  %13 = getelementptr inbounds { i8*, i32 }, { i8*, i32 }* %2, i32 0, i32 1
  %14 = load i32, i32* %13, align 8
  %15 = insertvalue { i8*, i32 } undef, i8* %12, 0
  %16 = insertvalue { i8*, i32 } %15, i32 %14, 1
  resume { i8*, i32 } %16

cleanup:                                          ; preds = %start
  %17 = landingpad { i8*, i32 }
          cleanup
  %18 = extractvalue { i8*, i32 } %17, 0
  %19 = extractvalue { i8*, i32 } %17, 1
  %20 = getelementptr inbounds { i8*, i32 }, { i8*, i32 }* %2, i32 0, i32 0
  store i8* %18, i8** %20, align 8
  %21 = getelementptr inbounds { i8*, i32 }, { i8*, i32 }* %2, i32 0, i32 1
  store i32 %19, i32* %21, align 8
  br label %bb2
}

; core::num::<impl usize>::wrapping_sub
; Function Attrs: inlinehint nonlazybind uwtable
define internal i64 @"_ZN4core3num23_$LT$impl$u20$usize$GT$12wrapping_sub17h999568d552da1079E"(i64 %self, i64 %rhs) unnamed_addr #0 {
start:
  %0 = alloca i64, align 8
  %1 = sub i64 %self, %rhs
  store i64 %1, i64* %0, align 8
  %2 = load i64, i64* %0, align 8
  br label %bb1

bb1:                                              ; preds = %start
  ret i64 %2
}

; core::num::<impl usize>::unchecked_add
; Function Attrs: inlinehint nonlazybind uwtable
define internal i64 @"_ZN4core3num23_$LT$impl$u20$usize$GT$13unchecked_add17h1fb6f4d4d849c880E"(i64 %self, i64 %rhs) unnamed_addr #0 {
start:
  %0 = alloca i64, align 8, !MPK-Unsafe !4
  %1 = add nuw i64 %self, %rhs
  store i64 %1, i64* %0, align 8, !MPK-Unsafe !4
  %2 = load i64, i64* %0, align 8, !MPK-Unsafe !4
  br label %bb1

bb1:                                              ; preds = %start
  ret i64 %2
}

; core::num::nonzero::NonZeroUsize::new_unchecked
; Function Attrs: inlinehint nonlazybind uwtable
define internal i64 @_ZN4core3num7nonzero12NonZeroUsize13new_unchecked17hbd44f6aa1a738923E(i64 %n) unnamed_addr #0 {
start:
  %0 = alloca i64, align 8
  store i64 %n, i64* %0, align 8, !MPK-Unsafe !4
  %1 = load i64, i64* %0, align 8, !range !20, !MPK-Unsafe !4
  ret i64 %1
}

; core::num::nonzero::NonZeroUsize::get
; Function Attrs: inlinehint nonlazybind uwtable
define internal i64 @_ZN4core3num7nonzero12NonZeroUsize3get17h9441cfddde214715E(i64 %self) unnamed_addr #0 {
start:
  ret i64 %self
}

; core::ops::function::FnOnce::call_once{{vtable.shim}}
; Function Attrs: nonlazybind uwtable
define internal i32 @"_ZN4core3ops8function6FnOnce40call_once$u7b$$u7b$vtable.shim$u7d$$u7d$17h6057d75396c583c5E"(i64** %_1) unnamed_addr #1 {
start:
  %_2 = alloca {}, align 1
  %0 = load i64*, i64** %_1, align 8, !nonnull !11
; call core::ops::function::FnOnce::call_once
  %1 = call i32 @_ZN4core3ops8function6FnOnce9call_once17h5d2da39c98998f58E(i64* mpk_immut nonnull %0)
  br label %bb1

bb1:                                              ; preds = %start
  ret i32 %1
}

; core::ops::function::FnOnce::call_once
; Function Attrs: nonlazybind uwtable
define internal i32 @_ZN4core3ops8function6FnOnce9call_once17h5d2da39c98998f58E(i64* mpk_immut nonnull %0) unnamed_addr #1 personality i32 (i32, i32, i64, %"unwind::libunwind::_Unwind_Exception"*, %"unwind::libunwind::_Unwind_Context"*)* @rust_eh_personality {
start:
  %1 = alloca { i8*, i32 }, align 8
  %_2 = alloca {}, align 1
  %_1 = alloca i64*, align 8
  store i64* %0, i64** %_1, align 8
; invoke std::rt::lang_start::{{closure}}
  %2 = invoke i32 @"_ZN3std2rt10lang_start28_$u7b$$u7b$closure$u7d$$u7d$17hd348c98e2a8984ebE"(i64** mpk_immut noalias readonly align 8 dereferenceable(8) %_1)
          to label %bb1 unwind label %cleanup

bb1:                                              ; preds = %start
  br label %bb2

bb2:                                              ; preds = %bb1
  ret i32 %2

bb3:                                              ; preds = %cleanup
  br label %bb4

bb4:                                              ; preds = %bb3
  %3 = bitcast { i8*, i32 }* %1 to i8**
  %4 = load i8*, i8** %3, align 8
  %5 = getelementptr inbounds { i8*, i32 }, { i8*, i32 }* %1, i32 0, i32 1
  %6 = load i32, i32* %5, align 8
  %7 = insertvalue { i8*, i32 } undef, i8* %4, 0
  %8 = insertvalue { i8*, i32 } %7, i32 %6, 1
  resume { i8*, i32 } %8

cleanup:                                          ; preds = %start
  %9 = landingpad { i8*, i32 }
          cleanup
  %10 = extractvalue { i8*, i32 } %9, 0
  %11 = extractvalue { i8*, i32 } %9, 1
  %12 = getelementptr inbounds { i8*, i32 }, { i8*, i32 }* %1, i32 0, i32 0
  store i8* %10, i8** %12, align 8
  %13 = getelementptr inbounds { i8*, i32 }, { i8*, i32 }* %1, i32 0, i32 1
  store i32 %11, i32* %13, align 8
  br label %bb3
}

; core::ops::function::FnOnce::call_once
; Function Attrs: nonlazybind uwtable
define internal void @_ZN4core3ops8function6FnOnce9call_once17hb0f61a47df5fc4b8E(void ()* mpk_immut nonnull %_1) unnamed_addr #1 {
start:
  %_2 = alloca {}, align 1
  call void %_1()
  br label %bb1

bb1:                                              ; preds = %start
  ret void
}

; core::ptr::drop_in_place
; Function Attrs: nonlazybind uwtable
define internal void @_ZN4core3ptr13drop_in_place17h0592225f2e5a8517E(%"std::vec::Vec<u8>"* mpk_unsafe %_1) unnamed_addr #1 personality i32 (i32, i32, i64, %"unwind::libunwind::_Unwind_Exception"*, %"unwind::libunwind::_Unwind_Context"*)* @rust_eh_personality {
start:
  %0 = alloca { i8*, i32 }, align 8
  %1 = alloca {}, align 1
; invoke <alloc::vec::Vec<T> as core::ops::drop::Drop>::drop
  invoke void @"_ZN66_$LT$alloc..vec..Vec$LT$T$GT$$u20$as$u20$core..ops..drop..Drop$GT$4drop17h6866992f80b914bfE"(%"std::vec::Vec<u8>"* align 8 dereferenceable(24) %_1)
          to label %bb4 unwind label %cleanup

bb1:                                              ; preds = %bb3
  %2 = bitcast { i8*, i32 }* %0 to i8**
  %3 = load i8*, i8** %2, align 8
  %4 = getelementptr inbounds { i8*, i32 }, { i8*, i32 }* %0, i32 0, i32 1
  %5 = load i32, i32* %4, align 8
  %6 = insertvalue { i8*, i32 } undef, i8* %3, 0
  %7 = insertvalue { i8*, i32 } %6, i32 %5, 1
  resume { i8*, i32 } %7

bb2:                                              ; preds = %bb4
  ret void

bb3:                                              ; preds = %cleanup
  %8 = bitcast %"std::vec::Vec<u8>"* %_1 to { i8*, i64 }*, !MPK-SmartPointer !3
; call core::ptr::drop_in_place
  call void @_ZN4core3ptr13drop_in_place17h479b92c3af0671e7E({ i8*, i64 }* mpk_unsafe %8) #14
  br label %bb1

bb4:                                              ; preds = %start
  %9 = bitcast %"std::vec::Vec<u8>"* %_1 to { i8*, i64 }*, !MPK-SmartPointer !3
; call core::ptr::drop_in_place
  call void @_ZN4core3ptr13drop_in_place17h479b92c3af0671e7E({ i8*, i64 }* mpk_unsafe %9)
  br label %bb2

cleanup:                                          ; preds = %start
  %10 = landingpad { i8*, i32 }
          cleanup
  %11 = extractvalue { i8*, i32 } %10, 0
  %12 = extractvalue { i8*, i32 } %10, 1
  %13 = getelementptr inbounds { i8*, i32 }, { i8*, i32 }* %0, i32 0, i32 0
  store i8* %11, i8** %13, align 8
  %14 = getelementptr inbounds { i8*, i32 }, { i8*, i32 }* %0, i32 0, i32 1
  store i32 %12, i32* %14, align 8
  br label %bb3
}

; core::ptr::drop_in_place
; Function Attrs: nonlazybind uwtable
define internal void @_ZN4core3ptr13drop_in_place17h15044d78c9130bbcE(%"std::string::FromUtf8Error"* mpk_unsafe %_1) unnamed_addr #1 {
start:
  %0 = alloca {}, align 1
  %1 = bitcast %"std::string::FromUtf8Error"* %_1 to %"std::vec::Vec<u8>"*, !MPK-SmartPointer !3
; call core::ptr::drop_in_place
  call void @_ZN4core3ptr13drop_in_place17h0592225f2e5a8517E(%"std::vec::Vec<u8>"* mpk_unsafe %1)
  br label %bb1

bb1:                                              ; preds = %start
  ret void
}

; core::ptr::drop_in_place
; Function Attrs: nonlazybind uwtable
define internal void @_ZN4core3ptr13drop_in_place17h1759f50957095470E(%"std::collections::btree_map::IntoIter<std::ffi::OsString, std::option::Option<std::ffi::OsString>>"* mpk_unsafe %_1) unnamed_addr #1 {
start:
  %0 = alloca {}, align 1
; call <alloc::collections::btree::map::IntoIter<K,V> as core::ops::drop::Drop>::drop
  call void @"_ZN95_$LT$alloc..collections..btree..map..IntoIter$LT$K$C$V$GT$$u20$as$u20$core..ops..drop..Drop$GT$4drop17h92b4c7d6b1a5c70cE"(%"std::collections::btree_map::IntoIter<std::ffi::OsString, std::option::Option<std::ffi::OsString>>"* align 8 dereferenceable(56) %_1)
  br label %bb1

bb1:                                              ; preds = %start
  ret void
}

; core::ptr::drop_in_place
; Function Attrs: nonlazybind uwtable
define internal void @_ZN4core3ptr13drop_in_place17h17f93f402ea08f25E(%"std::option::Option<std::string::String>"* mpk_unsafe %_1) unnamed_addr #1 {
start:
  %0 = alloca {}, align 1
  %1 = bitcast %"std::option::Option<std::string::String>"* %_1 to {}**
  %2 = load {}*, {}** %1, align 8
  %3 = icmp eq {}* %2, null
  %_2 = select i1 %3, i64 0, i64 1
  %4 = icmp eq i64 %_2, 0
  br i1 %4, label %bb1, label %bb2

bb1:                                              ; preds = %bb2, %start
  ret void

bb2:                                              ; preds = %start
  %5 = bitcast %"std::option::Option<std::string::String>"* %_1 to %"std::option::Option<std::string::String>::Some"*, !MPK-SmartPointer !3
  %6 = bitcast %"std::option::Option<std::string::String>::Some"* %5 to %"std::string::String"*, !MPK-SmartPointer !3
; call core::ptr::drop_in_place
  call void @_ZN4core3ptr13drop_in_place17hfe01a2209d12e44fE(%"std::string::String"* mpk_unsafe %6)
  br label %bb1
}

; core::ptr::drop_in_place
; Function Attrs: nonlazybind uwtable
define internal void @_ZN4core3ptr13drop_in_place17h1c04a91a46ba443aE({ i64*, i64 }* mpk_unsafe %_1) unnamed_addr #1 {
start:
  %0 = alloca {}, align 1
; call <alloc::raw_vec::RawVec<T,A> as core::ops::drop::Drop>::drop
  call void @"_ZN77_$LT$alloc..raw_vec..RawVec$LT$T$C$A$GT$$u20$as$u20$core..ops..drop..Drop$GT$4drop17ha6e53f2a326b4a25E"({ i64*, i64 }* align 8 dereferenceable(16) %_1)
  br label %bb1

bb1:                                              ; preds = %start
  ret void
}

; core::ptr::drop_in_place
; Function Attrs: nonlazybind uwtable
define internal void @_ZN4core3ptr13drop_in_place17h1c15b6b5a50c6108E({ i32, i32 }* mpk_unsafe %_1) unnamed_addr #1 {
start:
  %0 = alloca {}, align 1
  %1 = bitcast { i32, i32 }* %_1 to i32*
  %2 = load i32, i32* %1, align 4, !range !21
  %_2 = zext i32 %2 to i64
  switch i64 %_2, label %bb2 [
    i64 0, label %bb1
    i64 1, label %bb1
    i64 2, label %bb1
  ]

bb1:                                              ; preds = %bb2, %start, %start, %start
  ret void

bb2:                                              ; preds = %start
  %3 = bitcast { i32, i32 }* %_1 to %"std::sys::unix::process::process_common::Stdio::Fd"*
  %4 = getelementptr inbounds %"std::sys::unix::process::process_common::Stdio::Fd", %"std::sys::unix::process::process_common::Stdio::Fd"* %3, i32 0, i32 1
; call core::ptr::drop_in_place
  call void @_ZN4core3ptr13drop_in_place17h73d04c2fb784f501E(i32* mpk_unsafe %4)
  br label %bb1
}

; core::ptr::drop_in_place
; Function Attrs: nonlazybind uwtable
define internal void @_ZN4core3ptr13drop_in_place17h1d020f0f820367deE(%"std::sys::unix::process::process_common::Command"* mpk_unsafe %_1) unnamed_addr #1 personality i32 (i32, i32, i64, %"unwind::libunwind::_Unwind_Exception"*, %"unwind::libunwind::_Unwind_Context"*)* @rust_eh_personality {
start:
  %0 = alloca { i8*, i32 }, align 8
  %1 = alloca {}, align 1
  %2 = bitcast %"std::sys::unix::process::process_common::Command"* %_1 to { i8*, i64 }*, !MPK-SmartPointer !3
; invoke core::ptr::drop_in_place
  invoke void @_ZN4core3ptr13drop_in_place17hf3ed581a016a95f4E({ i8*, i64 }* mpk_unsafe %2)
          to label %bb18 unwind label %cleanup

bb1:                                              ; preds = %bb3
  %3 = bitcast { i8*, i32 }* %0 to i8**
  %4 = load i8*, i8** %3, align 8
  %5 = getelementptr inbounds { i8*, i32 }, { i8*, i32 }* %0, i32 0, i32 1
  %6 = load i32, i32* %5, align 8
  %7 = insertvalue { i8*, i32 } undef, i8* %4, 0
  %8 = insertvalue { i8*, i32 } %7, i32 %6, 1
  resume { i8*, i32 } %8

bb2:                                              ; preds = %bb11
  ret void

bb3:                                              ; preds = %cleanup7, %bb4
  %9 = getelementptr inbounds %"std::sys::unix::process::process_common::Command", %"std::sys::unix::process::process_common::Command"* %_1, i32 0, i32 21
; call core::ptr::drop_in_place
  call void @_ZN4core3ptr13drop_in_place17h9dbc41f7253da0b9E({ i32, i32 }* mpk_unsafe %9) #14
  br label %bb1

bb4:                                              ; preds = %cleanup6, %bb5
  %10 = getelementptr inbounds %"std::sys::unix::process::process_common::Command", %"std::sys::unix::process::process_common::Command"* %_1, i32 0, i32 19
; call core::ptr::drop_in_place
  call void @_ZN4core3ptr13drop_in_place17h9dbc41f7253da0b9E({ i32, i32 }* mpk_unsafe %10) #14
  br label %bb3

bb5:                                              ; preds = %cleanup5, %bb6
  %11 = getelementptr inbounds %"std::sys::unix::process::process_common::Command", %"std::sys::unix::process::process_common::Command"* %_1, i32 0, i32 17
; call core::ptr::drop_in_place
  call void @_ZN4core3ptr13drop_in_place17h9dbc41f7253da0b9E({ i32, i32 }* mpk_unsafe %11) #14
  br label %bb4

bb6:                                              ; preds = %cleanup4, %bb7
  %12 = getelementptr inbounds %"std::sys::unix::process::process_common::Command", %"std::sys::unix::process::process_common::Command"* %_1, i32 0, i32 11, !MPK-SmartPointer !3
; call core::ptr::drop_in_place
  call void @_ZN4core3ptr13drop_in_place17hdf09b7504cd3b20cE(%"std::vec::Vec<std::boxed::Box<dyn std::ops::FnMut() -> std::result::Result<(), std::io::Error> + std::marker::Send + std::marker::Sync>>"* mpk_unsafe %12) #14
  br label %bb5

bb7:                                              ; preds = %cleanup3, %bb8
  %13 = getelementptr inbounds %"std::sys::unix::process::process_common::Command", %"std::sys::unix::process::process_common::Command"* %_1, i32 0, i32 9
; call core::ptr::drop_in_place
  call void @_ZN4core3ptr13drop_in_place17h44c2f6fcf054ebfcE({ i8*, i64 }* mpk_unsafe %13) #14
  br label %bb6

bb8:                                              ; preds = %cleanup2, %bb9
  %14 = getelementptr inbounds %"std::sys::unix::process::process_common::Command", %"std::sys::unix::process::process_common::Command"* %_1, i32 0, i32 7
; call core::ptr::drop_in_place
  call void @_ZN4core3ptr13drop_in_place17ha6a935f79191a843E(%"std::sys_common::process::CommandEnv"* mpk_unsafe %14) #14
  br label %bb7

bb9:                                              ; preds = %cleanup1, %bb10
  %15 = getelementptr inbounds %"std::sys::unix::process::process_common::Command", %"std::sys::unix::process::process_common::Command"* %_1, i32 0, i32 5, !MPK-SmartPointer !3
; call core::ptr::drop_in_place
  call void @_ZN4core3ptr13drop_in_place17hf9cf17716b6f560dE(%"std::sys::unix::process::process_common::Argv"* mpk_unsafe %15) #14
  br label %bb8

bb10:                                             ; preds = %cleanup
  %16 = getelementptr inbounds %"std::sys::unix::process::process_common::Command", %"std::sys::unix::process::process_common::Command"* %_1, i32 0, i32 3, !MPK-SmartPointer !3
; call core::ptr::drop_in_place
  call void @_ZN4core3ptr13drop_in_place17h4dbdd84b5e785a0dE(%"std::vec::Vec<std::ffi::CString>"* mpk_unsafe %16) #14
  br label %bb9

bb11:                                             ; preds = %bb12
  %17 = getelementptr inbounds %"std::sys::unix::process::process_common::Command", %"std::sys::unix::process::process_common::Command"* %_1, i32 0, i32 21
; call core::ptr::drop_in_place
  call void @_ZN4core3ptr13drop_in_place17h9dbc41f7253da0b9E({ i32, i32 }* mpk_unsafe %17)
  br label %bb2

bb12:                                             ; preds = %bb13
  %18 = getelementptr inbounds %"std::sys::unix::process::process_common::Command", %"std::sys::unix::process::process_common::Command"* %_1, i32 0, i32 19
; invoke core::ptr::drop_in_place
  invoke void @_ZN4core3ptr13drop_in_place17h9dbc41f7253da0b9E({ i32, i32 }* mpk_unsafe %18)
          to label %bb11 unwind label %cleanup7

bb13:                                             ; preds = %bb14
  %19 = getelementptr inbounds %"std::sys::unix::process::process_common::Command", %"std::sys::unix::process::process_common::Command"* %_1, i32 0, i32 17
; invoke core::ptr::drop_in_place
  invoke void @_ZN4core3ptr13drop_in_place17h9dbc41f7253da0b9E({ i32, i32 }* mpk_unsafe %19)
          to label %bb12 unwind label %cleanup6

bb14:                                             ; preds = %bb15
  %20 = getelementptr inbounds %"std::sys::unix::process::process_common::Command", %"std::sys::unix::process::process_common::Command"* %_1, i32 0, i32 11, !MPK-SmartPointer !3
; invoke core::ptr::drop_in_place
  invoke void @_ZN4core3ptr13drop_in_place17hdf09b7504cd3b20cE(%"std::vec::Vec<std::boxed::Box<dyn std::ops::FnMut() -> std::result::Result<(), std::io::Error> + std::marker::Send + std::marker::Sync>>"* mpk_unsafe %20)
          to label %bb13 unwind label %cleanup5

bb15:                                             ; preds = %bb16
  %21 = getelementptr inbounds %"std::sys::unix::process::process_common::Command", %"std::sys::unix::process::process_common::Command"* %_1, i32 0, i32 9
; invoke core::ptr::drop_in_place
  invoke void @_ZN4core3ptr13drop_in_place17h44c2f6fcf054ebfcE({ i8*, i64 }* mpk_unsafe %21)
          to label %bb14 unwind label %cleanup4

bb16:                                             ; preds = %bb17
  %22 = getelementptr inbounds %"std::sys::unix::process::process_common::Command", %"std::sys::unix::process::process_common::Command"* %_1, i32 0, i32 7
; invoke core::ptr::drop_in_place
  invoke void @_ZN4core3ptr13drop_in_place17ha6a935f79191a843E(%"std::sys_common::process::CommandEnv"* mpk_unsafe %22)
          to label %bb15 unwind label %cleanup3

bb17:                                             ; preds = %bb18
  %23 = getelementptr inbounds %"std::sys::unix::process::process_common::Command", %"std::sys::unix::process::process_common::Command"* %_1, i32 0, i32 5, !MPK-SmartPointer !3
; invoke core::ptr::drop_in_place
  invoke void @_ZN4core3ptr13drop_in_place17hf9cf17716b6f560dE(%"std::sys::unix::process::process_common::Argv"* mpk_unsafe %23)
          to label %bb16 unwind label %cleanup2

bb18:                                             ; preds = %start
  %24 = getelementptr inbounds %"std::sys::unix::process::process_common::Command", %"std::sys::unix::process::process_common::Command"* %_1, i32 0, i32 3, !MPK-SmartPointer !3
; invoke core::ptr::drop_in_place
  invoke void @_ZN4core3ptr13drop_in_place17h4dbdd84b5e785a0dE(%"std::vec::Vec<std::ffi::CString>"* mpk_unsafe %24)
          to label %bb17 unwind label %cleanup1

cleanup:                                          ; preds = %start
  %25 = landingpad { i8*, i32 }
          cleanup
  %26 = extractvalue { i8*, i32 } %25, 0
  %27 = extractvalue { i8*, i32 } %25, 1
  %28 = getelementptr inbounds { i8*, i32 }, { i8*, i32 }* %0, i32 0, i32 0
  store i8* %26, i8** %28, align 8
  %29 = getelementptr inbounds { i8*, i32 }, { i8*, i32 }* %0, i32 0, i32 1
  store i32 %27, i32* %29, align 8
  br label %bb10

cleanup1:                                         ; preds = %bb18
  %30 = landingpad { i8*, i32 }
          cleanup
  %31 = extractvalue { i8*, i32 } %30, 0
  %32 = extractvalue { i8*, i32 } %30, 1
  %33 = getelementptr inbounds { i8*, i32 }, { i8*, i32 }* %0, i32 0, i32 0
  store i8* %31, i8** %33, align 8
  %34 = getelementptr inbounds { i8*, i32 }, { i8*, i32 }* %0, i32 0, i32 1
  store i32 %32, i32* %34, align 8
  br label %bb9

cleanup2:                                         ; preds = %bb17
  %35 = landingpad { i8*, i32 }
          cleanup
  %36 = extractvalue { i8*, i32 } %35, 0
  %37 = extractvalue { i8*, i32 } %35, 1
  %38 = getelementptr inbounds { i8*, i32 }, { i8*, i32 }* %0, i32 0, i32 0
  store i8* %36, i8** %38, align 8
  %39 = getelementptr inbounds { i8*, i32 }, { i8*, i32 }* %0, i32 0, i32 1
  store i32 %37, i32* %39, align 8
  br label %bb8

cleanup3:                                         ; preds = %bb16
  %40 = landingpad { i8*, i32 }
          cleanup
  %41 = extractvalue { i8*, i32 } %40, 0
  %42 = extractvalue { i8*, i32 } %40, 1
  %43 = getelementptr inbounds { i8*, i32 }, { i8*, i32 }* %0, i32 0, i32 0
  store i8* %41, i8** %43, align 8
  %44 = getelementptr inbounds { i8*, i32 }, { i8*, i32 }* %0, i32 0, i32 1
  store i32 %42, i32* %44, align 8
  br label %bb7

cleanup4:                                         ; preds = %bb15
  %45 = landingpad { i8*, i32 }
          cleanup
  %46 = extractvalue { i8*, i32 } %45, 0
  %47 = extractvalue { i8*, i32 } %45, 1
  %48 = getelementptr inbounds { i8*, i32 }, { i8*, i32 }* %0, i32 0, i32 0
  store i8* %46, i8** %48, align 8
  %49 = getelementptr inbounds { i8*, i32 }, { i8*, i32 }* %0, i32 0, i32 1
  store i32 %47, i32* %49, align 8
  br label %bb6

cleanup5:                                         ; preds = %bb14
  %50 = landingpad { i8*, i32 }
          cleanup
  %51 = extractvalue { i8*, i32 } %50, 0
  %52 = extractvalue { i8*, i32 } %50, 1
  %53 = getelementptr inbounds { i8*, i32 }, { i8*, i32 }* %0, i32 0, i32 0
  store i8* %51, i8** %53, align 8
  %54 = getelementptr inbounds { i8*, i32 }, { i8*, i32 }* %0, i32 0, i32 1
  store i32 %52, i32* %54, align 8
  br label %bb5

cleanup6:                                         ; preds = %bb13
  %55 = landingpad { i8*, i32 }
          cleanup
  %56 = extractvalue { i8*, i32 } %55, 0
  %57 = extractvalue { i8*, i32 } %55, 1
  %58 = getelementptr inbounds { i8*, i32 }, { i8*, i32 }* %0, i32 0, i32 0
  store i8* %56, i8** %58, align 8
  %59 = getelementptr inbounds { i8*, i32 }, { i8*, i32 }* %0, i32 0, i32 1
  store i32 %57, i32* %59, align 8
  br label %bb4

cleanup7:                                         ; preds = %bb12
  %60 = landingpad { i8*, i32 }
          cleanup
  %61 = extractvalue { i8*, i32 } %60, 0
  %62 = extractvalue { i8*, i32 } %60, 1
  %63 = getelementptr inbounds { i8*, i32 }, { i8*, i32 }* %0, i32 0, i32 0
  store i8* %61, i8** %63, align 8
  %64 = getelementptr inbounds { i8*, i32 }, { i8*, i32 }* %0, i32 0, i32 1
  store i32 %62, i32* %64, align 8
  br label %bb3
}

; core::ptr::drop_in_place
; Function Attrs: nonlazybind uwtable
define internal void @_ZN4core3ptr13drop_in_place17h26de53b5c7c7408dE(%"std::io::Error"* mpk_unsafe %_1) unnamed_addr #1 {
start:
  %0 = alloca {}, align 1
  %1 = bitcast %"std::io::Error"* %_1 to %"std::io::error::Repr"*
; call core::ptr::drop_in_place
  call void @_ZN4core3ptr13drop_in_place17hb4c0f7bc5175aadfE(%"std::io::error::Repr"* mpk_unsafe %1)
  br label %bb1

bb1:                                              ; preds = %start
  ret void
}

; core::ptr::drop_in_place
; Function Attrs: nonlazybind uwtable
define internal void @_ZN4core3ptr13drop_in_place17h2e2f2b92ae86869fE([0 x { {}*, [3 x i64]* }]* mpk_unsafe %_1.0, i64 %_1.1) unnamed_addr #1 personality i32 (i32, i32, i64, %"unwind::libunwind::_Unwind_Exception"*, %"unwind::libunwind::_Unwind_Context"*)* @rust_eh_personality {
start:
  %0 = alloca { i8*, i32 }, align 8
  %_10 = alloca { {}*, [3 x i64]* }*, align 8
  %_9 = alloca { {}*, [3 x i64]* }*, align 8
  %_4 = alloca i64, align 8
  %1 = alloca {}, align 1
  br i1 false, label %bb7, label %bb12

bb1:                                              ; preds = %bb6, %bb11
  ret void

bb2:                                              ; preds = %bb4, %bb9
  %2 = bitcast { i8*, i32 }* %0 to i8**
  %3 = load i8*, i8** %2, align 8
  %4 = getelementptr inbounds { i8*, i32 }, { i8*, i32 }* %0, i32 0, i32 1
  %5 = load i32, i32* %4, align 8
  %6 = insertvalue { i8*, i32 } undef, i8* %3, 0
  %7 = insertvalue { i8*, i32 } %6, i32 %5, 1
  resume { i8*, i32 } %7

bb3:                                              ; preds = %bb4
  %8 = load i64, i64* %_4, align 8
  %_5 = getelementptr inbounds [0 x { {}*, [3 x i64]* }], [0 x { {}*, [3 x i64]* }]* %_1.0, i64 0, i64 %8, !MPK-SmartPointer !3
  %9 = load i64, i64* %_4, align 8
  %10 = add i64 %9, 1
  store i64 %10, i64* %_4, align 8
; call core::ptr::drop_in_place
  call void @_ZN4core3ptr13drop_in_place17h8c3f4ebaec6a2ee1E({ {}*, [3 x i64]* }* mpk_unsafe %_5) #14
  br label %bb4

bb4:                                              ; preds = %bb3, %cleanup1
  %11 = load i64, i64* %_4, align 8
  %_6 = icmp eq i64 %11, %_1.1
  br i1 %_6, label %bb2, label %bb3

bb5:                                              ; preds = %bb6
  %12 = load i64, i64* %_4, align 8
  %_7 = getelementptr inbounds [0 x { {}*, [3 x i64]* }], [0 x { {}*, [3 x i64]* }]* %_1.0, i64 0, i64 %12, !MPK-SmartPointer !3
  %13 = load i64, i64* %_4, align 8
  %14 = add i64 %13, 1
  store i64 %14, i64* %_4, align 8
; invoke core::ptr::drop_in_place
  invoke void @_ZN4core3ptr13drop_in_place17h8c3f4ebaec6a2ee1E({ {}*, [3 x i64]* }* mpk_unsafe %_7)
          to label %bb6 unwind label %cleanup1

bb6:                                              ; preds = %bb5, %bb7
  %15 = load i64, i64* %_4, align 8
  %_8 = icmp eq i64 %15, %_1.1
  br i1 %_8, label %bb1, label %bb5

bb7:                                              ; preds = %start
  store i64 0, i64* %_4, align 8
  br label %bb6

bb8:                                              ; preds = %bb9
  %_11 = load { {}*, [3 x i64]* }*, { {}*, [3 x i64]* }** %_9, align 8
  %16 = load { {}*, [3 x i64]* }*, { {}*, [3 x i64]* }** %_9, align 8
  %17 = getelementptr inbounds { {}*, [3 x i64]* }, { {}*, [3 x i64]* }* %16, i64 1
  store { {}*, [3 x i64]* }* %17, { {}*, [3 x i64]* }** %_9, align 8
; call core::ptr::drop_in_place
  call void @_ZN4core3ptr13drop_in_place17h8c3f4ebaec6a2ee1E({ {}*, [3 x i64]* }* mpk_unsafe %_11) #14
  br label %bb9

bb9:                                              ; preds = %bb8, %cleanup
  %18 = load { {}*, [3 x i64]* }*, { {}*, [3 x i64]* }** %_9, align 8
  %19 = load { {}*, [3 x i64]* }*, { {}*, [3 x i64]* }** %_10, align 8
  %_12 = icmp eq { {}*, [3 x i64]* }* %18, %19
  br i1 %_12, label %bb2, label %bb8

bb10:                                             ; preds = %bb11
  %_13 = load { {}*, [3 x i64]* }*, { {}*, [3 x i64]* }** %_9, align 8
  %20 = load { {}*, [3 x i64]* }*, { {}*, [3 x i64]* }** %_9, align 8
  %21 = getelementptr inbounds { {}*, [3 x i64]* }, { {}*, [3 x i64]* }* %20, i64 1
  store { {}*, [3 x i64]* }* %21, { {}*, [3 x i64]* }** %_9, align 8
; invoke core::ptr::drop_in_place
  invoke void @_ZN4core3ptr13drop_in_place17h8c3f4ebaec6a2ee1E({ {}*, [3 x i64]* }* mpk_unsafe %_13)
          to label %bb11 unwind label %cleanup

bb11:                                             ; preds = %bb10, %bb12
  %22 = load { {}*, [3 x i64]* }*, { {}*, [3 x i64]* }** %_9, align 8
  %23 = load { {}*, [3 x i64]* }*, { {}*, [3 x i64]* }** %_10, align 8
  %_14 = icmp eq { {}*, [3 x i64]* }* %22, %23
  br i1 %_14, label %bb1, label %bb10

bb12:                                             ; preds = %start
  %24 = bitcast [0 x { {}*, [3 x i64]* }]* %_1.0 to { {}*, [3 x i64]* }*
  store { {}*, [3 x i64]* }* %24, { {}*, [3 x i64]* }** %_9, align 8
  %25 = load { {}*, [3 x i64]* }*, { {}*, [3 x i64]* }** %_9, align 8
  %26 = getelementptr inbounds { {}*, [3 x i64]* }, { {}*, [3 x i64]* }* %25, i64 %_1.1
  store { {}*, [3 x i64]* }* %26, { {}*, [3 x i64]* }** %_10, align 8
  br label %bb11

cleanup:                                          ; preds = %bb10
  %27 = landingpad { i8*, i32 }
          cleanup
  %28 = extractvalue { i8*, i32 } %27, 0
  %29 = extractvalue { i8*, i32 } %27, 1
  %30 = getelementptr inbounds { i8*, i32 }, { i8*, i32 }* %0, i32 0, i32 0
  store i8* %28, i8** %30, align 8
  %31 = getelementptr inbounds { i8*, i32 }, { i8*, i32 }* %0, i32 0, i32 1
  store i32 %29, i32* %31, align 8
  br label %bb9

cleanup1:                                         ; preds = %bb5
  %32 = landingpad { i8*, i32 }
          cleanup
  %33 = extractvalue { i8*, i32 } %32, 0
  %34 = extractvalue { i8*, i32 } %32, 1
  %35 = getelementptr inbounds { i8*, i32 }, { i8*, i32 }* %0, i32 0, i32 0
  store i8* %33, i8** %35, align 8
  %36 = getelementptr inbounds { i8*, i32 }, { i8*, i32 }* %0, i32 0, i32 1
  store i32 %34, i32* %36, align 8
  br label %bb4
}

; core::ptr::drop_in_place
; Function Attrs: nonlazybind uwtable
define internal void @_ZN4core3ptr13drop_in_place17h32fa2c2880276104E(%"std::io::error::Custom"** mpk_unsafe %_1) unnamed_addr #1 personality i32 (i32, i32, i64, %"unwind::libunwind::_Unwind_Exception"*, %"unwind::libunwind::_Unwind_Context"*)* @rust_eh_personality {
start:
  %0 = alloca { i8*, i32 }, align 8
  %1 = alloca {}, align 1
  %2 = load %"std::io::error::Custom"*, %"std::io::error::Custom"** %_1, align 8, !nonnull !11
; invoke core::ptr::drop_in_place
  invoke void @_ZN4core3ptr13drop_in_place17hea3a2cbe5209647fE(%"std::io::error::Custom"* mpk_unsafe %2)
          to label %bb3 unwind label %cleanup

bb1:                                              ; preds = %bb3
  ret void

bb2:                                              ; preds = %bb4
  %3 = bitcast { i8*, i32 }* %0 to i8**
  %4 = load i8*, i8** %3, align 8
  %5 = getelementptr inbounds { i8*, i32 }, { i8*, i32 }* %0, i32 0, i32 1
  %6 = load i32, i32* %5, align 8
  %7 = insertvalue { i8*, i32 } undef, i8* %4, 0
  %8 = insertvalue { i8*, i32 } %7, i32 %6, 1
  resume { i8*, i32 } %8

bb3:                                              ; preds = %start
  %9 = bitcast %"std::io::error::Custom"** %_1 to i64**
  %10 = load i64*, i64** %9, align 8, !nonnull !11
; call alloc::alloc::box_free
  call void @_ZN5alloc5alloc8box_free17h4455a2f220e81425E(i64* mpk_immut mpk_unsafe nonnull %10)
  br label %bb1

bb4:                                              ; preds = %cleanup
  %11 = bitcast %"std::io::error::Custom"** %_1 to i64**
  %12 = load i64*, i64** %11, align 8, !nonnull !11
; call alloc::alloc::box_free
  call void @_ZN5alloc5alloc8box_free17h4455a2f220e81425E(i64* mpk_immut mpk_unsafe nonnull %12) #14
  br label %bb2

cleanup:                                          ; preds = %start
  %13 = landingpad { i8*, i32 }
          cleanup
  %14 = extractvalue { i8*, i32 } %13, 0
  %15 = extractvalue { i8*, i32 } %13, 1
  %16 = getelementptr inbounds { i8*, i32 }, { i8*, i32 }* %0, i32 0, i32 0
  store i8* %14, i8** %16, align 8
  %17 = getelementptr inbounds { i8*, i32 }, { i8*, i32 }* %0, i32 0, i32 1
  store i32 %15, i32* %17, align 8
  br label %bb4
}

; core::ptr::drop_in_place
; Function Attrs: nonlazybind uwtable
define internal void @_ZN4core3ptr13drop_in_place17h36ecb83222f60ff1E(%"std::process::Command"* mpk_unsafe %_1) unnamed_addr #1 {
start:
  %0 = alloca {}, align 1
  %1 = bitcast %"std::process::Command"* %_1 to %"std::sys::unix::process::process_common::Command"*, !MPK-SmartPointer !3
; call core::ptr::drop_in_place
  call void @_ZN4core3ptr13drop_in_place17h1d020f0f820367deE(%"std::sys::unix::process::process_common::Command"* mpk_unsafe %1)
  br label %bb1

bb1:                                              ; preds = %start
  ret void
}

; core::ptr::drop_in_place
; Function Attrs: nonlazybind uwtable
define internal void @_ZN4core3ptr13drop_in_place17h3fa3e3c7da331285E([0 x { i8*, i64 }]* mpk_unsafe %_1.0, i64 %_1.1) unnamed_addr #1 personality i32 (i32, i32, i64, %"unwind::libunwind::_Unwind_Exception"*, %"unwind::libunwind::_Unwind_Context"*)* @rust_eh_personality {
start:
  %0 = alloca { i8*, i32 }, align 8
  %_10 = alloca { i8*, i64 }*, align 8
  %_9 = alloca { i8*, i64 }*, align 8
  %_4 = alloca i64, align 8
  %1 = alloca {}, align 1
  br i1 false, label %bb7, label %bb12

bb1:                                              ; preds = %bb6, %bb11
  ret void

bb2:                                              ; preds = %bb4, %bb9
  %2 = bitcast { i8*, i32 }* %0 to i8**
  %3 = load i8*, i8** %2, align 8
  %4 = getelementptr inbounds { i8*, i32 }, { i8*, i32 }* %0, i32 0, i32 1
  %5 = load i32, i32* %4, align 8
  %6 = insertvalue { i8*, i32 } undef, i8* %3, 0
  %7 = insertvalue { i8*, i32 } %6, i32 %5, 1
  resume { i8*, i32 } %7

bb3:                                              ; preds = %bb4
  %8 = load i64, i64* %_4, align 8
  %_5 = getelementptr inbounds [0 x { i8*, i64 }], [0 x { i8*, i64 }]* %_1.0, i64 0, i64 %8, !MPK-SmartPointer !3
  %9 = load i64, i64* %_4, align 8
  %10 = add i64 %9, 1
  store i64 %10, i64* %_4, align 8
; call core::ptr::drop_in_place
  call void @_ZN4core3ptr13drop_in_place17hf3ed581a016a95f4E({ i8*, i64 }* mpk_unsafe %_5) #14
  br label %bb4

bb4:                                              ; preds = %bb3, %cleanup1
  %11 = load i64, i64* %_4, align 8
  %_6 = icmp eq i64 %11, %_1.1
  br i1 %_6, label %bb2, label %bb3

bb5:                                              ; preds = %bb6
  %12 = load i64, i64* %_4, align 8
  %_7 = getelementptr inbounds [0 x { i8*, i64 }], [0 x { i8*, i64 }]* %_1.0, i64 0, i64 %12, !MPK-SmartPointer !3
  %13 = load i64, i64* %_4, align 8
  %14 = add i64 %13, 1
  store i64 %14, i64* %_4, align 8
; invoke core::ptr::drop_in_place
  invoke void @_ZN4core3ptr13drop_in_place17hf3ed581a016a95f4E({ i8*, i64 }* mpk_unsafe %_7)
          to label %bb6 unwind label %cleanup1

bb6:                                              ; preds = %bb5, %bb7
  %15 = load i64, i64* %_4, align 8
  %_8 = icmp eq i64 %15, %_1.1
  br i1 %_8, label %bb1, label %bb5

bb7:                                              ; preds = %start
  store i64 0, i64* %_4, align 8
  br label %bb6

bb8:                                              ; preds = %bb9
  %_11 = load { i8*, i64 }*, { i8*, i64 }** %_9, align 8
  %16 = load { i8*, i64 }*, { i8*, i64 }** %_9, align 8
  %17 = getelementptr inbounds { i8*, i64 }, { i8*, i64 }* %16, i64 1
  store { i8*, i64 }* %17, { i8*, i64 }** %_9, align 8
; call core::ptr::drop_in_place
  call void @_ZN4core3ptr13drop_in_place17hf3ed581a016a95f4E({ i8*, i64 }* mpk_unsafe %_11) #14
  br label %bb9

bb9:                                              ; preds = %bb8, %cleanup
  %18 = load { i8*, i64 }*, { i8*, i64 }** %_9, align 8
  %19 = load { i8*, i64 }*, { i8*, i64 }** %_10, align 8
  %_12 = icmp eq { i8*, i64 }* %18, %19
  br i1 %_12, label %bb2, label %bb8

bb10:                                             ; preds = %bb11
  %_13 = load { i8*, i64 }*, { i8*, i64 }** %_9, align 8
  %20 = load { i8*, i64 }*, { i8*, i64 }** %_9, align 8
  %21 = getelementptr inbounds { i8*, i64 }, { i8*, i64 }* %20, i64 1
  store { i8*, i64 }* %21, { i8*, i64 }** %_9, align 8
; invoke core::ptr::drop_in_place
  invoke void @_ZN4core3ptr13drop_in_place17hf3ed581a016a95f4E({ i8*, i64 }* mpk_unsafe %_13)
          to label %bb11 unwind label %cleanup

bb11:                                             ; preds = %bb10, %bb12
  %22 = load { i8*, i64 }*, { i8*, i64 }** %_9, align 8
  %23 = load { i8*, i64 }*, { i8*, i64 }** %_10, align 8
  %_14 = icmp eq { i8*, i64 }* %22, %23
  br i1 %_14, label %bb1, label %bb10

bb12:                                             ; preds = %start
  %24 = bitcast [0 x { i8*, i64 }]* %_1.0 to { i8*, i64 }*
  store { i8*, i64 }* %24, { i8*, i64 }** %_9, align 8
  %25 = load { i8*, i64 }*, { i8*, i64 }** %_9, align 8
  %26 = getelementptr inbounds { i8*, i64 }, { i8*, i64 }* %25, i64 %_1.1
  store { i8*, i64 }* %26, { i8*, i64 }** %_10, align 8
  br label %bb11

cleanup:                                          ; preds = %bb10
  %27 = landingpad { i8*, i32 }
          cleanup
  %28 = extractvalue { i8*, i32 } %27, 0
  %29 = extractvalue { i8*, i32 } %27, 1
  %30 = getelementptr inbounds { i8*, i32 }, { i8*, i32 }* %0, i32 0, i32 0
  store i8* %28, i8** %30, align 8
  %31 = getelementptr inbounds { i8*, i32 }, { i8*, i32 }* %0, i32 0, i32 1
  store i32 %29, i32* %31, align 8
  br label %bb9

cleanup1:                                         ; preds = %bb5
  %32 = landingpad { i8*, i32 }
          cleanup
  %33 = extractvalue { i8*, i32 } %32, 0
  %34 = extractvalue { i8*, i32 } %32, 1
  %35 = getelementptr inbounds { i8*, i32 }, { i8*, i32 }* %0, i32 0, i32 0
  store i8* %33, i8** %35, align 8
  %36 = getelementptr inbounds { i8*, i32 }, { i8*, i32 }* %0, i32 0, i32 1
  store i32 %34, i32* %36, align 8
  br label %bb4
}

; core::ptr::drop_in_place
; Function Attrs: nonlazybind uwtable
define internal void @_ZN4core3ptr13drop_in_place17h3fdd954428b77804E({ [0 x i8]*, i64 }* mpk_unsafe %_1) unnamed_addr #1 {
start:
  %0 = alloca {}, align 1
  ret void
}

; core::ptr::drop_in_place
; Function Attrs: nonlazybind uwtable
define internal void @_ZN4core3ptr13drop_in_place17h44c2f6fcf054ebfcE({ i8*, i64 }* mpk_unsafe %_1) unnamed_addr #1 {
start:
  %0 = alloca {}, align 1
  %1 = bitcast { i8*, i64 }* %_1 to {}**
  %2 = load {}*, {}** %1, align 8
  %3 = icmp eq {}* %2, null
  %_2 = select i1 %3, i64 0, i64 1
  %4 = icmp eq i64 %_2, 0
  br i1 %4, label %bb1, label %bb2

bb1:                                              ; preds = %bb2, %start
  ret void

bb2:                                              ; preds = %start
; call core::ptr::drop_in_place
  call void @_ZN4core3ptr13drop_in_place17hf3ed581a016a95f4E({ i8*, i64 }* mpk_unsafe %_1)
  br label %bb1
}

; core::ptr::drop_in_place
; Function Attrs: nonlazybind uwtable
define internal void @_ZN4core3ptr13drop_in_place17h479b92c3af0671e7E({ i8*, i64 }* mpk_unsafe %_1) unnamed_addr #1 {
start:
  %0 = alloca {}, align 1
; call <alloc::raw_vec::RawVec<T,A> as core::ops::drop::Drop>::drop
  call void @"_ZN77_$LT$alloc..raw_vec..RawVec$LT$T$C$A$GT$$u20$as$u20$core..ops..drop..Drop$GT$4drop17hce5a047a21cd9753E"({ i8*, i64 }* align 8 dereferenceable(16) %_1)
  br label %bb1

bb1:                                              ; preds = %start
  ret void
}

; core::ptr::drop_in_place
; Function Attrs: nonlazybind uwtable
define internal void @_ZN4core3ptr13drop_in_place17h49c15d43aee983b9E(%"std::ffi::OsString"* mpk_unsafe %_1) unnamed_addr #1 {
start:
  %0 = alloca {}, align 1
  %1 = bitcast %"std::ffi::OsString"* %_1 to %"std::sys_common::os_str_bytes::Buf"*, !MPK-SmartPointer !3
; call core::ptr::drop_in_place
  call void @_ZN4core3ptr13drop_in_place17h827fa1cad6141adeE(%"std::sys_common::os_str_bytes::Buf"* mpk_unsafe %1)
  br label %bb1

bb1:                                              ; preds = %start
  ret void
}

; core::ptr::drop_in_place
; Function Attrs: nonlazybind uwtable
define internal void @_ZN4core3ptr13drop_in_place17h4ad6c62a92b0352aE({ [0 x i8]*, i64 }* mpk_unsafe %_1) unnamed_addr #1 personality i32 (i32, i32, i64, %"unwind::libunwind::_Unwind_Exception"*, %"unwind::libunwind::_Unwind_Context"*)* @rust_eh_personality {
start:
  %0 = alloca { i8*, i32 }, align 8
  %1 = alloca {}, align 1
  br label %bb3

bb1:                                              ; preds = %bb3
  ret void

bb2:                                              ; preds = %bb4
  %2 = bitcast { i8*, i32 }* %0 to i8**
  %3 = load i8*, i8** %2, align 8
  %4 = getelementptr inbounds { i8*, i32 }, { i8*, i32 }* %0, i32 0, i32 1
  %5 = load i32, i32* %4, align 8
  %6 = insertvalue { i8*, i32 } undef, i8* %3, 0
  %7 = insertvalue { i8*, i32 } %6, i32 %5, 1
  resume { i8*, i32 } %7

bb3:                                              ; preds = %start
  %8 = bitcast { [0 x i8]*, i64 }* %_1 to { i8*, i64 }*, !MPK-SmartPointer !3
  %9 = getelementptr inbounds { i8*, i64 }, { i8*, i64 }* %8, i32 0, i32 0
  %10 = load i8*, i8** %9, align 8, !nonnull !11
  %11 = getelementptr inbounds { i8*, i64 }, { i8*, i64 }* %8, i32 0, i32 1
  %12 = load i64, i64* %11, align 8
; call alloc::alloc::box_free
  call void @_ZN5alloc5alloc8box_free17he22ada79ae88b798E(i8* mpk_immut mpk_unsafe nonnull %10, i64 %12)
  br label %bb1

bb4:                                              ; No predecessors!
  %13 = bitcast { [0 x i8]*, i64 }* %_1 to { i8*, i64 }*, !MPK-SmartPointer !3
  %14 = getelementptr inbounds { i8*, i64 }, { i8*, i64 }* %13, i32 0, i32 0
  %15 = load i8*, i8** %14, align 8, !nonnull !11
  %16 = getelementptr inbounds { i8*, i64 }, { i8*, i64 }* %13, i32 0, i32 1
  %17 = load i64, i64* %16, align 8
; call alloc::alloc::box_free
  call void @_ZN5alloc5alloc8box_free17he22ada79ae88b798E(i8* mpk_immut mpk_unsafe nonnull %15, i64 %17) #14
  br label %bb2
}

; core::ptr::drop_in_place
; Function Attrs: nonlazybind uwtable
define internal void @_ZN4core3ptr13drop_in_place17h4dbdd84b5e785a0dE(%"std::vec::Vec<std::ffi::CString>"* mpk_unsafe %_1) unnamed_addr #1 personality i32 (i32, i32, i64, %"unwind::libunwind::_Unwind_Exception"*, %"unwind::libunwind::_Unwind_Context"*)* @rust_eh_personality {
start:
  %0 = alloca { i8*, i32 }, align 8
  %1 = alloca {}, align 1
; invoke <alloc::vec::Vec<T> as core::ops::drop::Drop>::drop
  invoke void @"_ZN66_$LT$alloc..vec..Vec$LT$T$GT$$u20$as$u20$core..ops..drop..Drop$GT$4drop17hff8afa11dd02e002E"(%"std::vec::Vec<std::ffi::CString>"* align 8 dereferenceable(24) %_1)
          to label %bb4 unwind label %cleanup

bb1:                                              ; preds = %bb3
  %2 = bitcast { i8*, i32 }* %0 to i8**
  %3 = load i8*, i8** %2, align 8
  %4 = getelementptr inbounds { i8*, i32 }, { i8*, i32 }* %0, i32 0, i32 1
  %5 = load i32, i32* %4, align 8
  %6 = insertvalue { i8*, i32 } undef, i8* %3, 0
  %7 = insertvalue { i8*, i32 } %6, i32 %5, 1
  resume { i8*, i32 } %7

bb2:                                              ; preds = %bb4
  ret void

bb3:                                              ; preds = %cleanup
  %8 = bitcast %"std::vec::Vec<std::ffi::CString>"* %_1 to { i64*, i64 }*, !MPK-SmartPointer !3
; call core::ptr::drop_in_place
  call void @_ZN4core3ptr13drop_in_place17h1c04a91a46ba443aE({ i64*, i64 }* mpk_unsafe %8) #14
  br label %bb1

bb4:                                              ; preds = %start
  %9 = bitcast %"std::vec::Vec<std::ffi::CString>"* %_1 to { i64*, i64 }*, !MPK-SmartPointer !3
; call core::ptr::drop_in_place
  call void @_ZN4core3ptr13drop_in_place17h1c04a91a46ba443aE({ i64*, i64 }* mpk_unsafe %9)
  br label %bb2

cleanup:                                          ; preds = %start
  %10 = landingpad { i8*, i32 }
          cleanup
  %11 = extractvalue { i8*, i32 } %10, 0
  %12 = extractvalue { i8*, i32 } %10, 1
  %13 = getelementptr inbounds { i8*, i32 }, { i8*, i32 }* %0, i32 0, i32 0
  store i8* %11, i8** %13, align 8
  %14 = getelementptr inbounds { i8*, i32 }, { i8*, i32 }* %0, i32 0, i32 1
  store i32 %12, i32* %14, align 8
  br label %bb3
}

; core::ptr::drop_in_place
; Function Attrs: nonlazybind uwtable
define internal void @_ZN4core3ptr13drop_in_place17h51be0da9827be877E(%"std::option::Option<std::process::Output>"* mpk_unsafe %_1) unnamed_addr #1 {
start:
  %0 = alloca {}, align 1
  %1 = bitcast %"std::option::Option<std::process::Output>"* %_1 to {}**
  %2 = load {}*, {}** %1, align 8
  %3 = icmp eq {}* %2, null
  %_2 = select i1 %3, i64 0, i64 1
  %4 = icmp eq i64 %_2, 0
  br i1 %4, label %bb1, label %bb2

bb1:                                              ; preds = %bb2, %start
  ret void

bb2:                                              ; preds = %start
  %5 = bitcast %"std::option::Option<std::process::Output>"* %_1 to %"std::option::Option<std::process::Output>::Some"*, !MPK-SmartPointer !3
  %6 = bitcast %"std::option::Option<std::process::Output>::Some"* %5 to %"std::process::Output"*, !MPK-SmartPointer !3
; call core::ptr::drop_in_place
  call void @_ZN4core3ptr13drop_in_place17ha20829f1fc27472eE(%"std::process::Output"* mpk_unsafe %6)
  br label %bb1
}

; core::ptr::drop_in_place
; Function Attrs: nonlazybind uwtable
define internal void @_ZN4core3ptr13drop_in_place17h5212006b1c28ee73E(i64** mpk_unsafe %_1) unnamed_addr #1 {
start:
  %0 = alloca {}, align 1
; call <<alloc::collections::btree::map::IntoIter<K,V> as core::ops::drop::Drop>::drop::DropGuard<K,V> as core::ops::drop::Drop>::drop
  call void @"_ZN166_$LT$$LT$alloc..collections..btree..map..IntoIter$LT$K$C$V$GT$$u20$as$u20$core..ops..drop..Drop$GT$..drop..DropGuard$LT$K$C$V$GT$$u20$as$u20$core..ops..drop..Drop$GT$4drop17h0988e0d5cbda9ad4E"(i64** align 8 dereferenceable(8) %_1)
  br label %bb1

bb1:                                              ; preds = %start
  ret void
}

; core::ptr::drop_in_place
; Function Attrs: nonlazybind uwtable
define internal void @_ZN4core3ptr13drop_in_place17h5431fb575a1b2b7eE({ [0 x i64], %"std::ffi::OsString", [0 x i64], %"std::option::Option<std::ffi::OsString>", [0 x i64] }* mpk_unsafe %_1) unnamed_addr #1 personality i32 (i32, i32, i64, %"unwind::libunwind::_Unwind_Exception"*, %"unwind::libunwind::_Unwind_Context"*)* @rust_eh_personality {
start:
  %0 = alloca { i8*, i32 }, align 8
  %1 = alloca {}, align 1
  %2 = bitcast { [0 x i64], %"std::ffi::OsString", [0 x i64], %"std::option::Option<std::ffi::OsString>", [0 x i64] }* %_1 to %"std::ffi::OsString"*, !MPK-SmartPointer !3
; invoke core::ptr::drop_in_place
  invoke void @_ZN4core3ptr13drop_in_place17h49c15d43aee983b9E(%"std::ffi::OsString"* mpk_unsafe %2)
          to label %bb4 unwind label %cleanup

bb1:                                              ; preds = %bb3
  %3 = bitcast { i8*, i32 }* %0 to i8**
  %4 = load i8*, i8** %3, align 8
  %5 = getelementptr inbounds { i8*, i32 }, { i8*, i32 }* %0, i32 0, i32 1
  %6 = load i32, i32* %5, align 8
  %7 = insertvalue { i8*, i32 } undef, i8* %4, 0
  %8 = insertvalue { i8*, i32 } %7, i32 %6, 1
  resume { i8*, i32 } %8

bb2:                                              ; preds = %bb4
  ret void

bb3:                                              ; preds = %cleanup
  %9 = getelementptr inbounds { [0 x i64], %"std::ffi::OsString", [0 x i64], %"std::option::Option<std::ffi::OsString>", [0 x i64] }, { [0 x i64], %"std::ffi::OsString", [0 x i64], %"std::option::Option<std::ffi::OsString>", [0 x i64] }* %_1, i32 0, i32 3
; call core::ptr::drop_in_place
  call void @_ZN4core3ptr13drop_in_place17hb0f6c901d3550874E(%"std::option::Option<std::ffi::OsString>"* mpk_unsafe %9) #14
  br label %bb1

bb4:                                              ; preds = %start
  %10 = getelementptr inbounds { [0 x i64], %"std::ffi::OsString", [0 x i64], %"std::option::Option<std::ffi::OsString>", [0 x i64] }, { [0 x i64], %"std::ffi::OsString", [0 x i64], %"std::option::Option<std::ffi::OsString>", [0 x i64] }* %_1, i32 0, i32 3
; call core::ptr::drop_in_place
  call void @_ZN4core3ptr13drop_in_place17hb0f6c901d3550874E(%"std::option::Option<std::ffi::OsString>"* mpk_unsafe %10)
  br label %bb2

cleanup:                                          ; preds = %start
  %11 = landingpad { i8*, i32 }
          cleanup
  %12 = extractvalue { i8*, i32 } %11, 0
  %13 = extractvalue { i8*, i32 } %11, 1
  %14 = getelementptr inbounds { i8*, i32 }, { i8*, i32 }* %0, i32 0, i32 0
  store i8* %12, i8** %14, align 8
  %15 = getelementptr inbounds { i8*, i32 }, { i8*, i32 }* %0, i32 0, i32 1
  store i32 %13, i32* %15, align 8
  br label %bb3
}

; core::ptr::drop_in_place
; Function Attrs: nonlazybind uwtable
define internal void @_ZN4core3ptr13drop_in_place17h57d158dc9267f3f5E({ i64*, i64 }* mpk_unsafe %_1) unnamed_addr #1 {
start:
  %0 = alloca {}, align 1
; call <alloc::raw_vec::RawVec<T,A> as core::ops::drop::Drop>::drop
  call void @"_ZN77_$LT$alloc..raw_vec..RawVec$LT$T$C$A$GT$$u20$as$u20$core..ops..drop..Drop$GT$4drop17h26318d665f610598E"({ i64*, i64 }* align 8 dereferenceable(16) %_1)
  br label %bb1

bb1:                                              ; preds = %start
  ret void
}

; core::ptr::drop_in_place
; Function Attrs: nonlazybind uwtable
define internal void @_ZN4core3ptr13drop_in_place17h57db1d16fc703566E(%"std::result::Result<std::process::Output, std::io::Error>"* mpk_unsafe %_1) unnamed_addr #1 {
start:
  %0 = alloca {}, align 1
  %1 = bitcast %"std::result::Result<std::process::Output, std::io::Error>"* %_1 to i64*
  %_2 = load i64, i64* %1, align 8, !range !22
  %2 = icmp eq i64 %_2, 0
  br i1 %2, label %bb2, label %bb3

bb1:                                              ; preds = %bb2, %bb3
  ret void

bb2:                                              ; preds = %start
  %3 = bitcast %"std::result::Result<std::process::Output, std::io::Error>"* %_1 to %"std::result::Result<std::process::Output, std::io::Error>::Ok"*
  %4 = getelementptr inbounds %"std::result::Result<std::process::Output, std::io::Error>::Ok", %"std::result::Result<std::process::Output, std::io::Error>::Ok"* %3, i32 0, i32 1, !MPK-SmartPointer !3
; call core::ptr::drop_in_place
  call void @_ZN4core3ptr13drop_in_place17ha20829f1fc27472eE(%"std::process::Output"* mpk_unsafe %4)
  br label %bb1

bb3:                                              ; preds = %start
  %5 = bitcast %"std::result::Result<std::process::Output, std::io::Error>"* %_1 to %"std::result::Result<std::process::Output, std::io::Error>::Err"*
  %6 = getelementptr inbounds %"std::result::Result<std::process::Output, std::io::Error>::Err", %"std::result::Result<std::process::Output, std::io::Error>::Err"* %5, i32 0, i32 1
; call core::ptr::drop_in_place
  call void @_ZN4core3ptr13drop_in_place17h26de53b5c7c7408dE(%"std::io::Error"* mpk_unsafe %6)
  br label %bb1
}

; core::ptr::drop_in_place
; Function Attrs: nonlazybind uwtable
define internal void @_ZN4core3ptr13drop_in_place17h5ab18b5d7132d8deE(%"std::result::Result<std::string::String, std::env::VarError>"* mpk_unsafe %_1) unnamed_addr #1 {
start:
  %0 = alloca {}, align 1
  %1 = bitcast %"std::result::Result<std::string::String, std::env::VarError>"* %_1 to i64*
  %_2 = load i64, i64* %1, align 8, !range !22
  %2 = icmp eq i64 %_2, 0
  br i1 %2, label %bb2, label %bb3

bb1:                                              ; preds = %bb2, %bb3
  ret void

bb2:                                              ; preds = %start
  %3 = bitcast %"std::result::Result<std::string::String, std::env::VarError>"* %_1 to %"std::result::Result<std::string::String, std::env::VarError>::Ok"*
  %4 = getelementptr inbounds %"std::result::Result<std::string::String, std::env::VarError>::Ok", %"std::result::Result<std::string::String, std::env::VarError>::Ok"* %3, i32 0, i32 1, !MPK-SmartPointer !3
; call core::ptr::drop_in_place
  call void @_ZN4core3ptr13drop_in_place17hfe01a2209d12e44fE(%"std::string::String"* mpk_unsafe %4)
  br label %bb1

bb3:                                              ; preds = %start
  %5 = bitcast %"std::result::Result<std::string::String, std::env::VarError>"* %_1 to %"std::result::Result<std::string::String, std::env::VarError>::Err"*
  %6 = getelementptr inbounds %"std::result::Result<std::string::String, std::env::VarError>::Err", %"std::result::Result<std::string::String, std::env::VarError>::Err"* %5, i32 0, i32 1
; call core::ptr::drop_in_place
  call void @_ZN4core3ptr13drop_in_place17h6b6f8efc5b8c5f97E(%"std::env::VarError"* mpk_unsafe %6)
  br label %bb1
}

; core::ptr::drop_in_place
; Function Attrs: nonlazybind uwtable
define internal void @_ZN4core3ptr13drop_in_place17h69c80585bdf43786E(%"alloc::collections::btree::mem::replace::PanicGuard"* mpk_unsafe %_1) unnamed_addr #1 {
start:
  %0 = alloca {}, align 1
; call <alloc::collections::btree::mem::replace::PanicGuard as core::ops::drop::Drop>::drop
  call void @"_ZN93_$LT$alloc..collections..btree..mem..replace..PanicGuard$u20$as$u20$core..ops..drop..Drop$GT$4drop17h198c1cd303f9370fE"(%"alloc::collections::btree::mem::replace::PanicGuard"* nonnull align 1 %_1)
  br label %bb1

bb1:                                              ; preds = %start
  ret void
}

; core::ptr::drop_in_place
; Function Attrs: nonlazybind uwtable
define internal void @_ZN4core3ptr13drop_in_place17h6b6f8efc5b8c5f97E(%"std::env::VarError"* mpk_unsafe %_1) unnamed_addr #1 {
start:
  %0 = alloca {}, align 1
  %1 = bitcast %"std::env::VarError"* %_1 to {}**
  %2 = load {}*, {}** %1, align 8
  %3 = icmp eq {}* %2, null
  %_2 = select i1 %3, i64 0, i64 1
  %4 = icmp eq i64 %_2, 0
  br i1 %4, label %bb1, label %bb2

bb1:                                              ; preds = %bb2, %start
  ret void

bb2:                                              ; preds = %start
  %5 = bitcast %"std::env::VarError"* %_1 to %"std::env::VarError::NotUnicode"*, !MPK-SmartPointer !3
  %6 = bitcast %"std::env::VarError::NotUnicode"* %5 to %"std::ffi::OsString"*, !MPK-SmartPointer !3
; call core::ptr::drop_in_place
  call void @_ZN4core3ptr13drop_in_place17h49c15d43aee983b9E(%"std::ffi::OsString"* mpk_unsafe %6)
  br label %bb1
}

; core::ptr::drop_in_place
; Function Attrs: nonlazybind uwtable
define internal void @_ZN4core3ptr13drop_in_place17h6dcb5b07ab431932E({ i64*, i64 }* mpk_unsafe %_1) unnamed_addr #1 {
start:
  %0 = alloca {}, align 1
; call <alloc::raw_vec::RawVec<T,A> as core::ops::drop::Drop>::drop
  call void @"_ZN77_$LT$alloc..raw_vec..RawVec$LT$T$C$A$GT$$u20$as$u20$core..ops..drop..Drop$GT$4drop17h9318fa4bea3d6f12E"({ i64*, i64 }* align 8 dereferenceable(16) %_1)
  br label %bb1

bb1:                                              ; preds = %start
  ret void
}

; core::ptr::drop_in_place
; Function Attrs: nonlazybind uwtable
define internal void @_ZN4core3ptr13drop_in_place17h73d04c2fb784f501E(i32* mpk_unsafe %_1) unnamed_addr #1 {
start:
  %0 = alloca {}, align 1
; call <std::sys::unix::fd::FileDesc as core::ops::drop::Drop>::drop
  call void @"_ZN70_$LT$std..sys..unix..fd..FileDesc$u20$as$u20$core..ops..drop..Drop$GT$4drop17hdec7a096768d2599E"(i32* align 4 dereferenceable(4) %_1)
  br label %bb1

bb1:                                              ; preds = %start
  ret void
}

; core::ptr::drop_in_place
; Function Attrs: nonlazybind uwtable
define internal void @_ZN4core3ptr13drop_in_place17h7d1ede6c737d7b35E(%"std::result::Result<std::string::String, std::string::FromUtf8Error>"* mpk_unsafe %_1) unnamed_addr #1 {
start:
  %0 = alloca {}, align 1
  %1 = bitcast %"std::result::Result<std::string::String, std::string::FromUtf8Error>"* %_1 to i64*
  %_2 = load i64, i64* %1, align 8, !range !22
  %2 = icmp eq i64 %_2, 0
  br i1 %2, label %bb2, label %bb3

bb1:                                              ; preds = %bb2, %bb3
  ret void

bb2:                                              ; preds = %start
  %3 = bitcast %"std::result::Result<std::string::String, std::string::FromUtf8Error>"* %_1 to %"std::result::Result<std::string::String, std::string::FromUtf8Error>::Ok"*
  %4 = getelementptr inbounds %"std::result::Result<std::string::String, std::string::FromUtf8Error>::Ok", %"std::result::Result<std::string::String, std::string::FromUtf8Error>::Ok"* %3, i32 0, i32 1, !MPK-SmartPointer !3
; call core::ptr::drop_in_place
  call void @_ZN4core3ptr13drop_in_place17hfe01a2209d12e44fE(%"std::string::String"* mpk_unsafe %4)
  br label %bb1

bb3:                                              ; preds = %start
  %5 = bitcast %"std::result::Result<std::string::String, std::string::FromUtf8Error>"* %_1 to %"std::result::Result<std::string::String, std::string::FromUtf8Error>::Err"*
  %6 = getelementptr inbounds %"std::result::Result<std::string::String, std::string::FromUtf8Error>::Err", %"std::result::Result<std::string::String, std::string::FromUtf8Error>::Err"* %5, i32 0, i32 1, !MPK-SmartPointer !3
; call core::ptr::drop_in_place
  call void @_ZN4core3ptr13drop_in_place17h15044d78c9130bbcE(%"std::string::FromUtf8Error"* mpk_unsafe %6)
  br label %bb1
}

; core::ptr::drop_in_place
; Function Attrs: nonlazybind uwtable
define internal void @_ZN4core3ptr13drop_in_place17h821ccf0581b71f8cE({}* mpk_unsafe %_1.0, [3 x i64]* mpk_immut noalias readonly align 8 dereferenceable(24) %_1.1) unnamed_addr #1 {
start:
  %0 = alloca {}, align 1
  %1 = bitcast [3 x i64]* %_1.1 to void ({}*)**
  %2 = getelementptr inbounds void ({}*)*, void ({}*)** %1, i64 0
  %3 = load void ({}*)*, void ({}*)** %2, align 8, !invariant.load !11, !nonnull !11
  call void %3({}* mpk_unsafe %_1.0)
  br label %bb1

bb1:                                              ; preds = %start
  ret void
}

; core::ptr::drop_in_place
; Function Attrs: nonlazybind uwtable
define internal void @_ZN4core3ptr13drop_in_place17h827fa1cad6141adeE(%"std::sys_common::os_str_bytes::Buf"* mpk_unsafe %_1) unnamed_addr #1 {
start:
  %0 = alloca {}, align 1
  %1 = bitcast %"std::sys_common::os_str_bytes::Buf"* %_1 to %"std::vec::Vec<u8>"*, !MPK-SmartPointer !3
; call core::ptr::drop_in_place
  call void @_ZN4core3ptr13drop_in_place17h0592225f2e5a8517E(%"std::vec::Vec<u8>"* mpk_unsafe %1)
  br label %bb1

bb1:                                              ; preds = %start
  ret void
}

; core::ptr::drop_in_place
; Function Attrs: nonlazybind uwtable
define internal void @_ZN4core3ptr13drop_in_place17h8c3f4ebaec6a2ee1E({ {}*, [3 x i64]* }* mpk_unsafe %_1) unnamed_addr #1 personality i32 (i32, i32, i64, %"unwind::libunwind::_Unwind_Exception"*, %"unwind::libunwind::_Unwind_Context"*)* @rust_eh_personality {
start:
  %0 = alloca { i8*, i32 }, align 8
  %1 = alloca {}, align 1
  %2 = getelementptr inbounds { {}*, [3 x i64]* }, { {}*, [3 x i64]* }* %_1, i32 0, i32 0
  %3 = load {}*, {}** %2, align 8, !nonnull !11
  %4 = getelementptr inbounds { {}*, [3 x i64]* }, { {}*, [3 x i64]* }* %_1, i32 0, i32 1
  %5 = load [3 x i64]*, [3 x i64]** %4, align 8, !nonnull !11
  %6 = bitcast [3 x i64]* %5 to void ({}*)**
  %7 = getelementptr inbounds void ({}*)*, void ({}*)** %6, i64 0
  %8 = load void ({}*)*, void ({}*)** %7, align 8, !invariant.load !11, !nonnull !11
  invoke void %8({}* mpk_unsafe %3)
          to label %bb3 unwind label %cleanup

bb1:                                              ; preds = %bb3
  ret void

bb2:                                              ; preds = %bb4
  %9 = bitcast { i8*, i32 }* %0 to i8**
  %10 = load i8*, i8** %9, align 8
  %11 = getelementptr inbounds { i8*, i32 }, { i8*, i32 }* %0, i32 0, i32 1
  %12 = load i32, i32* %11, align 8
  %13 = insertvalue { i8*, i32 } undef, i8* %10, 0
  %14 = insertvalue { i8*, i32 } %13, i32 %12, 1
  resume { i8*, i32 } %14

bb3:                                              ; preds = %start
  %15 = bitcast { {}*, [3 x i64]* }* %_1 to { i8*, i64* }*
  %16 = getelementptr inbounds { i8*, i64* }, { i8*, i64* }* %15, i32 0, i32 0
  %17 = load i8*, i8** %16, align 8, !nonnull !11
  %18 = getelementptr inbounds { i8*, i64* }, { i8*, i64* }* %15, i32 0, i32 1
  %19 = load i64*, i64** %18, align 8, !nonnull !11
; call alloc::alloc::box_free
  call void @_ZN5alloc5alloc8box_free17h9a908ac3ace5b65eE(i8* mpk_immut mpk_unsafe nonnull %17, i64* mpk_immut noalias readonly align 8 dereferenceable(24) %19)
  br label %bb1

bb4:                                              ; preds = %cleanup
  %20 = bitcast { {}*, [3 x i64]* }* %_1 to { i8*, i64* }*
  %21 = getelementptr inbounds { i8*, i64* }, { i8*, i64* }* %20, i32 0, i32 0
  %22 = load i8*, i8** %21, align 8, !nonnull !11
  %23 = getelementptr inbounds { i8*, i64* }, { i8*, i64* }* %20, i32 0, i32 1
  %24 = load i64*, i64** %23, align 8, !nonnull !11
; call alloc::alloc::box_free
  call void @_ZN5alloc5alloc8box_free17h9a908ac3ace5b65eE(i8* mpk_immut mpk_unsafe nonnull %22, i64* mpk_immut noalias readonly align 8 dereferenceable(24) %24) #14
  br label %bb2

cleanup:                                          ; preds = %start
  %25 = landingpad { i8*, i32 }
          cleanup
  %26 = extractvalue { i8*, i32 } %25, 0
  %27 = extractvalue { i8*, i32 } %25, 1
  %28 = getelementptr inbounds { i8*, i32 }, { i8*, i32 }* %0, i32 0, i32 0
  store i8* %26, i8** %28, align 8
  %29 = getelementptr inbounds { i8*, i32 }, { i8*, i32 }* %0, i32 0, i32 1
  store i32 %27, i32* %29, align 8
  br label %bb4
}

; core::ptr::drop_in_place
; Function Attrs: nonlazybind uwtable
define internal void @_ZN4core3ptr13drop_in_place17h8eabf9d941115d8bE(i64** mpk_unsafe %_1) unnamed_addr #1 {
start:
  %0 = alloca {}, align 1
  ret void
}

; core::ptr::drop_in_place
; Function Attrs: nonlazybind uwtable
define internal void @_ZN4core3ptr13drop_in_place17h9dbc41f7253da0b9E({ i32, i32 }* mpk_unsafe %_1) unnamed_addr #1 {
start:
  %0 = alloca {}, align 1
  %1 = bitcast { i32, i32 }* %_1 to i32*
  %2 = load i32, i32* %1, align 4, !range !23
  %3 = sub i32 %2, 4
  %4 = icmp eq i32 %3, 0
  %_2 = select i1 %4, i64 0, i64 1
  %5 = icmp eq i64 %_2, 0
  br i1 %5, label %bb1, label %bb2

bb1:                                              ; preds = %bb2, %start
  ret void

bb2:                                              ; preds = %start
; call core::ptr::drop_in_place
  call void @_ZN4core3ptr13drop_in_place17h1c15b6b5a50c6108E({ i32, i32 }* mpk_unsafe %_1)
  br label %bb1
}

; core::ptr::drop_in_place
; Function Attrs: nonlazybind uwtable
define internal void @_ZN4core3ptr13drop_in_place17ha20829f1fc27472eE(%"std::process::Output"* mpk_unsafe %_1) unnamed_addr #1 personality i32 (i32, i32, i64, %"unwind::libunwind::_Unwind_Exception"*, %"unwind::libunwind::_Unwind_Context"*)* @rust_eh_personality {
start:
  %0 = alloca { i8*, i32 }, align 8
  %1 = alloca {}, align 1
  %2 = bitcast %"std::process::Output"* %_1 to %"std::vec::Vec<u8>"*, !MPK-SmartPointer !3
; invoke core::ptr::drop_in_place
  invoke void @_ZN4core3ptr13drop_in_place17h0592225f2e5a8517E(%"std::vec::Vec<u8>"* mpk_unsafe %2)
          to label %bb4 unwind label %cleanup

bb1:                                              ; preds = %bb3
  %3 = bitcast { i8*, i32 }* %0 to i8**
  %4 = load i8*, i8** %3, align 8
  %5 = getelementptr inbounds { i8*, i32 }, { i8*, i32 }* %0, i32 0, i32 1
  %6 = load i32, i32* %5, align 8
  %7 = insertvalue { i8*, i32 } undef, i8* %4, 0
  %8 = insertvalue { i8*, i32 } %7, i32 %6, 1
  resume { i8*, i32 } %8

bb2:                                              ; preds = %bb4
  ret void

bb3:                                              ; preds = %cleanup
  %9 = getelementptr inbounds %"std::process::Output", %"std::process::Output"* %_1, i32 0, i32 3, !MPK-SmartPointer !3
; call core::ptr::drop_in_place
  call void @_ZN4core3ptr13drop_in_place17h0592225f2e5a8517E(%"std::vec::Vec<u8>"* mpk_unsafe %9) #14
  br label %bb1

bb4:                                              ; preds = %start
  %10 = getelementptr inbounds %"std::process::Output", %"std::process::Output"* %_1, i32 0, i32 3, !MPK-SmartPointer !3
; call core::ptr::drop_in_place
  call void @_ZN4core3ptr13drop_in_place17h0592225f2e5a8517E(%"std::vec::Vec<u8>"* mpk_unsafe %10)
  br label %bb2

cleanup:                                          ; preds = %start
  %11 = landingpad { i8*, i32 }
          cleanup
  %12 = extractvalue { i8*, i32 } %11, 0
  %13 = extractvalue { i8*, i32 } %11, 1
  %14 = getelementptr inbounds { i8*, i32 }, { i8*, i32 }* %0, i32 0, i32 0
  store i8* %12, i8** %14, align 8
  %15 = getelementptr inbounds { i8*, i32 }, { i8*, i32 }* %0, i32 0, i32 1
  store i32 %13, i32* %15, align 8
  br label %bb3
}

; core::ptr::drop_in_place
; Function Attrs: nonlazybind uwtable
define internal void @_ZN4core3ptr13drop_in_place17ha23f37a31aa7b255E({}* mpk_unsafe %_1.0, [3 x i64]* mpk_immut noalias readonly align 8 dereferenceable(24) %_1.1) unnamed_addr #1 {
start:
  %0 = alloca {}, align 1
  %1 = bitcast [3 x i64]* %_1.1 to void ({}*)**
  %2 = getelementptr inbounds void ({}*)*, void ({}*)** %1, i64 0
  %3 = load void ({}*)*, void ({}*)** %2, align 8, !invariant.load !11, !nonnull !11
  call void %3({}* mpk_unsafe %_1.0)
  br label %bb1

bb1:                                              ; preds = %start
  ret void
}

; core::ptr::drop_in_place
; Function Attrs: nonlazybind uwtable
define internal void @_ZN4core3ptr13drop_in_place17ha6a935f79191a843E(%"std::sys_common::process::CommandEnv"* mpk_unsafe %_1) unnamed_addr #1 {
start:
  %0 = alloca {}, align 1
  %1 = bitcast %"std::sys_common::process::CommandEnv"* %_1 to %"std::collections::BTreeMap<std::ffi::OsString, std::option::Option<std::ffi::OsString>>"*
; call core::ptr::drop_in_place
  call void @_ZN4core3ptr13drop_in_place17hacbad922eba55da9E(%"std::collections::BTreeMap<std::ffi::OsString, std::option::Option<std::ffi::OsString>>"* mpk_unsafe %1)
  br label %bb1

bb1:                                              ; preds = %start
  ret void
}

; core::ptr::drop_in_place
; Function Attrs: nonlazybind uwtable
define internal void @_ZN4core3ptr13drop_in_place17hacbad922eba55da9E(%"std::collections::BTreeMap<std::ffi::OsString, std::option::Option<std::ffi::OsString>>"* mpk_unsafe %_1) unnamed_addr #1 {
start:
  %0 = alloca {}, align 1
; call <alloc::collections::btree::map::BTreeMap<K,V> as core::ops::drop::Drop>::drop
  call void @"_ZN95_$LT$alloc..collections..btree..map..BTreeMap$LT$K$C$V$GT$$u20$as$u20$core..ops..drop..Drop$GT$4drop17h6f7c269257b901b2E"(%"std::collections::BTreeMap<std::ffi::OsString, std::option::Option<std::ffi::OsString>>"* align 8 dereferenceable(24) %_1)
  br label %bb1

bb1:                                              ; preds = %start
  ret void
}

; core::ptr::drop_in_place
; Function Attrs: nonlazybind uwtable
define internal void @_ZN4core3ptr13drop_in_place17hb0f6c901d3550874E(%"std::option::Option<std::ffi::OsString>"* mpk_unsafe %_1) unnamed_addr #1 {
start:
  %0 = alloca {}, align 1
  %1 = bitcast %"std::option::Option<std::ffi::OsString>"* %_1 to {}**
  %2 = load {}*, {}** %1, align 8
  %3 = icmp eq {}* %2, null
  %_2 = select i1 %3, i64 0, i64 1
  %4 = icmp eq i64 %_2, 0
  br i1 %4, label %bb1, label %bb2

bb1:                                              ; preds = %bb2, %start
  ret void

bb2:                                              ; preds = %start
  %5 = bitcast %"std::option::Option<std::ffi::OsString>"* %_1 to %"std::option::Option<std::ffi::OsString>::Some"*, !MPK-SmartPointer !3
  %6 = bitcast %"std::option::Option<std::ffi::OsString>::Some"* %5 to %"std::ffi::OsString"*, !MPK-SmartPointer !3
; call core::ptr::drop_in_place
  call void @_ZN4core3ptr13drop_in_place17h49c15d43aee983b9E(%"std::ffi::OsString"* mpk_unsafe %6)
  br label %bb1
}

; core::ptr::drop_in_place
; Function Attrs: nonlazybind uwtable
define internal void @_ZN4core3ptr13drop_in_place17hb4c0f7bc5175aadfE(%"std::io::error::Repr"* mpk_unsafe %_1) unnamed_addr #1 {
start:
  %0 = alloca {}, align 1
  %1 = bitcast %"std::io::error::Repr"* %_1 to i8*
  %2 = load i8, i8* %1, align 8, !range !24
  %_2 = zext i8 %2 to i64
  switch i64 %_2, label %bb2 [
    i64 0, label %bb1
    i64 1, label %bb1
  ]

bb1:                                              ; preds = %bb2, %start, %start
  ret void

