; ModuleID = '4s83o72hpom3hpmg'
source_filename = "4s83o72hpom3hpmg"
target datalayout = "e-m:e-p270:32:32-p271:32:32-p272:64:64-i64:64-f80:128-n8:16:32:64-S128"
target triple = "x86_64-unknown-linux-gnu"

%"std::fmt::Formatter" = type { [0 x i64], { i64, i64 }, [0 x i64], { i64, i64 }, [0 x i64], { {}*, [3 x i64]* }, [0 x i32], i32, [0 x i32], i32, [0 x i8], i8, [7 x i8] }
%"std::fmt::DebugList" = type { [0 x i64], %"core::fmt::builders::DebugInner", [0 x i64] }
%"core::fmt::builders::DebugInner" = type { [0 x i64], %"std::fmt::Formatter"*, [0 x i8], i8, [0 x i8], i8, [6 x i8] }
%"std::alloc::Global" = type {}
%"std::vec::Vec<i32>" = type { [0 x i64], { i32*, i64 }, [0 x i64], i64, [0 x i64] }
%"core::fmt::Opaque" = type {}
%"std::fmt::Arguments" = type { [0 x i64], { [0 x { [0 x i8]*, i64 }]*, i64 }, [0 x i64], { i64*, i64 }, [0 x i64], { [0 x { i8*, i64* }]*, i64 }, [0 x i64] }
%"std::ptr::Repr<i32>" = type { [2 x i64] }
%"std::ptr::Repr<u8>" = type { [2 x i64] }
%"std::mem::MaybeUninit<std::alloc::Global>" = type { [0 x i8] }
%"std::mem::ManuallyDrop<std::alloc::Global>" = type { [0 x i8], %"std::alloc::Global", [0 x i8] }
%"std::marker::PhantomData<i32>" = type {}
%"std::marker::PhantomData<u8>" = type {}
%"std::marker::PhantomData<&i32>" = type {}
%"std::alloc::AllocError" = type {}
%"std::result::Result<std::ptr::NonNull<u8>, std::alloc::AllocError>::Err" = type { [0 x i8], %"std::alloc::AllocError", [0 x i8] }
%"std::option::Option<(std::ptr::NonNull<u8>, std::alloc::Layout)>" = type { [0 x i64], {}*, [2 x i64] }
%"std::option::Option<(std::ptr::NonNull<u8>, std::alloc::Layout)>::Some" = type { [0 x i64], { [0 x i64], i8*, [0 x i64], { i64, i64 }, [0 x i64] }, [0 x i64] }
%"std::panic::Location" = type { [0 x i64], { [0 x i8]*, i64 }, [0 x i32], i32, [0 x i32], i32, [0 x i32] }
%"std::result::Result<std::ptr::NonNull<[u8]>, std::alloc::AllocError>::Err" = type { [0 x i8], %"std::alloc::AllocError", [0 x i8] }
%"std::marker::PhantomData<[i32]>" = type {}
%"unwind::libunwind::_Unwind_Exception" = type { [0 x i64], i64, [0 x i64], void (i32, %"unwind::libunwind::_Unwind_Exception"*)*, [0 x i64], [6 x i64], [0 x i64] }
%"unwind::libunwind::_Unwind_Context" = type { [0 x i8] }

@vtable.0 = private unnamed_addr constant { void (i64**)*, i64, i64, i32 (i64**)*, i32 (i64**)*, i32 (i64**)* } { void (i64**)* @_ZN4core3ptr13drop_in_place17he71c51a51103e6a2E, i64 8, i64 8, i32 (i64**)* @"_ZN3std2rt10lang_start28_$u7b$$u7b$closure$u7d$$u7d$17hb9edd351df0b39baE", i32 (i64**)* @"_ZN3std2rt10lang_start28_$u7b$$u7b$closure$u7d$$u7d$17hb9edd351df0b39baE", i32 (i64**)* @"_ZN4core3ops8function6FnOnce40call_once$u7b$$u7b$vtable.shim$u7d$$u7d$17h6b8db3fe80828b4bE" }, align 8, !dbg !0
@vtable.1 = private unnamed_addr constant { void (i32**)*, i64, i64, i1 (i32**, %"std::fmt::Formatter"*)* } { void (i32**)* @_ZN4core3ptr13drop_in_place17ha5abf38ba303dd87E, i64 8, i64 8, i1 (i32**, %"std::fmt::Formatter"*)* @"_ZN42_$LT$$RF$T$u20$as$u20$core..fmt..Debug$GT$3fmt17hfebfc05cfb285006E" }, align 8, !dbg !14
@METASAFE_TYPE_ID = external thread_local global i64
@alloc7 = private unnamed_addr constant <{ [0 x i8] }> zeroinitializer, align 1
@alloc33 = private unnamed_addr constant <{ [43 x i8] }> <{ [43 x i8] c"MetaSafe: Vec has len greater than capacity" }>, align 1
@alloc34 = private unnamed_addr constant <{ [66 x i8] }> <{ [66 x i8] c"/home/martin/projects/metasafe/trust/rust/library/alloc/src/vec.rs" }>, align 1
@alloc35 = private unnamed_addr constant <{ i8*, [16 x i8] }> <{ i8* getelementptr inbounds (<{ [66 x i8] }>, <{ [66 x i8] }>* @alloc34, i32 0, i32 0, i32 0), [16 x i8] c"B\00\00\00\00\00\00\006\01\00\00\0D\00\00\00" }>, align 8
@METASAFE_UNSAFE_START = external global i64
@METASAFE_UNSAFE_END = external global i64
@alloc1 = private unnamed_addr constant <{ [19 x i8] }> <{ [19 x i8] c"Hacked collection: " }>, align 1
@alloc3 = private unnamed_addr constant <{ [1 x i8] }> <{ [1 x i8] c"\0A" }>, align 1
@alloc2 = private unnamed_addr constant <{ i8*, [8 x i8], i8*, [8 x i8] }> <{ i8* getelementptr inbounds (<{ [19 x i8] }>, <{ [19 x i8] }>* @alloc1, i32 0, i32 0, i32 0), [8 x i8] c"\13\00\00\00\00\00\00\00", i8* getelementptr inbounds (<{ [1 x i8] }>, <{ [1 x i8] }>* @alloc3, i32 0, i32 0, i32 0), [8 x i8] c"\01\00\00\00\00\00\00\00" }>, align 8
@__rustc_debug_gdb_scripts_section__ = linkonce_odr unnamed_addr constant [34 x i8] c"\01gdb_load_rust_pretty_printers.py\00", section ".debug_gdb_scripts", align 1

; <core::ptr::non_null::NonNull<T> as core::convert::From<core::ptr::unique::Unique<T>>>::from
; Function Attrs: inlinehint nonlazybind uwtable
define internal mpk_immut nonnull i8* @"_ZN119_$LT$core..ptr..non_null..NonNull$LT$T$GT$$u20$as$u20$core..convert..From$LT$core..ptr..unique..Unique$LT$T$GT$$GT$$GT$4from17h6ca259d3d4f2f373E"(i8* mpk_immut nonnull %unique) unnamed_addr #0 !dbg !43 {
start:
  %unique.dbg.spill = alloca i8*, align 8
  store i8* %unique, i8** %unique.dbg.spill, align 8
  call void @llvm.dbg.declare(metadata i8** %unique.dbg.spill, metadata !64, metadata !DIExpression()), !dbg !65
; call core::ptr::unique::Unique<T>::as_ptr
  %_2 = call i8* @"_ZN4core3ptr6unique15Unique$LT$T$GT$6as_ptr17h3069ab60452fc392E"(i8* mpk_immut nonnull %unique), !dbg !66
  br label %bb1, !dbg !66

bb1:                                              ; preds = %start
; call core::ptr::non_null::NonNull<T>::new_unchecked
  %0 = call mpk_immut mpk_unsafe nonnull i8* @"_ZN4core3ptr8non_null16NonNull$LT$T$GT$13new_unchecked17h84ba694ce0d90537E"(i8* mpk_unsafe %_2), !dbg !67
  br label %bb2, !dbg !67

bb2:                                              ; preds = %bb1
  ret i8* %0, !dbg !68
}

; std::sys_common::backtrace::__rust_begin_short_backtrace
; Function Attrs: noinline nonlazybind uwtable
define internal void @_ZN3std10sys_common9backtrace28__rust_begin_short_backtrace17h086d01cd02b38412E(void ()* mpk_immut nonnull %f) unnamed_addr #1 personality i32 (i32, i32, i64, %"unwind::libunwind::_Unwind_Exception"*, %"unwind::libunwind::_Unwind_Context"*)* @rust_eh_personality !dbg !69 {
start:
  %0 = alloca { i8*, i32 }, align 8
  %f.dbg.spill = alloca void ()*, align 8
  %result.dbg.spill = alloca {}, align 1
  %_5 = alloca {}, align 1
  %_3 = alloca {}, align 1
  call void @llvm.dbg.declare(metadata {}* %result.dbg.spill, metadata !77, metadata !DIExpression()), !dbg !83
  store void ()* %f, void ()** %f.dbg.spill, align 8
  call void @llvm.dbg.declare(metadata void ()** %f.dbg.spill, metadata !76, metadata !DIExpression()), !dbg !84
; call core::ops::function::FnOnce::call_once
  call void @_ZN4core3ops8function6FnOnce9call_once17hb23e66519e6058dcE(void ()* mpk_immut nonnull %f), !dbg !85
  br label %bb1, !dbg !85

bb1:                                              ; preds = %start
; invoke core::hint::black_box
  invoke void @_ZN4core4hint9black_box17h3f305f7168908f35E()
          to label %bb2 unwind label %cleanup, !dbg !86

bb2:                                              ; preds = %bb1
  ret void, !dbg !87

bb3:                                              ; preds = %cleanup
  br label %bb4, !dbg !88

bb4:                                              ; preds = %bb3
  %1 = bitcast { i8*, i32 }* %0 to i8**, !dbg !89
  %2 = load i8*, i8** %1, align 8, !dbg !89
  %3 = getelementptr inbounds { i8*, i32 }, { i8*, i32 }* %0, i32 0, i32 1, !dbg !89
  %4 = load i32, i32* %3, align 8, !dbg !89
  %5 = insertvalue { i8*, i32 } undef, i8* %2, 0, !dbg !89
  %6 = insertvalue { i8*, i32 } %5, i32 %4, 1, !dbg !89
  resume { i8*, i32 } %6, !dbg !89

cleanup:                                          ; preds = %bb1
  %7 = landingpad { i8*, i32 }
          cleanup
  %8 = extractvalue { i8*, i32 } %7, 0
  %9 = extractvalue { i8*, i32 } %7, 1
  %10 = getelementptr inbounds { i8*, i32 }, { i8*, i32 }* %0, i32 0, i32 0
  store i8* %8, i8** %10, align 8
  %11 = getelementptr inbounds { i8*, i32 }, { i8*, i32 }* %0, i32 0, i32 1
  store i32 %9, i32* %11, align 8
  br label %bb3
}

; std::rt::lang_start
; Function Attrs: nonlazybind uwtable
define hidden i64 @_ZN3std2rt10lang_start17h1e0a93a87adbcf02E(void ()* mpk_immut nonnull %main, i64 %argc, i8** mpk_immut %argv) unnamed_addr #2 !dbg !90 {
start:
  %argv.dbg.spill = alloca i8**, align 8
  %argc.dbg.spill = alloca i64, align 8
  %main.dbg.spill = alloca void ()*, align 8
  %_7 = alloca i64*, align 8
  store void ()* %main, void ()** %main.dbg.spill, align 8
  call void @llvm.dbg.declare(metadata void ()** %main.dbg.spill, metadata !97, metadata !DIExpression()), !dbg !101
  store i64 %argc, i64* %argc.dbg.spill, align 8
  call void @llvm.dbg.declare(metadata i64* %argc.dbg.spill, metadata !98, metadata !DIExpression()), !dbg !102
  store i8** %argv, i8*** %argv.dbg.spill, align 8
  call void @llvm.dbg.declare(metadata i8*** %argv.dbg.spill, metadata !99, metadata !DIExpression()), !dbg !103
  %0 = bitcast i64** %_7 to void ()**, !dbg !104
  store void ()* %main, void ()** %0, align 8, !dbg !104
  %_4.0 = bitcast i64** %_7 to {}*, !dbg !105
; call std::rt::lang_start_internal
  %1 = call i64 @_ZN3std2rt19lang_start_internal17h2677a686eee71786E({}* mpk_immut nonnull align 1 %_4.0, [3 x i64]* mpk_immut noalias readonly align 8 dereferenceable(24) bitcast ({ void (i64**)*, i64, i64, i32 (i64**)*, i32 (i64**)*, i32 (i64**)* }* @vtable.0 to [3 x i64]*), i64 %argc, i8** mpk_immut %argv), !dbg !106
  br label %bb1, !dbg !106

bb1:                                              ; preds = %start
  ret i64 %1, !dbg !107
}

; std::rt::lang_start::{{closure}}
; Function Attrs: nonlazybind uwtable
define internal i32 @"_ZN3std2rt10lang_start28_$u7b$$u7b$closure$u7d$$u7d$17hb9edd351df0b39baE"(i64** mpk_immut noalias readonly align 8 dereferenceable(8) %_1) unnamed_addr #2 !dbg !108 {
start:
  %_1.dbg.spill = alloca i64**, align 8
  store i64** %_1, i64*** %_1.dbg.spill, align 8
  call void @llvm.dbg.declare(metadata i64*** %_1.dbg.spill, metadata !113, metadata !DIExpression(DW_OP_deref)), !dbg !114
  %0 = bitcast i64** %_1 to void ()**, !dbg !115
  %_3 = load void ()*, void ()** %0, align 8, !dbg !115, !nonnull !4
; call std::sys_common::backtrace::__rust_begin_short_backtrace
  call void @_ZN3std10sys_common9backtrace28__rust_begin_short_backtrace17h086d01cd02b38412E(void ()* mpk_immut nonnull %_3), !dbg !116
  br label %bb1, !dbg !116

bb1:                                              ; preds = %start
; call <() as std::process::Termination>::report
  %1 = call i32 @"_ZN54_$LT$$LP$$RP$$u20$as$u20$std..process..Termination$GT$6report17he405626ebd2a2f2cE"(), !dbg !117
  br label %bb2, !dbg !117

bb2:                                              ; preds = %bb1
  ret i32 %1, !dbg !118
}

; std::sys::unix::process::process_common::ExitCode::as_i32
; Function Attrs: inlinehint nonlazybind uwtable
define internal i32 @_ZN3std3sys4unix7process14process_common8ExitCode6as_i3217h24801695b7a3221cE(i8* mpk_immut noalias readonly align 1 dereferenceable(1) %self) unnamed_addr #0 !dbg !119 {
start:
  %self.dbg.spill = alloca i8*, align 8
  store i8* %self, i8** %self.dbg.spill, align 8
  call void @llvm.dbg.declare(metadata i8** %self.dbg.spill, metadata !132, metadata !DIExpression()), !dbg !133
  %_2 = load i8, i8* %self, align 1, !dbg !134
  %0 = zext i8 %_2 to i32, !dbg !135
  ret i32 %0, !dbg !136
}

; <&T as core::fmt::Debug>::fmt
; Function Attrs: nonlazybind uwtable
define internal zeroext i1 @"_ZN42_$LT$$RF$T$u20$as$u20$core..fmt..Debug$GT$3fmt17hfebfc05cfb285006E"(i32** mpk_immut noalias readonly align 8 dereferenceable(8) %self, %"std::fmt::Formatter"* align 8 dereferenceable(64) %f) unnamed_addr #2 !dbg !137 {
start:
  %f.dbg.spill = alloca %"std::fmt::Formatter"*, align 8
  %self.dbg.spill = alloca i32**, align 8
  store i32** %self, i32*** %self.dbg.spill, align 8
  call void @llvm.dbg.declare(metadata i32*** %self.dbg.spill, metadata !180, metadata !DIExpression()), !dbg !184
  store %"std::fmt::Formatter"* %f, %"std::fmt::Formatter"** %f.dbg.spill, align 8
  call void @llvm.dbg.declare(metadata %"std::fmt::Formatter"** %f.dbg.spill, metadata !181, metadata !DIExpression()), !dbg !185
  %_4 = load i32*, i32** %self, align 8, !dbg !186, !nonnull !4
; call core::fmt::num::<impl core::fmt::Debug for i32>::fmt
  %0 = call zeroext i1 @"_ZN4core3fmt3num50_$LT$impl$u20$core..fmt..Debug$u20$for$u20$i32$GT$3fmt17h3b2561efc04dc72fE"(i32* mpk_immut noalias readonly align 4 dereferenceable(4) %_4, %"std::fmt::Formatter"* align 8 dereferenceable(64) %f), !dbg !187
  br label %bb1, !dbg !187

bb1:                                              ; preds = %start
  ret i1 %0, !dbg !188
}

; <[T] as core::fmt::Debug>::fmt
; Function Attrs: nonlazybind uwtable
define internal zeroext i1 @"_ZN48_$LT$$u5b$T$u5d$$u20$as$u20$core..fmt..Debug$GT$3fmt17he8eff0ea630990eeE"([0 x i32]* mpk_immut noalias nonnull readonly align 4 %self.0, i64 %self.1, %"std::fmt::Formatter"* align 8 dereferenceable(64) %f) unnamed_addr #2 !dbg !189 {
start:
  %0 = alloca i128, align 8
  %f.dbg.spill = alloca %"std::fmt::Formatter"*, align 8
  %self.dbg.spill = alloca { [0 x i32]*, i64 }, align 8
  %_6 = alloca %"std::fmt::DebugList", align 8
  %1 = getelementptr inbounds { [0 x i32]*, i64 }, { [0 x i32]*, i64 }* %self.dbg.spill, i32 0, i32 0
  store [0 x i32]* %self.0, [0 x i32]** %1, align 8
  %2 = getelementptr inbounds { [0 x i32]*, i64 }, { [0 x i32]*, i64 }* %self.dbg.spill, i32 0, i32 1
  store i64 %self.1, i64* %2, align 8
  call void @llvm.dbg.declare(metadata { [0 x i32]*, i64 }* %self.dbg.spill, metadata !198, metadata !DIExpression()), !dbg !200
  store %"std::fmt::Formatter"* %f, %"std::fmt::Formatter"** %f.dbg.spill, align 8
  call void @llvm.dbg.declare(metadata %"std::fmt::Formatter"** %f.dbg.spill, metadata !199, metadata !DIExpression()), !dbg !201
; call core::fmt::Formatter::debug_list
  %3 = call i128 @_ZN4core3fmt9Formatter10debug_list17h8147fa4f8cb43178E(%"std::fmt::Formatter"* align 8 dereferenceable(64) %f), !dbg !202
  store i128 %3, i128* %0, align 8, !dbg !202
  %4 = bitcast %"std::fmt::DebugList"* %_6 to i8*, !dbg !202
  %5 = bitcast i128* %0 to i8*, !dbg !202
  call void @llvm.memcpy.p0i8.p0i8.i64(i8* align 8 %4, i8* align 8 %5, i64 16, i1 false), !dbg !202
  br label %bb1, !dbg !202

bb1:                                              ; preds = %start
; call core::slice::<impl [T]>::iter
  %6 = call { i32*, i32* } @"_ZN4core5slice29_$LT$impl$u20$$u5b$T$u5d$$GT$4iter17hce9bf1e9eca74189E"([0 x i32]* mpk_immut noalias nonnull readonly align 4 %self.0, i64 %self.1), !dbg !203
  %_8.0 = extractvalue { i32*, i32* } %6, 0, !dbg !203
  %_8.1 = extractvalue { i32*, i32* } %6, 1, !dbg !203
  br label %bb2, !dbg !203

bb2:                                              ; preds = %bb1
; call core::fmt::builders::DebugList::entries
  %_4 = call align 8 dereferenceable(16) %"std::fmt::DebugList"* @_ZN4core3fmt8builders9DebugList7entries17h0fa694d8dbacb2a1E(%"std::fmt::DebugList"* align 8 dereferenceable(16) %_6, i32* mpk_immut nonnull %_8.0, i32* mpk_immut %_8.1), !dbg !204
  br label %bb3, !dbg !204

bb3:                                              ; preds = %bb2
; call core::fmt::builders::DebugList::finish
  %7 = call zeroext i1 @_ZN4core3fmt8builders9DebugList6finish17h1110a7134d6ce275E(%"std::fmt::DebugList"* align 8 dereferenceable(16) %_4), !dbg !205
  br label %bb4, !dbg !205

bb4:                                              ; preds = %bb3
  ret i1 %7, !dbg !206
}

; core::intrinsics::copy_nonoverlapping
; Function Attrs: inlinehint nonlazybind uwtable
define internal void @_ZN4core10intrinsics19copy_nonoverlapping17hb0ab29d3176509b4E(%"std::alloc::Global"* mpk_immut mpk_unsafe %src, %"std::alloc::Global"* mpk_unsafe %dst, i64 %count) unnamed_addr #0 !dbg !207 {
start:
  %count.dbg.spill = alloca i64, align 8
  %dst.dbg.spill = alloca %"std::alloc::Global"*, align 8
  %src.dbg.spill = alloca %"std::alloc::Global"*, align 8
  store %"std::alloc::Global"* %src, %"std::alloc::Global"** %src.dbg.spill, align 8
  call void @llvm.dbg.declare(metadata %"std::alloc::Global"** %src.dbg.spill, metadata !218, metadata !DIExpression()), !dbg !223
  store %"std::alloc::Global"* %dst, %"std::alloc::Global"** %dst.dbg.spill, align 8
  call void @llvm.dbg.declare(metadata %"std::alloc::Global"** %dst.dbg.spill, metadata !219, metadata !DIExpression()), !dbg !224
  store i64 %count, i64* %count.dbg.spill, align 8
  call void @llvm.dbg.declare(metadata i64* %count.dbg.spill, metadata !220, metadata !DIExpression()), !dbg !225
  %0 = mul i64 0, %count, !dbg !226
  %1 = bitcast %"std::alloc::Global"* %dst to i8*, !dbg !226
  %2 = bitcast %"std::alloc::Global"* %src to i8*, !dbg !226
  call void @llvm.memcpy.p0i8.p0i8.i64(i8* align 1 %1, i8* align 1 %2, i64 %0, i1 false), !dbg !226
  br label %bb1, !dbg !226

bb1:                                              ; preds = %start
  ret void, !dbg !227
}

; core::fmt::ArgumentV1::new
; Function Attrs: nonlazybind uwtable
define internal { i8*, i64* } @_ZN4core3fmt10ArgumentV13new17h0675ad4776c58079E(%"std::vec::Vec<i32>"* mpk_immut noalias readonly align 8 dereferenceable(24) %x, i1 (%"std::vec::Vec<i32>"*, %"std::fmt::Formatter"*)* mpk_immut nonnull %f) unnamed_addr #2 !dbg !228 {
start:
  %0 = alloca %"core::fmt::Opaque"*, align 8
  %1 = alloca i1 (%"core::fmt::Opaque"*, %"std::fmt::Formatter"*)*, align 8
  %f.dbg.spill = alloca i1 (%"std::vec::Vec<i32>"*, %"std::fmt::Formatter"*)*, align 8
  %x.dbg.spill = alloca %"std::vec::Vec<i32>"*, align 8, !MPK-SmartPointer !267
  %2 = alloca { i8*, i64* }, align 8
  store %"std::vec::Vec<i32>"* %x, %"std::vec::Vec<i32>"** %x.dbg.spill, align 8
  call void @llvm.dbg.declare(metadata %"std::vec::Vec<i32>"** %x.dbg.spill, metadata !263, metadata !DIExpression()), !dbg !268
  store i1 (%"std::vec::Vec<i32>"*, %"std::fmt::Formatter"*)* %f, i1 (%"std::vec::Vec<i32>"*, %"std::fmt::Formatter"*)** %f.dbg.spill, align 8
  call void @llvm.dbg.declare(metadata i1 (%"std::vec::Vec<i32>"*, %"std::fmt::Formatter"*)** %f.dbg.spill, metadata !264, metadata !DIExpression()), !dbg !269
  %3 = bitcast i1 (%"core::fmt::Opaque"*, %"std::fmt::Formatter"*)** %1 to i1 (%"std::vec::Vec<i32>"*, %"std::fmt::Formatter"*)**, !dbg !270
  store i1 (%"std::vec::Vec<i32>"*, %"std::fmt::Formatter"*)* %f, i1 (%"std::vec::Vec<i32>"*, %"std::fmt::Formatter"*)** %3, align 8, !dbg !270
  %_3 = load i1 (%"core::fmt::Opaque"*, %"std::fmt::Formatter"*)*, i1 (%"core::fmt::Opaque"*, %"std::fmt::Formatter"*)** %1, align 8, !dbg !270, !nonnull !4
  br label %bb1, !dbg !270

bb1:                                              ; preds = %start
  %4 = bitcast %"core::fmt::Opaque"** %0 to %"std::vec::Vec<i32>"**, !dbg !271
  store %"std::vec::Vec<i32>"* %x, %"std::vec::Vec<i32>"** %4, align 8, !dbg !271
  %_5 = load %"core::fmt::Opaque"*, %"core::fmt::Opaque"** %0, align 8, !dbg !271, !nonnull !4
  br label %bb2, !dbg !271

bb2:                                              ; preds = %bb1
  %5 = bitcast { i8*, i64* }* %2 to %"core::fmt::Opaque"**, !dbg !272
  store %"core::fmt::Opaque"* %_5, %"core::fmt::Opaque"** %5, align 8, !dbg !272
  %6 = getelementptr inbounds { i8*, i64* }, { i8*, i64* }* %2, i32 0, i32 1, !dbg !273
  %7 = bitcast i64** %6 to i1 (%"core::fmt::Opaque"*, %"std::fmt::Formatter"*)**, !dbg !273
  store i1 (%"core::fmt::Opaque"*, %"std::fmt::Formatter"*)* %_3, i1 (%"core::fmt::Opaque"*, %"std::fmt::Formatter"*)** %7, align 8, !dbg !273
  %8 = getelementptr inbounds { i8*, i64* }, { i8*, i64* }* %2, i32 0, i32 0, !dbg !274
  %9 = load i8*, i8** %8, align 8, !dbg !274, !nonnull !4
  %10 = getelementptr inbounds { i8*, i64* }, { i8*, i64* }* %2, i32 0, i32 1, !dbg !274
  %11 = load i64*, i64** %10, align 8, !dbg !274, !nonnull !4
  %12 = insertvalue { i8*, i64* } undef, i8* %9, 0, !dbg !274
  %13 = insertvalue { i8*, i64* } %12, i64* %11, 1, !dbg !274
  ret { i8*, i64* } %13, !dbg !274
}

; core::fmt::num::<impl core::fmt::Debug for i32>::fmt
; Function Attrs: inlinehint nonlazybind uwtable
define internal zeroext i1 @"_ZN4core3fmt3num50_$LT$impl$u20$core..fmt..Debug$u20$for$u20$i32$GT$3fmt17h3b2561efc04dc72fE"(i32* mpk_immut noalias readonly align 4 dereferenceable(4) %self, %"std::fmt::Formatter"* align 8 dereferenceable(64) %f) unnamed_addr #0 !dbg !275 {
start:
  %f.dbg.spill = alloca %"std::fmt::Formatter"*, align 8
  %self.dbg.spill = alloca i32*, align 8
  %0 = alloca i8, align 1
  store i32* %self, i32** %self.dbg.spill, align 8
  call void @llvm.dbg.declare(metadata i32** %self.dbg.spill, metadata !282, metadata !DIExpression()), !dbg !284
  store %"std::fmt::Formatter"* %f, %"std::fmt::Formatter"** %f.dbg.spill, align 8
  call void @llvm.dbg.declare(metadata %"std::fmt::Formatter"** %f.dbg.spill, metadata !283, metadata !DIExpression()), !dbg !285
; call core::fmt::Formatter::debug_lower_hex
  %_3 = call zeroext i1 @_ZN4core3fmt9Formatter15debug_lower_hex17h6ddb5559176c6045E(%"std::fmt::Formatter"* mpk_immut noalias readonly align 8 dereferenceable(64) %f), !dbg !286
  br label %bb1, !dbg !286

bb1:                                              ; preds = %start
  br i1 %_3, label %bb3, label %bb2, !dbg !287

bb2:                                              ; preds = %bb1
; call core::fmt::Formatter::debug_upper_hex
  %_7 = call zeroext i1 @_ZN4core3fmt9Formatter15debug_upper_hex17h61a2e870dc3af9acE(%"std::fmt::Formatter"* mpk_immut noalias readonly align 8 dereferenceable(64) %f), !dbg !288
  br label %bb5, !dbg !288

bb3:                                              ; preds = %bb1
; call core::fmt::num::<impl core::fmt::LowerHex for i32>::fmt
  %1 = call zeroext i1 @"_ZN4core3fmt3num53_$LT$impl$u20$core..fmt..LowerHex$u20$for$u20$i32$GT$3fmt17h3eaaf3997f8f438aE"(i32* mpk_immut noalias readonly align 4 dereferenceable(4) %self, %"std::fmt::Formatter"* align 8 dereferenceable(64) %f), !dbg !289
  %2 = zext i1 %1 to i8, !dbg !289
  store i8 %2, i8* %0, align 1, !dbg !289
  br label %bb4, !dbg !289

bb4:                                              ; preds = %bb3
  br label %bb11, !dbg !290

bb5:                                              ; preds = %bb2
  br i1 %_7, label %bb7, label %bb6, !dbg !291

bb6:                                              ; preds = %bb5
; call core::fmt::num::imp::<impl core::fmt::Display for i32>::fmt
  %3 = call zeroext i1 @"_ZN4core3fmt3num3imp52_$LT$impl$u20$core..fmt..Display$u20$for$u20$i32$GT$3fmt17h614ff315f5bd3ea6E"(i32* mpk_immut noalias readonly align 4 dereferenceable(4) %self, %"std::fmt::Formatter"* align 8 dereferenceable(64) %f), !dbg !292
  %4 = zext i1 %3 to i8, !dbg !292
  store i8 %4, i8* %0, align 1, !dbg !292
  br label %bb9, !dbg !292

bb7:                                              ; preds = %bb5
; call core::fmt::num::<impl core::fmt::UpperHex for i32>::fmt
  %5 = call zeroext i1 @"_ZN4core3fmt3num53_$LT$impl$u20$core..fmt..UpperHex$u20$for$u20$i32$GT$3fmt17h08e994e256867223E"(i32* mpk_immut noalias readonly align 4 dereferenceable(4) %self, %"std::fmt::Formatter"* align 8 dereferenceable(64) %f), !dbg !293
  %6 = zext i1 %5 to i8, !dbg !293
  store i8 %6, i8* %0, align 1, !dbg !293
  br label %bb8, !dbg !293

bb8:                                              ; preds = %bb7
  br label %bb10, !dbg !294

bb9:                                              ; preds = %bb6
  br label %bb10, !dbg !295

bb10:                                             ; preds = %bb9, %bb8
  br label %bb11, !dbg !296

bb11:                                             ; preds = %bb10, %bb4
  %7 = load i8, i8* %0, align 1, !dbg !297, !range !298
  %8 = trunc i8 %7 to i1, !dbg !297
  ret i1 %8, !dbg !297
}

; core::fmt::builders::DebugList::entries
; Function Attrs: nonlazybind uwtable
define internal align 8 dereferenceable(16) %"std::fmt::DebugList"* @_ZN4core3fmt8builders9DebugList7entries17h0fa694d8dbacb2a1E(%"std::fmt::DebugList"* align 8 dereferenceable(16) %self, i32* mpk_immut nonnull %entries.0, i32* mpk_immut %entries.1) unnamed_addr #2 personality i32 (i32, i32, i64, %"unwind::libunwind::_Unwind_Exception"*, %"unwind::libunwind::_Unwind_Context"*)* @rust_eh_personality !dbg !299 {
start:
  %__next.dbg.spill = alloca i32*, align 8
  %val.dbg.spill = alloca i32*, align 8
  %0 = alloca { i8*, i32 }, align 8
  %entries.dbg.spill = alloca { i32*, i32* }, align 8
  %self.dbg.spill = alloca %"std::fmt::DebugList"*, align 8
  %_20 = alloca i8, align 1
  %entry = alloca i32*, align 8
  %_8 = alloca i32*, align 8
  %iter = alloca { i32*, i32* }, align 8
  store %"std::fmt::DebugList"* %self, %"std::fmt::DebugList"** %self.dbg.spill, align 8
  call void @llvm.dbg.declare(metadata %"std::fmt::DebugList"** %self.dbg.spill, metadata !328, metadata !DIExpression()), !dbg !341
  %1 = getelementptr inbounds { i32*, i32* }, { i32*, i32* }* %entries.dbg.spill, i32 0, i32 0
  store i32* %entries.0, i32** %1, align 8
  %2 = getelementptr inbounds { i32*, i32* }, { i32*, i32* }* %entries.dbg.spill, i32 0, i32 1
  store i32* %entries.1, i32** %2, align 8
  call void @llvm.dbg.declare(metadata { i32*, i32* }* %entries.dbg.spill, metadata !329, metadata !DIExpression()), !dbg !342
  call void @llvm.dbg.declare(metadata { i32*, i32* }* %iter, metadata !330, metadata !DIExpression()), !dbg !343
  call void @llvm.dbg.declare(metadata i32** %entry, metadata !336, metadata !DIExpression()), !dbg !344
  store i8 0, i8* %_20, align 1, !dbg !345
; call <I as core::iter::traits::collect::IntoIterator>::into_iter
  %3 = call { i32*, i32* } @"_ZN63_$LT$I$u20$as$u20$core..iter..traits..collect..IntoIterator$GT$9into_iter17haa6f789b850dae3cE"(i32* mpk_immut nonnull %entries.0, i32* mpk_immut %entries.1), !dbg !346
  %_4.0 = extractvalue { i32*, i32* } %3, 0, !dbg !346
  %_4.1 = extractvalue { i32*, i32* } %3, 1, !dbg !346
  br label %bb1, !dbg !346

bb1:                                              ; preds = %start
  %4 = getelementptr inbounds { i32*, i32* }, { i32*, i32* }* %iter, i32 0, i32 0, !dbg !347
  store i32* %_4.0, i32** %4, align 8, !dbg !347
  %5 = getelementptr inbounds { i32*, i32* }, { i32*, i32* }* %iter, i32 0, i32 1, !dbg !347
  store i32* %_4.1, i32** %5, align 8, !dbg !347
  br label %bb2, !dbg !348

bb2:                                              ; preds = %bb8, %bb1
; invoke <core::slice::iter::Iter<T> as core::iter::traits::iterator::Iterator>::next
  %6 = invoke mpk_immut align 4 dereferenceable_or_null(4) i32* @"_ZN91_$LT$core..slice..iter..Iter$LT$T$GT$$u20$as$u20$core..iter..traits..iterator..Iterator$GT$4next17hf68fe8e8aa0414f8E"({ i32*, i32* }* align 8 dereferenceable(16) %iter)
          to label %bb3 unwind label %cleanup, !dbg !349

bb3:                                              ; preds = %bb2
  store i32* %6, i32** %_8, align 8, !dbg !350
  %7 = bitcast i32** %_8 to {}**, !dbg !351
  %8 = load {}*, {}** %7, align 8, !dbg !351
  %9 = icmp eq {}* %8, null, !dbg !351
  %_11 = select i1 %9, i64 0, i64 1, !dbg !351
  switch i64 %_11, label %bb5 [
    i64 0, label %bb4
    i64 1, label %bb6
  ], !dbg !352

bb4:                                              ; preds = %bb3
  store i8 0, i8* %_20, align 1, !dbg !353
  br label %bb9, !dbg !354

bb5:                                              ; preds = %bb3
  unreachable, !dbg !355

bb6:                                              ; preds = %bb3
  %val = load i32*, i32** %_8, align 8, !dbg !356, !nonnull !4
  store i32* %val, i32** %val.dbg.spill, align 8, !dbg !356
  call void @llvm.dbg.declare(metadata i32** %val.dbg.spill, metadata !334, metadata !DIExpression()), !dbg !357
  store i8 1, i8* %_20, align 1, !dbg !358
  store i32* %val, i32** %__next.dbg.spill, align 8, !dbg !359
  call void @llvm.dbg.declare(metadata i32** %__next.dbg.spill, metadata !332, metadata !DIExpression()), !dbg !360
  store i8 0, i8* %_20, align 1, !dbg !361
  store i32* %val, i32** %entry, align 8, !dbg !362
  %_17.0 = bitcast i32** %entry to {}*, !dbg !363
; invoke core::fmt::builders::DebugList::entry
  %_15 = invoke align 8 dereferenceable(16) %"std::fmt::DebugList"* @_ZN4core3fmt8builders9DebugList5entry17h65db77502f12805cE(%"std::fmt::DebugList"* align 8 dereferenceable(16) %self, {}* mpk_immut nonnull align 1 %_17.0, [3 x i64]* mpk_immut noalias readonly align 8 dereferenceable(24) bitcast ({ void (i32**)*, i64, i64, i1 (i32**, %"std::fmt::Formatter"*)* }* @vtable.1 to [3 x i64]*))
          to label %bb7 unwind label %cleanup1, !dbg !364

bb7:                                              ; preds = %bb6
  br label %bb8, !dbg !365

bb8:                                              ; preds = %bb7
  store i8 0, i8* %_20, align 1, !dbg !366
  br label %bb2, !dbg !367

bb9:                                              ; preds = %bb4
  ret %"std::fmt::DebugList"* %self, !dbg !368

bb10:                                             ; preds = %cleanup1
  br label %bb14, !dbg !369

bb11:                                             ; preds = %bb13, %bb14
  br label %bb12, !dbg !370

bb12:                                             ; preds = %bb11
  %10 = bitcast { i8*, i32 }* %0 to i8**, !dbg !371
  %11 = load i8*, i8** %10, align 8, !dbg !371
  %12 = getelementptr inbounds { i8*, i32 }, { i8*, i32 }* %0, i32 0, i32 1, !dbg !371
  %13 = load i32, i32* %12, align 8, !dbg !371
  %14 = insertvalue { i8*, i32 } undef, i8* %11, 0, !dbg !371
  %15 = insertvalue { i8*, i32 } %14, i32 %13, 1, !dbg !371
  resume { i8*, i32 } %15, !dbg !371

bb13:                                             ; preds = %bb14
  br label %bb11, !dbg !372

bb14:                                             ; preds = %bb10, %cleanup
  %16 = load i8, i8* %_20, align 1, !dbg !373, !range !298
  %17 = trunc i8 %16 to i1, !dbg !373
  br i1 %17, label %bb13, label %bb11, !dbg !373

cleanup:                                          ; preds = %bb2
  %18 = landingpad { i8*, i32 }
          cleanup
  %19 = extractvalue { i8*, i32 } %18, 0
  %20 = extractvalue { i8*, i32 } %18, 1
  %21 = getelementptr inbounds { i8*, i32 }, { i8*, i32 }* %0, i32 0, i32 0
  store i8* %19, i8** %21, align 8
  %22 = getelementptr inbounds { i8*, i32 }, { i8*, i32 }* %0, i32 0, i32 1
  store i32 %20, i32* %22, align 8
  br label %bb14

cleanup1:                                         ; preds = %bb6
  %23 = landingpad { i8*, i32 }
          cleanup
  %24 = extractvalue { i8*, i32 } %23, 0
  %25 = extractvalue { i8*, i32 } %23, 1
  %26 = getelementptr inbounds { i8*, i32 }, { i8*, i32 }* %0, i32 0, i32 0
  store i8* %24, i8** %26, align 8
  %27 = getelementptr inbounds { i8*, i32 }, { i8*, i32 }* %0, i32 0, i32 1
  store i32 %25, i32* %27, align 8
  br label %bb10
}

; core::fmt::Arguments::new_v1
; Function Attrs: inlinehint nonlazybind uwtable
define internal void @_ZN4core3fmt9Arguments6new_v117h23e21629b32dcd95E(%"std::fmt::Arguments"* noalias nocapture sret dereferenceable(48) %0, [0 x { [0 x i8]*, i64 }]* mpk_immut noalias nonnull readonly align 8 %pieces.0, i64 %pieces.1, [0 x { i8*, i64* }]* mpk_immut noalias nonnull readonly align 8 %args.0, i64 %args.1) unnamed_addr #0 !dbg !374 {
start:
  %args.dbg.spill = alloca { [0 x { i8*, i64* }]*, i64 }, align 8
  %pieces.dbg.spill = alloca { [0 x { [0 x i8]*, i64 }]*, i64 }, align 8
  %_4 = alloca { i64*, i64 }, align 8
  %1 = getelementptr inbounds { [0 x { [0 x i8]*, i64 }]*, i64 }, { [0 x { [0 x i8]*, i64 }]*, i64 }* %pieces.dbg.spill, i32 0, i32 0
  store [0 x { [0 x i8]*, i64 }]* %pieces.0, [0 x { [0 x i8]*, i64 }]** %1, align 8
  %2 = getelementptr inbounds { [0 x { [0 x i8]*, i64 }]*, i64 }, { [0 x { [0 x i8]*, i64 }]*, i64 }* %pieces.dbg.spill, i32 0, i32 1
  store i64 %pieces.1, i64* %2, align 8
  call void @llvm.dbg.declare(metadata { [0 x { [0 x i8]*, i64 }]*, i64 }* %pieces.dbg.spill, metadata !440, metadata !DIExpression()), !dbg !442
  %3 = getelementptr inbounds { [0 x { i8*, i64* }]*, i64 }, { [0 x { i8*, i64* }]*, i64 }* %args.dbg.spill, i32 0, i32 0
  store [0 x { i8*, i64* }]* %args.0, [0 x { i8*, i64* }]** %3, align 8
  %4 = getelementptr inbounds { [0 x { i8*, i64* }]*, i64 }, { [0 x { i8*, i64* }]*, i64 }* %args.dbg.spill, i32 0, i32 1
  store i64 %args.1, i64* %4, align 8
  call void @llvm.dbg.declare(metadata { [0 x { i8*, i64* }]*, i64 }* %args.dbg.spill, metadata !441, metadata !DIExpression()), !dbg !443
  %5 = bitcast { i64*, i64 }* %_4 to {}**, !dbg !444
  store {}* null, {}** %5, align 8, !dbg !444
  %6 = bitcast %"std::fmt::Arguments"* %0 to { [0 x { [0 x i8]*, i64 }]*, i64 }*, !dbg !445
  %7 = getelementptr inbounds { [0 x { [0 x i8]*, i64 }]*, i64 }, { [0 x { [0 x i8]*, i64 }]*, i64 }* %6, i32 0, i32 0, !dbg !445
  store [0 x { [0 x i8]*, i64 }]* %pieces.0, [0 x { [0 x i8]*, i64 }]** %7, align 8, !dbg !445
  %8 = getelementptr inbounds { [0 x { [0 x i8]*, i64 }]*, i64 }, { [0 x { [0 x i8]*, i64 }]*, i64 }* %6, i32 0, i32 1, !dbg !445
  store i64 %pieces.1, i64* %8, align 8, !dbg !445
  %9 = getelementptr inbounds %"std::fmt::Arguments", %"std::fmt::Arguments"* %0, i32 0, i32 3, !dbg !446
  %10 = getelementptr inbounds { i64*, i64 }, { i64*, i64 }* %_4, i32 0, i32 0, !dbg !446
  %11 = load i64*, i64** %10, align 8, !dbg !446
  %12 = getelementptr inbounds { i64*, i64 }, { i64*, i64 }* %_4, i32 0, i32 1, !dbg !446
  %13 = load i64, i64* %12, align 8, !dbg !446
  %14 = getelementptr inbounds { i64*, i64 }, { i64*, i64 }* %9, i32 0, i32 0, !dbg !446
  store i64* %11, i64** %14, align 8, !dbg !446
  %15 = getelementptr inbounds { i64*, i64 }, { i64*, i64 }* %9, i32 0, i32 1, !dbg !446
  store i64 %13, i64* %15, align 8, !dbg !446
  %16 = getelementptr inbounds %"std::fmt::Arguments", %"std::fmt::Arguments"* %0, i32 0, i32 5, !dbg !447
  %17 = getelementptr inbounds { [0 x { i8*, i64* }]*, i64 }, { [0 x { i8*, i64* }]*, i64 }* %16, i32 0, i32 0, !dbg !447
  store [0 x { i8*, i64* }]* %args.0, [0 x { i8*, i64* }]** %17, align 8, !dbg !447
  %18 = getelementptr inbounds { [0 x { i8*, i64* }]*, i64 }, { [0 x { i8*, i64* }]*, i64 }* %16, i32 0, i32 1, !dbg !447
  store i64 %args.1, i64* %18, align 8, !dbg !447
  ret void, !dbg !448
}

; core::num::nonzero::NonZeroUsize::new_unchecked
; Function Attrs: inlinehint nonlazybind uwtable
define internal i64 @_ZN4core3num7nonzero12NonZeroUsize13new_unchecked17hf526da6b062e070bE(i64 %n) unnamed_addr #0 !dbg !449 {
start:
  %n.dbg.spill = alloca i64, align 8
  %0 = alloca i64, align 8
  store i64 %n, i64* %n.dbg.spill, align 8
  call void @llvm.dbg.declare(metadata i64* %n.dbg.spill, metadata !459, metadata !DIExpression()), !dbg !460
  store i64 %n, i64* %0, align 8, !dbg !461
  %1 = load i64, i64* %0, align 8, !dbg !462, !range !463
  ret i64 %1, !dbg !462
}

; core::num::nonzero::NonZeroUsize::get
; Function Attrs: inlinehint nonlazybind uwtable
define internal i64 @_ZN4core3num7nonzero12NonZeroUsize3get17h8457693f3832f611E(i64 %self) unnamed_addr #0 !dbg !464 {
start:
  %self.dbg.spill = alloca i64, align 8
  store i64 %self, i64* %self.dbg.spill, align 8
  call void @llvm.dbg.declare(metadata i64* %self.dbg.spill, metadata !468, metadata !DIExpression()), !dbg !469
  ret i64 %self, !dbg !470
}

; core::ops::function::FnOnce::call_once{{vtable.shim}}
; Function Attrs: nonlazybind uwtable
define internal i32 @"_ZN4core3ops8function6FnOnce40call_once$u7b$$u7b$vtable.shim$u7d$$u7d$17h6b8db3fe80828b4bE"(i64** %_1) unnamed_addr #2 !dbg !471 {
start:
  %_1.dbg.spill = alloca i64**, align 8
  %_2 = alloca {}, align 1
  store i64** %_1, i64*** %_1.dbg.spill, align 8
  call void @llvm.dbg.declare(metadata i64*** %_1.dbg.spill, metadata !480, metadata !DIExpression()), !dbg !485
  call void @llvm.dbg.declare(metadata {}* %_2, metadata !481, metadata !DIExpression()), !dbg !486
  %0 = load i64*, i64** %_1, align 8, !dbg !487, !nonnull !4
; call core::ops::function::FnOnce::call_once
  %1 = call i32 @_ZN4core3ops8function6FnOnce9call_once17h6819c8c0a61375e0E(i64* mpk_immut nonnull %0), !dbg !487
  br label %bb1, !dbg !487

bb1:                                              ; preds = %start
  ret i32 %1, !dbg !488
}

; core::ops::function::FnOnce::call_once
; Function Attrs: nonlazybind uwtable
define internal i32 @_ZN4core3ops8function6FnOnce9call_once17h6819c8c0a61375e0E(i64* mpk_immut nonnull %0) unnamed_addr #2 personality i32 (i32, i32, i64, %"unwind::libunwind::_Unwind_Exception"*, %"unwind::libunwind::_Unwind_Context"*)* @rust_eh_personality !dbg !489 {
start:
  %1 = alloca { i8*, i32 }, align 8
  %_2 = alloca {}, align 1
  %_1 = alloca i64*, align 8
  store i64* %0, i64** %_1, align 8
  call void @llvm.dbg.declare(metadata i64** %_1, metadata !493, metadata !DIExpression()), !dbg !495
  call void @llvm.dbg.declare(metadata {}* %_2, metadata !494, metadata !DIExpression()), !dbg !496
; invoke std::rt::lang_start::{{closure}}
  %2 = invoke i32 @"_ZN3std2rt10lang_start28_$u7b$$u7b$closure$u7d$$u7d$17hb9edd351df0b39baE"(i64** mpk_immut noalias readonly align 8 dereferenceable(8) %_1)
          to label %bb1 unwind label %cleanup, !dbg !497

bb1:                                              ; preds = %start
  br label %bb2, !dbg !498

bb2:                                              ; preds = %bb1
  ret i32 %2, !dbg !499

bb3:                                              ; preds = %cleanup
  br label %bb4, !dbg !500

bb4:                                              ; preds = %bb3
  %3 = bitcast { i8*, i32 }* %1 to i8**, !dbg !501
  %4 = load i8*, i8** %3, align 8, !dbg !501
  %5 = getelementptr inbounds { i8*, i32 }, { i8*, i32 }* %1, i32 0, i32 1, !dbg !501
  %6 = load i32, i32* %5, align 8, !dbg !501
  %7 = insertvalue { i8*, i32 } undef, i8* %4, 0, !dbg !501
  %8 = insertvalue { i8*, i32 } %7, i32 %6, 1, !dbg !501
  resume { i8*, i32 } %8, !dbg !501

cleanup:                                          ; preds = %start
  %9 = landingpad { i8*, i32 }
          cleanup
  %10 = extractvalue { i8*, i32 } %9, 0
  %11 = extractvalue { i8*, i32 } %9, 1
  %12 = getelementptr inbounds { i8*, i32 }, { i8*, i32 }* %1, i32 0, i32 0
  store i8* %10, i8** %12, align 8
  %13 = getelementptr inbounds { i8*, i32 }, { i8*, i32 }* %1, i32 0, i32 1
  store i32 %11, i32* %13, align 8
  br label %bb3
}

; core::ops::function::FnOnce::call_once
; Function Attrs: nonlazybind uwtable
define internal void @_ZN4core3ops8function6FnOnce9call_once17hb23e66519e6058dcE(void ()* mpk_immut nonnull %_1) unnamed_addr #2 !dbg !502 {
start:
  %_1.dbg.spill = alloca void ()*, align 8
  %_2 = alloca {}, align 1
  store void ()* %_1, void ()** %_1.dbg.spill, align 8
  call void @llvm.dbg.declare(metadata void ()** %_1.dbg.spill, metadata !504, metadata !DIExpression()), !dbg !508
  call void @llvm.dbg.declare(metadata {}* %_2, metadata !505, metadata !DIExpression()), !dbg !509
  call void %_1(), !dbg !510
  br label %bb1, !dbg !510

bb1:                                              ; preds = %start
  ret void, !dbg !511
}

; core::ptr::drop_in_place
; Function Attrs: nonlazybind uwtable
define internal void @_ZN4core3ptr13drop_in_place17h2bc33b11b14bed39E({ i32*, i64 }* mpk_unsafe %_1) unnamed_addr #2 !dbg !512 {
start:
  %_1.dbg.spill = alloca { i32*, i64 }*, align 8
  %0 = alloca {}, align 1
  store { i32*, i64 }* %_1, { i32*, i64 }** %_1.dbg.spill, align 8
  call void @llvm.dbg.declare(metadata { i32*, i64 }** %_1.dbg.spill, metadata !518, metadata !DIExpression()), !dbg !521
; call <alloc::raw_vec::RawVec<T,A> as core::ops::drop::Drop>::drop
  call void @"_ZN77_$LT$alloc..raw_vec..RawVec$LT$T$C$A$GT$$u20$as$u20$core..ops..drop..Drop$GT$4drop17h341e4cb7a5d5481aE"({ i32*, i64 }* align 8 dereferenceable(16) %_1), !dbg !522
  br label %bb1, !dbg !522

bb1:                                              ; preds = %start
  ret void, !dbg !523
}

; core::ptr::drop_in_place
; Function Attrs: nonlazybind uwtable
define internal void @_ZN4core3ptr13drop_in_place17ha5abf38ba303dd87E(i32** mpk_unsafe %_1) unnamed_addr #2 !dbg !524 {
start:
  %_1.dbg.spill = alloca i32**, align 8
  %0 = alloca {}, align 1
  store i32** %_1, i32*** %_1.dbg.spill, align 8
  call void @llvm.dbg.declare(metadata i32*** %_1.dbg.spill, metadata !529, metadata !DIExpression()), !dbg !530
  ret void, !dbg !531
}

; core::ptr::drop_in_place
; Function Attrs: nonlazybind uwtable
define internal void @_ZN4core3ptr13drop_in_place17hb95ca1738c2cdf43E({ [0 x i32]*, i64 }* mpk_unsafe %_1) unnamed_addr #2 personality i32 (i32, i32, i64, %"unwind::libunwind::_Unwind_Exception"*, %"unwind::libunwind::_Unwind_Context"*)* @rust_eh_personality !dbg !532 {
start:
  %0 = alloca { i8*, i32 }, align 8
  %_1.dbg.spill = alloca { [0 x i32]*, i64 }*, align 8
  %1 = alloca {}, align 1
  store { [0 x i32]*, i64 }* %_1, { [0 x i32]*, i64 }** %_1.dbg.spill, align 8
  call void @llvm.dbg.declare(metadata { [0 x i32]*, i64 }** %_1.dbg.spill, metadata !546, metadata !DIExpression()), !dbg !549
  br label %bb3, !dbg !550

bb1:                                              ; preds = %bb3
  ret void, !dbg !551

bb2:                                              ; preds = %bb4
  %2 = bitcast { i8*, i32 }* %0 to i8**, !dbg !552
  %3 = load i8*, i8** %2, align 8, !dbg !552
  %4 = getelementptr inbounds { i8*, i32 }, { i8*, i32 }* %0, i32 0, i32 1, !dbg !552
  %5 = load i32, i32* %4, align 8, !dbg !552
  %6 = insertvalue { i8*, i32 } undef, i8* %3, 0, !dbg !552
  %7 = insertvalue { i8*, i32 } %6, i32 %5, 1, !dbg !552
  resume { i8*, i32 } %7, !dbg !552

bb3:                                              ; preds = %start
  %8 = bitcast { [0 x i32]*, i64 }* %_1 to { i32*, i64 }*, !dbg !553, !MPK-SmartPointer !267
  %9 = getelementptr inbounds { i32*, i64 }, { i32*, i64 }* %8, i32 0, i32 0, !dbg !553
  %10 = load i32*, i32** %9, align 8, !dbg !553, !nonnull !4
  %11 = getelementptr inbounds { i32*, i64 }, { i32*, i64 }* %8, i32 0, i32 1, !dbg !553
  %12 = load i64, i64* %11, align 8, !dbg !553
; call alloc::alloc::box_free
  call void @_ZN5alloc5alloc8box_free17h4eb0efa0847cbcc8E(i32* mpk_immut mpk_unsafe nonnull %10, i64 %12), !dbg !553
  br label %bb1, !dbg !553

bb4:                                              ; No predecessors!
  %13 = bitcast { [0 x i32]*, i64 }* %_1 to { i32*, i64 }*, !dbg !554, !MPK-SmartPointer !267
  %14 = getelementptr inbounds { i32*, i64 }, { i32*, i64 }* %13, i32 0, i32 0, !dbg !554
  %15 = load i32*, i32** %14, align 8, !dbg !554, !nonnull !4
  %16 = getelementptr inbounds { i32*, i64 }, { i32*, i64 }* %13, i32 0, i32 1, !dbg !554
  %17 = load i64, i64* %16, align 8, !dbg !554
; call alloc::alloc::box_free
  call void @_ZN5alloc5alloc8box_free17h4eb0efa0847cbcc8E(i32* mpk_immut mpk_unsafe nonnull %15, i64 %17) #11, !dbg !554
  br label %bb2, !dbg !554
}

; core::ptr::drop_in_place
; Function Attrs: nonlazybind uwtable
define internal void @_ZN4core3ptr13drop_in_place17he71c51a51103e6a2E(i64** mpk_unsafe %_1) unnamed_addr #2 !dbg !555 {
start:
  %_1.dbg.spill = alloca i64**, align 8
  %0 = alloca {}, align 1
  store i64** %_1, i64*** %_1.dbg.spill, align 8
  call void @llvm.dbg.declare(metadata i64*** %_1.dbg.spill, metadata !559, metadata !DIExpression()), !dbg !562
  ret void, !dbg !563
}

; core::ptr::drop_in_place
; Function Attrs: nonlazybind uwtable
define internal void @_ZN4core3ptr13drop_in_place17hf8a477c2ec03626aE(%"std::vec::Vec<i32>"* mpk_unsafe %_1) unnamed_addr #2 personality i32 (i32, i32, i64, %"unwind::libunwind::_Unwind_Exception"*, %"unwind::libunwind::_Unwind_Context"*)* @rust_eh_personality !dbg !564 {
start:
  %0 = alloca { i8*, i32 }, align 8
  %_1.dbg.spill = alloca %"std::vec::Vec<i32>"*, align 8
  %1 = alloca {}, align 1
  store %"std::vec::Vec<i32>"* %_1, %"std::vec::Vec<i32>"** %_1.dbg.spill, align 8
  call void @llvm.dbg.declare(metadata %"std::vec::Vec<i32>"** %_1.dbg.spill, metadata !569, metadata !DIExpression()), !dbg !570
; invoke <alloc::vec::Vec<T> as core::ops::drop::Drop>::drop
  invoke void @"_ZN66_$LT$alloc..vec..Vec$LT$T$GT$$u20$as$u20$core..ops..drop..Drop$GT$4drop17hf1fa165543401aa5E"(%"std::vec::Vec<i32>"* align 8 dereferenceable(24) %_1)
          to label %bb4 unwind label %cleanup, !dbg !571

bb1:                                              ; preds = %bb3
  %2 = bitcast { i8*, i32 }* %0 to i8**, !dbg !572
  %3 = load i8*, i8** %2, align 8, !dbg !572
  %4 = getelementptr inbounds { i8*, i32 }, { i8*, i32 }* %0, i32 0, i32 1, !dbg !572
  %5 = load i32, i32* %4, align 8, !dbg !572
  %6 = insertvalue { i8*, i32 } undef, i8* %3, 0, !dbg !572
  %7 = insertvalue { i8*, i32 } %6, i32 %5, 1, !dbg !572
  resume { i8*, i32 } %7, !dbg !572

bb2:                                              ; preds = %bb4
  ret void, !dbg !573

bb3:                                              ; preds = %cleanup
  %8 = bitcast %"std::vec::Vec<i32>"* %_1 to { i32*, i64 }*, !dbg !574, !MPK-SmartPointer !267
; call core::ptr::drop_in_place
  call void @_ZN4core3ptr13drop_in_place17h2bc33b11b14bed39E({ i32*, i64 }* mpk_unsafe %8) #11, !dbg !574
  br label %bb1, !dbg !574

bb4:                                              ; preds = %start
  %9 = bitcast %"std::vec::Vec<i32>"* %_1 to { i32*, i64 }*, !dbg !575, !MPK-SmartPointer !267
; call core::ptr::drop_in_place
  call void @_ZN4core3ptr13drop_in_place17h2bc33b11b14bed39E({ i32*, i64 }* mpk_unsafe %9), !dbg !575
  br label %bb2, !dbg !575

cleanup:                                          ; preds = %start
  %10 = landingpad { i8*, i32 }
          cleanup
  %11 = extractvalue { i8*, i32 } %10, 0
  %12 = extractvalue { i8*, i32 } %10, 1
  %13 = getelementptr inbounds { i8*, i32 }, { i8*, i32 }* %0, i32 0, i32 0
  store i8* %11, i8** %13, align 8
  %14 = getelementptr inbounds { i8*, i32 }, { i8*, i32 }* %0, i32 0, i32 1
  store i32 %12, i32* %14, align 8
  br label %bb3
}

; core::ptr::slice_from_raw_parts
; Function Attrs: inlinehint nonlazybind uwtable
define internal { [0 x i32]*, i64 } @_ZN4core3ptr20slice_from_raw_parts17h4db2e16f33e9c7faE(i32* mpk_immut %data, i64 %len) unnamed_addr #0 !dbg !576 {
start:
  %len.dbg.spill = alloca i64, align 8
  %data.dbg.spill = alloca i32*, align 8
  %_4 = alloca { i32*, i64 }, align 8
  %_3 = alloca %"std::ptr::Repr<i32>", align 8, !MPK-SmartPointer !267
  store i32* %data, i32** %data.dbg.spill, align 8
  call void @llvm.dbg.declare(metadata i32** %data.dbg.spill, metadata !584, metadata !DIExpression()), !dbg !586
  store i64 %len, i64* %len.dbg.spill, align 8
  call void @llvm.dbg.declare(metadata i64* %len.dbg.spill, metadata !585, metadata !DIExpression()), !dbg !587
  %0 = bitcast { i32*, i64 }* %_4 to i32**, !dbg !588
  store i32* %data, i32** %0, align 8, !dbg !588
  %1 = getelementptr inbounds { i32*, i64 }, { i32*, i64 }* %_4, i32 0, i32 1, !dbg !589
  store i64 %len, i64* %1, align 8, !dbg !589
  %2 = bitcast %"std::ptr::Repr<i32>"* %_3 to { i32*, i64 }*, !dbg !590
  %3 = getelementptr inbounds { i32*, i64 }, { i32*, i64 }* %_4, i32 0, i32 0, !dbg !590
  %4 = load i32*, i32** %3, align 8, !dbg !590
  %5 = getelementptr inbounds { i32*, i64 }, { i32*, i64 }* %_4, i32 0, i32 1, !dbg !590
  %6 = load i64, i64* %5, align 8, !dbg !590
  %7 = getelementptr inbounds { i32*, i64 }, { i32*, i64 }* %2, i32 0, i32 0, !dbg !590
  store i32* %4, i32** %7, align 8, !dbg !590
  %8 = getelementptr inbounds { i32*, i64 }, { i32*, i64 }* %2, i32 0, i32 1, !dbg !590
  store i64 %6, i64* %8, align 8, !dbg !590
  %9 = bitcast %"std::ptr::Repr<i32>"* %_3 to { [0 x i32]*, i64 }*, !dbg !591, !MPK-SmartPointer !267
  %10 = getelementptr inbounds { [0 x i32]*, i64 }, { [0 x i32]*, i64 }* %9, i32 0, i32 0, !dbg !591
  %11 = load [0 x i32]*, [0 x i32]** %10, align 8, !dbg !591
  %12 = getelementptr inbounds { [0 x i32]*, i64 }, { [0 x i32]*, i64 }* %9, i32 0, i32 1, !dbg !591
  %13 = load i64, i64* %12, align 8, !dbg !591
  %14 = insertvalue { [0 x i32]*, i64 } undef, [0 x i32]* %11, 0, !dbg !592
  %15 = insertvalue { [0 x i32]*, i64 } %14, i64 %13, 1, !dbg !592
  ret { [0 x i32]*, i64 } %15, !dbg !592
}

; core::ptr::slice_from_raw_parts_mut
; Function Attrs: inlinehint nonlazybind uwtable
define internal { [0 x i32]*, i64 } @_ZN4core3ptr24slice_from_raw_parts_mut17h2956f75533fe9ee5E(i32* %data, i64 %len) unnamed_addr #0 !dbg !593 {
start:
  %len.dbg.spill = alloca i64, align 8
  %data.dbg.spill = alloca i32*, align 8
  %_4 = alloca { i32*, i64 }, align 8
  %_3 = alloca %"std::ptr::Repr<i32>", align 8, !MPK-SmartPointer !267
  store i32* %data, i32** %data.dbg.spill, align 8
  call void @llvm.dbg.declare(metadata i32** %data.dbg.spill, metadata !602, metadata !DIExpression()), !dbg !604
  store i64 %len, i64* %len.dbg.spill, align 8
  call void @llvm.dbg.declare(metadata i64* %len.dbg.spill, metadata !603, metadata !DIExpression()), !dbg !605
  %0 = bitcast { i32*, i64 }* %_4 to i32**, !dbg !606
  store i32* %data, i32** %0, align 8, !dbg !606
  %1 = getelementptr inbounds { i32*, i64 }, { i32*, i64 }* %_4, i32 0, i32 1, !dbg !607
  store i64 %len, i64* %1, align 8, !dbg !607
  %2 = bitcast %"std::ptr::Repr<i32>"* %_3 to { i32*, i64 }*, !dbg !608
  %3 = getelementptr inbounds { i32*, i64 }, { i32*, i64 }* %_4, i32 0, i32 0, !dbg !608
  %4 = load i32*, i32** %3, align 8, !dbg !608
  %5 = getelementptr inbounds { i32*, i64 }, { i32*, i64 }* %_4, i32 0, i32 1, !dbg !608
  %6 = load i64, i64* %5, align 8, !dbg !608
  %7 = getelementptr inbounds { i32*, i64 }, { i32*, i64 }* %2, i32 0, i32 0, !dbg !608
  store i32* %4, i32** %7, align 8, !dbg !608
  %8 = getelementptr inbounds { i32*, i64 }, { i32*, i64 }* %2, i32 0, i32 1, !dbg !608
  store i64 %6, i64* %8, align 8, !dbg !608
  %9 = bitcast %"std::ptr::Repr<i32>"* %_3 to { [0 x i32]*, i64 }*, !dbg !609, !MPK-SmartPointer !267
  %10 = getelementptr inbounds { [0 x i32]*, i64 }, { [0 x i32]*, i64 }* %9, i32 0, i32 0, !dbg !609
  %11 = load [0 x i32]*, [0 x i32]** %10, align 8, !dbg !609
  %12 = getelementptr inbounds { [0 x i32]*, i64 }, { [0 x i32]*, i64 }* %9, i32 0, i32 1, !dbg !609
  %13 = load i64, i64* %12, align 8, !dbg !609
  %14 = insertvalue { [0 x i32]*, i64 } undef, [0 x i32]* %11, 0, !dbg !610
  %15 = insertvalue { [0 x i32]*, i64 } %14, i64 %13, 1, !dbg !610
  ret { [0 x i32]*, i64 } %15, !dbg !610
}

; core::ptr::slice_from_raw_parts_mut
; Function Attrs: inlinehint nonlazybind uwtable
define internal { [0 x i8]*, i64 } @_ZN4core3ptr24slice_from_raw_parts_mut17hb205f168a3200b39E(i8* %data, i64 %len) unnamed_addr #0 !dbg !611 {
start:
  %len.dbg.spill = alloca i64, align 8
  %data.dbg.spill = alloca i8*, align 8
  %_4 = alloca { i8*, i64 }, align 8
  %_3 = alloca %"std::ptr::Repr<u8>", align 8, !MPK-SmartPointer !267
  store i8* %data, i8** %data.dbg.spill, align 8
  call void @llvm.dbg.declare(metadata i8** %data.dbg.spill, metadata !619, metadata !DIExpression()), !dbg !621
  store i64 %len, i64* %len.dbg.spill, align 8
  call void @llvm.dbg.declare(metadata i64* %len.dbg.spill, metadata !620, metadata !DIExpression()), !dbg !622
  %0 = bitcast { i8*, i64 }* %_4 to i8**, !dbg !623
  store i8* %data, i8** %0, align 8, !dbg !623
  %1 = getelementptr inbounds { i8*, i64 }, { i8*, i64 }* %_4, i32 0, i32 1, !dbg !624
  store i64 %len, i64* %1, align 8, !dbg !624
  %2 = bitcast %"std::ptr::Repr<u8>"* %_3 to { i8*, i64 }*, !dbg !625
  %3 = getelementptr inbounds { i8*, i64 }, { i8*, i64 }* %_4, i32 0, i32 0, !dbg !625
  %4 = load i8*, i8** %3, align 8, !dbg !625
  %5 = getelementptr inbounds { i8*, i64 }, { i8*, i64 }* %_4, i32 0, i32 1, !dbg !625
  %6 = load i64, i64* %5, align 8, !dbg !625
  %7 = getelementptr inbounds { i8*, i64 }, { i8*, i64 }* %2, i32 0, i32 0, !dbg !625
  store i8* %4, i8** %7, align 8, !dbg !625
  %8 = getelementptr inbounds { i8*, i64 }, { i8*, i64 }* %2, i32 0, i32 1, !dbg !625
  store i64 %6, i64* %8, align 8, !dbg !625
  %9 = bitcast %"std::ptr::Repr<u8>"* %_3 to { [0 x i8]*, i64 }*, !dbg !626, !MPK-SmartPointer !267
  %10 = getelementptr inbounds { [0 x i8]*, i64 }, { [0 x i8]*, i64 }* %9, i32 0, i32 0, !dbg !626
  %11 = load [0 x i8]*, [0 x i8]** %10, align 8, !dbg !626
  %12 = getelementptr inbounds { [0 x i8]*, i64 }, { [0 x i8]*, i64 }* %9, i32 0, i32 1, !dbg !626
  %13 = load i64, i64* %12, align 8, !dbg !626
  %14 = insertvalue { [0 x i8]*, i64 } undef, [0 x i8]* %11, 0, !dbg !627
  %15 = insertvalue { [0 x i8]*, i64 } %14, i64 %13, 1, !dbg !627
  ret { [0 x i8]*, i64 } %15, !dbg !627
}

; core::ptr::read
; Function Attrs: inlinehint nonlazybind uwtable
define internal void @_ZN4core3ptr4read17h07d7b66b3db4ed97E(%"std::alloc::Global"* mpk_immut mpk_unsafe %src) unnamed_addr #0 !dbg !628 {
start:
  %self.dbg.spill.i = alloca %"std::mem::MaybeUninit<std::alloc::Global>"*, align 8
  %0 = alloca %"std::mem::MaybeUninit<std::alloc::Global>", align 1
  %src.dbg.spill = alloca %"std::alloc::Global"*, align 8
  %tmp = alloca %"std::mem::MaybeUninit<std::alloc::Global>", align 1
  store %"std::alloc::Global"* %src, %"std::alloc::Global"** %src.dbg.spill, align 8
  call void @llvm.dbg.declare(metadata %"std::alloc::Global"** %src.dbg.spill, metadata !632, metadata !DIExpression()), !dbg !645
  call void @llvm.dbg.declare(metadata %"std::mem::MaybeUninit<std::alloc::Global>"* %tmp, metadata !633, metadata !DIExpression()), !dbg !646
  %1 = bitcast %"std::mem::MaybeUninit<std::alloc::Global>"* %0 to {}*, !dbg !647
  br label %bb1, !dbg !651

bb1:                                              ; preds = %start
  store %"std::mem::MaybeUninit<std::alloc::Global>"* %tmp, %"std::mem::MaybeUninit<std::alloc::Global>"** %self.dbg.spill.i, align 8
  call void @llvm.dbg.declare(metadata %"std::mem::MaybeUninit<std::alloc::Global>"** %self.dbg.spill.i, metadata !652, metadata !DIExpression()), !dbg !658
  %2 = bitcast %"std::mem::MaybeUninit<std::alloc::Global>"* %tmp to %"std::alloc::Global"*, !dbg !660
  br label %bb2, !dbg !661

bb2:                                              ; preds = %bb1
; call core::intrinsics::copy_nonoverlapping
  call void @_ZN4core10intrinsics19copy_nonoverlapping17hb0ab29d3176509b4E(%"std::alloc::Global"* mpk_immut mpk_unsafe %src, %"std::alloc::Global"* mpk_unsafe %2, i64 1), !dbg !662
  br label %bb3, !dbg !662

bb3:                                              ; preds = %bb2
  call void @llvm.dbg.declare(metadata %"std::mem::MaybeUninit<std::alloc::Global>"* undef, metadata !663, metadata !DIExpression()), !dbg !668
  call void @llvm.dbg.declare(metadata %"std::mem::ManuallyDrop<std::alloc::Global>"* undef, metadata !670, metadata !DIExpression()), !dbg !676
  br label %bb4, !dbg !678

bb4:                                              ; preds = %bb3
  ret void, !dbg !679
}

; core::ptr::unique::Unique<T>::new_unchecked
; Function Attrs: inlinehint nonlazybind uwtable
define internal mpk_immut mpk_unsafe nonnull i32* @"_ZN4core3ptr6unique15Unique$LT$T$GT$13new_unchecked17h42b2342089c55d30E"(i32* mpk_unsafe %ptr) unnamed_addr #0 !dbg !680 {
start:
  %ptr.dbg.spill = alloca i32*, align 8
  %_5 = alloca %"std::marker::PhantomData<i32>", align 1
  %0 = alloca i32*, align 8
  store i32* %ptr, i32** %ptr.dbg.spill, align 8
  call void @llvm.dbg.declare(metadata i32** %ptr.dbg.spill, metadata !685, metadata !DIExpression()), !dbg !686
  store i32* %ptr, i32** %0, align 8, !dbg !687
  %1 = bitcast i32** %0 to %"std::marker::PhantomData<i32>"*, !dbg !688
  %2 = load i32*, i32** %0, align 8, !dbg !689, !nonnull !4
  ret i32* %2, !dbg !689
}

; core::ptr::unique::Unique<T>::new_unchecked
; Function Attrs: inlinehint nonlazybind uwtable
define internal mpk_immut mpk_unsafe nonnull i8* @"_ZN4core3ptr6unique15Unique$LT$T$GT$13new_unchecked17hd16198121d48074aE"(i8* mpk_unsafe %ptr) unnamed_addr #0 !dbg !690 {
start:
  %ptr.dbg.spill = alloca i8*, align 8
  %_5 = alloca %"std::marker::PhantomData<u8>", align 1
  %0 = alloca i8*, align 8
  store i8* %ptr, i8** %ptr.dbg.spill, align 8
  call void @llvm.dbg.declare(metadata i8** %ptr.dbg.spill, metadata !694, metadata !DIExpression()), !dbg !695
  store i8* %ptr, i8** %0, align 8, !dbg !696
  %1 = bitcast i8** %0 to %"std::marker::PhantomData<u8>"*, !dbg !697
  %2 = load i8*, i8** %0, align 8, !dbg !698, !nonnull !4
  ret i8* %2, !dbg !698
}

; core::ptr::unique::Unique<T>::cast
; Function Attrs: inlinehint nonlazybind uwtable
define internal mpk_immut nonnull i8* @"_ZN4core3ptr6unique15Unique$LT$T$GT$4cast17h5926825bea614c1eE"(i32* mpk_immut nonnull %self.0, i64 %self.1) unnamed_addr #0 !dbg !699 {
start:
  %self.dbg.spill = alloca { i32*, i64 }, align 8
  %0 = getelementptr inbounds { i32*, i64 }, { i32*, i64 }* %self.dbg.spill, i32 0, i32 0
  store i32* %self.0, i32** %0, align 8
  %1 = getelementptr inbounds { i32*, i64 }, { i32*, i64 }* %self.dbg.spill, i32 0, i32 1
  store i64 %self.1, i64* %1, align 8
  call void @llvm.dbg.declare(metadata { i32*, i64 }* %self.dbg.spill, metadata !709, metadata !DIExpression()), !dbg !712
; call core::ptr::unique::Unique<T>::as_ptr
  %2 = call { [0 x i32]*, i64 } @"_ZN4core3ptr6unique15Unique$LT$T$GT$6as_ptr17h63fe3d5caa7ed3a5E"(i32* mpk_immut nonnull %self.0, i64 %self.1), !dbg !713
  %_3.0 = extractvalue { [0 x i32]*, i64 } %2, 0, !dbg !713
  %_3.1 = extractvalue { [0 x i32]*, i64 } %2, 1, !dbg !713
  br label %bb1, !dbg !713

bb1:                                              ; preds = %start
  %_2 = bitcast [0 x i32]* %_3.0 to i8*, !dbg !714
; call core::ptr::unique::Unique<T>::new_unchecked
  %3 = call mpk_immut mpk_unsafe nonnull i8* @"_ZN4core3ptr6unique15Unique$LT$T$GT$13new_unchecked17hd16198121d48074aE"(i8* mpk_unsafe %_2), !dbg !715
  br label %bb2, !dbg !715

bb2:                                              ; preds = %bb1
  ret i8* %3, !dbg !716
}

; core::ptr::unique::Unique<T>::cast
; Function Attrs: inlinehint nonlazybind uwtable
define internal mpk_immut nonnull i8* @"_ZN4core3ptr6unique15Unique$LT$T$GT$4cast17h9daf1f8b1d441bdaE"(i32* mpk_immut nonnull %self) unnamed_addr #0 !dbg !717 {
start:
  %self.dbg.spill = alloca i32*, align 8
  store i32* %self, i32** %self.dbg.spill, align 8
  call void @llvm.dbg.declare(metadata i32** %self.dbg.spill, metadata !721, metadata !DIExpression()), !dbg !723
; call core::ptr::unique::Unique<T>::as_ptr
  %_3 = call i32* @"_ZN4core3ptr6unique15Unique$LT$T$GT$6as_ptr17he85cdfdca767e0fcE"(i32* mpk_immut nonnull %self), !dbg !724
  br label %bb1, !dbg !724

bb1:                                              ; preds = %start
  %_2 = bitcast i32* %_3 to i8*, !dbg !725
; call core::ptr::unique::Unique<T>::new_unchecked
  %0 = call mpk_immut mpk_unsafe nonnull i8* @"_ZN4core3ptr6unique15Unique$LT$T$GT$13new_unchecked17hd16198121d48074aE"(i8* mpk_unsafe %_2), !dbg !726
  br label %bb2, !dbg !726

bb2:                                              ; preds = %bb1
  ret i8* %0, !dbg !727
}

; core::ptr::unique::Unique<T>::as_ptr
; Function Attrs: inlinehint nonlazybind uwtable
define internal i8* @"_ZN4core3ptr6unique15Unique$LT$T$GT$6as_ptr17h3069ab60452fc392E"(i8* mpk_immut nonnull %self) unnamed_addr #0 !dbg !728 {
start:
  %self.dbg.spill = alloca i8*, align 8
  store i8* %self, i8** %self.dbg.spill, align 8
  call void @llvm.dbg.declare(metadata i8** %self.dbg.spill, metadata !732, metadata !DIExpression()), !dbg !733
  ret i8* %self, !dbg !734
}

; core::ptr::unique::Unique<T>::as_ptr
; Function Attrs: inlinehint nonlazybind uwtable
define internal { [0 x i32]*, i64 } @"_ZN4core3ptr6unique15Unique$LT$T$GT$6as_ptr17h63fe3d5caa7ed3a5E"(i32* mpk_immut nonnull %self.0, i64 %self.1) unnamed_addr #0 !dbg !735 {
start:
  %self.dbg.spill = alloca { i32*, i64 }, align 8
  %0 = getelementptr inbounds { i32*, i64 }, { i32*, i64 }* %self.dbg.spill, i32 0, i32 0
  store i32* %self.0, i32** %0, align 8
  %1 = getelementptr inbounds { i32*, i64 }, { i32*, i64 }* %self.dbg.spill, i32 0, i32 1
  store i64 %self.1, i64* %1, align 8
  call void @llvm.dbg.declare(metadata { i32*, i64 }* %self.dbg.spill, metadata !739, metadata !DIExpression()), !dbg !740
  %_2.0 = bitcast i32* %self.0 to [0 x i32]*, !dbg !741, !MPK-SmartPointer !267
  %2 = insertvalue { [0 x i32]*, i64 } undef, [0 x i32]* %_2.0, 0, !dbg !742
  %3 = insertvalue { [0 x i32]*, i64 } %2, i64 %self.1, 1, !dbg !742
  ret { [0 x i32]*, i64 } %3, !dbg !742
}

; core::ptr::unique::Unique<T>::as_ptr
; Function Attrs: inlinehint nonlazybind uwtable
define internal i32* @"_ZN4core3ptr6unique15Unique$LT$T$GT$6as_ptr17he85cdfdca767e0fcE"(i32* mpk_immut nonnull %self) unnamed_addr #0 !dbg !743 {
start:
  %self.dbg.spill = alloca i32*, align 8
  store i32* %self, i32** %self.dbg.spill, align 8
  call void @llvm.dbg.declare(metadata i32** %self.dbg.spill, metadata !747, metadata !DIExpression()), !dbg !748
  ret i32* %self, !dbg !749
}

; core::ptr::unique::Unique<T>::as_ref
; Function Attrs: inlinehint nonlazybind uwtable
define internal { [0 x i32]*, i64 } @"_ZN4core3ptr6unique15Unique$LT$T$GT$6as_ref17h44554a8e8a2ae465E"({ i32*, i64 }* mpk_immut noalias readonly align 8 dereferenceable(16) %self) unnamed_addr #0 !dbg !750 {
start:
  %self.dbg.spill = alloca { i32*, i64 }*, align 8
  store { i32*, i64 }* %self, { i32*, i64 }** %self.dbg.spill, align 8
  call void @llvm.dbg.declare(metadata { i32*, i64 }** %self.dbg.spill, metadata !755, metadata !DIExpression()), !dbg !756
  %0 = getelementptr inbounds { i32*, i64 }, { i32*, i64 }* %self, i32 0, i32 0, !dbg !757
  %_3.0 = load i32*, i32** %0, align 8, !dbg !757, !nonnull !4
  %1 = getelementptr inbounds { i32*, i64 }, { i32*, i64 }* %self, i32 0, i32 1, !dbg !757
  %_3.1 = load i64, i64* %1, align 8, !dbg !757
; call core::ptr::unique::Unique<T>::as_ptr
  %2 = call { [0 x i32]*, i64 } @"_ZN4core3ptr6unique15Unique$LT$T$GT$6as_ptr17h63fe3d5caa7ed3a5E"(i32* mpk_immut nonnull %_3.0, i64 %_3.1), !dbg !758
  %_2.0 = extractvalue { [0 x i32]*, i64 } %2, 0, !dbg !758
  %_2.1 = extractvalue { [0 x i32]*, i64 } %2, 1, !dbg !758
  br label %bb1, !dbg !758

bb1:                                              ; preds = %start
  %3 = insertvalue { [0 x i32]*, i64 } undef, [0 x i32]* %_2.0, 0, !dbg !759
  %4 = insertvalue { [0 x i32]*, i64 } %3, i64 %_2.1, 1, !dbg !759
  ret { [0 x i32]*, i64 } %4, !dbg !759
}

; core::ptr::mut_ptr::<impl *mut T>::guaranteed_eq
; Function Attrs: inlinehint nonlazybind uwtable
define internal zeroext i1 @"_ZN4core3ptr7mut_ptr31_$LT$impl$u20$$BP$mut$u20$T$GT$13guaranteed_eq17hcfc9ee4d6c3a82a2E"(i8* %self, i8* %other) unnamed_addr #0 !dbg !760 {
start:
  %0 = alloca i8, align 1
  %other.dbg.spill = alloca i8*, align 8
  %self.dbg.spill = alloca i8*, align 8
  store i8* %self, i8** %self.dbg.spill, align 8
  call void @llvm.dbg.declare(metadata i8** %self.dbg.spill, metadata !767, metadata !DIExpression()), !dbg !769
  store i8* %other, i8** %other.dbg.spill, align 8
  call void @llvm.dbg.declare(metadata i8** %other.dbg.spill, metadata !768, metadata !DIExpression()), !dbg !770
  %1 = icmp eq i8* %self, %other, !dbg !771
  %2 = zext i1 %1 to i8, !dbg !771
  store i8 %2, i8* %0, align 1, !dbg !771
  %3 = load i8, i8* %0, align 1, !dbg !771, !range !298
  %4 = trunc i8 %3 to i1, !dbg !771
  br label %bb1, !dbg !771

bb1:                                              ; preds = %start
  ret i1 %4, !dbg !772
}

; core::ptr::mut_ptr::<impl *mut T>::offset
; Function Attrs: inlinehint nonlazybind uwtable
define internal mpk_unsafe i32* @"_ZN4core3ptr7mut_ptr31_$LT$impl$u20$$BP$mut$u20$T$GT$6offset17h5250e853408cb246E"(i32* mpk_unsafe %self, i64 %count) unnamed_addr #0 !dbg !773 {
start:
  %0 = alloca i32*, align 8
  %count.dbg.spill = alloca i64, align 8
  %self.dbg.spill = alloca i32*, align 8
  store i32* %self, i32** %self.dbg.spill, align 8
  call void @llvm.dbg.declare(metadata i32** %self.dbg.spill, metadata !777, metadata !DIExpression()), !dbg !779
  store i64 %count, i64* %count.dbg.spill, align 8
  call void @llvm.dbg.declare(metadata i64* %count.dbg.spill, metadata !778, metadata !DIExpression()), !dbg !780
  %1 = getelementptr inbounds i32, i32* %self, i64 %count, !dbg !781
  store i32* %1, i32** %0, align 8, !dbg !781
  %_3 = load i32*, i32** %0, align 8, !dbg !781
  br label %bb1, !dbg !781

bb1:                                              ; preds = %start
  ret i32* %_3, !dbg !782
}

; core::ptr::mut_ptr::<impl *mut T>::is_null
; Function Attrs: inlinehint nonlazybind uwtable
define internal zeroext i1 @"_ZN4core3ptr7mut_ptr31_$LT$impl$u20$$BP$mut$u20$T$GT$7is_null17h114c66d7a3dfb0c4E"(i8* %self) unnamed_addr #0 !dbg !783 {
start:
  %self.dbg.spill = alloca i8*, align 8
  store i8* %self, i8** %self.dbg.spill, align 8
  call void @llvm.dbg.declare(metadata i8** %self.dbg.spill, metadata !787, metadata !DIExpression()), !dbg !788
  br label %bb1, !dbg !789

bb1:                                              ; preds = %start
; call core::ptr::mut_ptr::<impl *mut T>::guaranteed_eq
  %0 = call zeroext i1 @"_ZN4core3ptr7mut_ptr31_$LT$impl$u20$$BP$mut$u20$T$GT$13guaranteed_eq17hcfc9ee4d6c3a82a2E"(i8* %self, i8* null), !dbg !790
  br label %bb2, !dbg !790

bb2:                                              ; preds = %bb1
  ret i1 %0, !dbg !791
}

; core::ptr::mut_ptr::<impl *mut T>::is_null
; Function Attrs: inlinehint nonlazybind uwtable
define internal zeroext i1 @"_ZN4core3ptr7mut_ptr31_$LT$impl$u20$$BP$mut$u20$T$GT$7is_null17hc537b8e417870f77E"(i32* %self) unnamed_addr #0 !dbg !792 {
start:
  %self.dbg.spill = alloca i32*, align 8
  store i32* %self, i32** %self.dbg.spill, align 8
  call void @llvm.dbg.declare(metadata i32** %self.dbg.spill, metadata !796, metadata !DIExpression()), !dbg !797
  %_2 = bitcast i32* %self to i8*, !dbg !798
  br label %bb1, !dbg !799

bb1:                                              ; preds = %start
; call core::ptr::mut_ptr::<impl *mut T>::guaranteed_eq
  %0 = call zeroext i1 @"_ZN4core3ptr7mut_ptr31_$LT$impl$u20$$BP$mut$u20$T$GT$13guaranteed_eq17hcfc9ee4d6c3a82a2E"(i8* %_2, i8* null), !dbg !800
  br label %bb2, !dbg !800

bb2:                                              ; preds = %bb1
  ret i1 %0, !dbg !801
}

; core::ptr::mut_ptr::<impl *mut [T]>::as_mut_ptr
; Function Attrs: inlinehint nonlazybind uwtable
define internal i8* @"_ZN4core3ptr7mut_ptr41_$LT$impl$u20$$BP$mut$u20$$u5b$T$u5d$$GT$10as_mut_ptr17hca53dca0c8089c7bE"([0 x i8]* %self.0, i64 %self.1) unnamed_addr #0 !dbg !802 {
start:
  %self.dbg.spill = alloca { [0 x i8]*, i64 }, align 8, !MPK-SmartPointer !267
  %0 = getelementptr inbounds { [0 x i8]*, i64 }, { [0 x i8]*, i64 }* %self.dbg.spill, i32 0, i32 0
  store [0 x i8]* %self.0, [0 x i8]** %0, align 8
  %1 = getelementptr inbounds { [0 x i8]*, i64 }, { [0 x i8]*, i64 }* %self.dbg.spill, i32 0, i32 1
  store i64 %self.1, i64* %1, align 8
  call void @llvm.dbg.declare(metadata { [0 x i8]*, i64 }* %self.dbg.spill, metadata !806, metadata !DIExpression()), !dbg !807
  %2 = bitcast [0 x i8]* %self.0 to i8*, !dbg !808
  ret i8* %2, !dbg !809
}

; core::ptr::non_null::NonNull<T>::new_unchecked
; Function Attrs: inlinehint nonlazybind uwtable
define internal mpk_immut mpk_unsafe nonnull i32* @"_ZN4core3ptr8non_null16NonNull$LT$T$GT$13new_unchecked17h03a0dc91a76cb040E"(i32* mpk_unsafe %ptr) unnamed_addr #0 !dbg !810 {
start:
  %ptr.dbg.spill = alloca i32*, align 8
  %0 = alloca i32*, align 8
  store i32* %ptr, i32** %ptr.dbg.spill, align 8
  call void @llvm.dbg.declare(metadata i32** %ptr.dbg.spill, metadata !814, metadata !DIExpression()), !dbg !815
  store i32* %ptr, i32** %0, align 8, !dbg !816
  %1 = load i32*, i32** %0, align 8, !dbg !817, !nonnull !4
  ret i32* %1, !dbg !817
}

; core::ptr::non_null::NonNull<T>::new_unchecked
; Function Attrs: inlinehint nonlazybind uwtable
define internal { i8*, i64 } @"_ZN4core3ptr8non_null16NonNull$LT$T$GT$13new_unchecked17h659c282977fd6372E"([0 x i8]* mpk_unsafe %ptr.0, i64 %ptr.1) unnamed_addr #0 !dbg !818 {
start:
  %ptr.dbg.spill = alloca { [0 x i8]*, i64 }, align 8, !MPK-SmartPointer !267
  %0 = alloca { i8*, i64 }, align 8, !MPK-SmartPointer !267
  %1 = getelementptr inbounds { [0 x i8]*, i64 }, { [0 x i8]*, i64 }* %ptr.dbg.spill, i32 0, i32 0
  store [0 x i8]* %ptr.0, [0 x i8]** %1, align 8
  %2 = getelementptr inbounds { [0 x i8]*, i64 }, { [0 x i8]*, i64 }* %ptr.dbg.spill, i32 0, i32 1
  store i64 %ptr.1, i64* %2, align 8
  call void @llvm.dbg.declare(metadata { [0 x i8]*, i64 }* %ptr.dbg.spill, metadata !832, metadata !DIExpression()), !dbg !833
  %3 = bitcast { i8*, i64 }* %0 to { [0 x i8]*, i64 }*, !dbg !834, !MPK-SmartPointer !267
  %4 = getelementptr inbounds { [0 x i8]*, i64 }, { [0 x i8]*, i64 }* %3, i32 0, i32 0, !dbg !834
  store [0 x i8]* %ptr.0, [0 x i8]** %4, align 8, !dbg !834
  %5 = getelementptr inbounds { [0 x i8]*, i64 }, { [0 x i8]*, i64 }* %3, i32 0, i32 1, !dbg !834
  store i64 %ptr.1, i64* %5, align 8, !dbg !834
  %6 = getelementptr inbounds { i8*, i64 }, { i8*, i64 }* %0, i32 0, i32 0, !dbg !835
  %7 = load i8*, i8** %6, align 8, !dbg !835, !nonnull !4
  %8 = getelementptr inbounds { i8*, i64 }, { i8*, i64 }* %0, i32 0, i32 1, !dbg !835
  %9 = load i64, i64* %8, align 8, !dbg !835
  %10 = insertvalue { i8*, i64 } undef, i8* %7, 0, !dbg !835
  %11 = insertvalue { i8*, i64 } %10, i64 %9, 1, !dbg !835
  ret { i8*, i64 } %11, !dbg !835
}

; core::ptr::non_null::NonNull<T>::new_unchecked
; Function Attrs: inlinehint nonlazybind uwtable
define internal mpk_immut mpk_unsafe nonnull i8* @"_ZN4core3ptr8non_null16NonNull$LT$T$GT$13new_unchecked17h84ba694ce0d90537E"(i8* mpk_unsafe %ptr) unnamed_addr #0 !dbg !836 {
start:
  %ptr.dbg.spill = alloca i8*, align 8
  %0 = alloca i8*, align 8
  store i8* %ptr, i8** %ptr.dbg.spill, align 8
  call void @llvm.dbg.declare(metadata i8** %ptr.dbg.spill, metadata !840, metadata !DIExpression()), !dbg !841
  store i8* %ptr, i8** %0, align 8, !dbg !842
  %1 = load i8*, i8** %0, align 8, !dbg !843, !nonnull !4
  ret i8* %1, !dbg !843
}

; core::ptr::non_null::NonNull<T>::new
; Function Attrs: inlinehint nonlazybind uwtable
define internal mpk_immut i8* @"_ZN4core3ptr8non_null16NonNull$LT$T$GT$3new17he9440fa3bb331ca6E"(i8* %ptr) unnamed_addr #0 !dbg !844 {
start:
  %ptr.dbg.spill = alloca i8*, align 8
  %0 = alloca i8*, align 8
  store i8* %ptr, i8** %ptr.dbg.spill, align 8
  call void @llvm.dbg.declare(metadata i8** %ptr.dbg.spill, metadata !860, metadata !DIExpression()), !dbg !861
; call core::ptr::mut_ptr::<impl *mut T>::is_null
  %_3 = call zeroext i1 @"_ZN4core3ptr7mut_ptr31_$LT$impl$u20$$BP$mut$u20$T$GT$7is_null17h114c66d7a3dfb0c4E"(i8* %ptr), !dbg !862
  br label %bb1, !dbg !862

bb1:                                              ; preds = %start
  %_2 = xor i1 %_3, true, !dbg !863
  br i1 %_2, label %bb3, label %bb2, !dbg !864

bb2:                                              ; preds = %bb1
  %1 = bitcast i8** %0 to {}**, !dbg !865
  store {}* null, {}** %1, align 8, !dbg !865
  br label %bb5, !dbg !866

bb3:                                              ; preds = %bb1
; call core::ptr::non_null::NonNull<T>::new_unchecked
  %_5 = call mpk_immut mpk_unsafe nonnull i8* @"_ZN4core3ptr8non_null16NonNull$LT$T$GT$13new_unchecked17h84ba694ce0d90537E"(i8* mpk_unsafe %ptr), !dbg !867
  br label %bb4, !dbg !867

bb4:                                              ; preds = %bb3
  store i8* %_5, i8** %0, align 8, !dbg !868
  br label %bb5, !dbg !869

bb5:                                              ; preds = %bb2, %bb4
  %2 = load i8*, i8** %0, align 8, !dbg !870
  ret i8* %2, !dbg !870
}

; core::ptr::non_null::NonNull<T>::as_ptr
; Function Attrs: inlinehint nonlazybind uwtable
define internal i32* @"_ZN4core3ptr8non_null16NonNull$LT$T$GT$6as_ptr17h18abd5f41d5005e0E"(i32* mpk_immut nonnull %self) unnamed_addr #0 !dbg !871 {
start:
  %self.dbg.spill = alloca i32*, align 8
  store i32* %self, i32** %self.dbg.spill, align 8
  call void @llvm.dbg.declare(metadata i32** %self.dbg.spill, metadata !875, metadata !DIExpression()), !dbg !876
  ret i32* %self, !dbg !877
}

; core::ptr::non_null::NonNull<T>::as_ptr
; Function Attrs: inlinehint nonlazybind uwtable
define internal { [0 x i8]*, i64 } @"_ZN4core3ptr8non_null16NonNull$LT$T$GT$6as_ptr17haedcecef81d78fe6E"(i8* mpk_immut nonnull %self.0, i64 %self.1) unnamed_addr #0 !dbg !878 {
start:
  %self.dbg.spill = alloca { i8*, i64 }, align 8
  %0 = getelementptr inbounds { i8*, i64 }, { i8*, i64 }* %self.dbg.spill, i32 0, i32 0
  store i8* %self.0, i8** %0, align 8
  %1 = getelementptr inbounds { i8*, i64 }, { i8*, i64 }* %self.dbg.spill, i32 0, i32 1
  store i64 %self.1, i64* %1, align 8
  call void @llvm.dbg.declare(metadata { i8*, i64 }* %self.dbg.spill, metadata !882, metadata !DIExpression()), !dbg !883
  %_2.0 = bitcast i8* %self.0 to [0 x i8]*, !dbg !884, !MPK-SmartPointer !267
  %2 = insertvalue { [0 x i8]*, i64 } undef, [0 x i8]* %_2.0, 0, !dbg !885
  %3 = insertvalue { [0 x i8]*, i64 } %2, i64 %self.1, 1, !dbg !885
  ret { [0 x i8]*, i64 } %3, !dbg !885
}

; core::ptr::non_null::NonNull<T>::as_ptr
; Function Attrs: inlinehint nonlazybind uwtable
define internal i8* @"_ZN4core3ptr8non_null16NonNull$LT$T$GT$6as_ptr17hc3b49d66ee974de8E"(i8* mpk_immut nonnull %self) unnamed_addr #0 !dbg !886 {
start:
  %self.dbg.spill = alloca i8*, align 8
  store i8* %self, i8** %self.dbg.spill, align 8
  call void @llvm.dbg.declare(metadata i8** %self.dbg.spill, metadata !890, metadata !DIExpression()), !dbg !891
  ret i8* %self, !dbg !892
}

; core::ptr::non_null::NonNull<[T]>::as_mut_ptr
; Function Attrs: inlinehint nonlazybind uwtable
define internal i8* @"_ZN4core3ptr8non_null26NonNull$LT$$u5b$T$u5d$$GT$10as_mut_ptr17he10adf85e17fa53bE"(i8* mpk_immut nonnull %self.0, i64 %self.1) unnamed_addr #0 !dbg !893 {
start:
  %self.dbg.spill = alloca { i8*, i64 }, align 8
  %0 = getelementptr inbounds { i8*, i64 }, { i8*, i64 }* %self.dbg.spill, i32 0, i32 0
  store i8* %self.0, i8** %0, align 8
  %1 = getelementptr inbounds { i8*, i64 }, { i8*, i64 }* %self.dbg.spill, i32 0, i32 1
  store i64 %self.1, i64* %1, align 8
  call void @llvm.dbg.declare(metadata { i8*, i64 }* %self.dbg.spill, metadata !897, metadata !DIExpression()), !dbg !898
; call core::ptr::non_null::NonNull<[T]>::as_non_null_ptr
  %_2 = call mpk_immut nonnull i8* @"_ZN4core3ptr8non_null26NonNull$LT$$u5b$T$u5d$$GT$15as_non_null_ptr17hd8dd5e56773f4033E"(i8* mpk_immut nonnull %self.0, i64 %self.1), !dbg !899
  br label %bb1, !dbg !899

bb1:                                              ; preds = %start
; call core::ptr::non_null::NonNull<T>::as_ptr
  %2 = call i8* @"_ZN4core3ptr8non_null16NonNull$LT$T$GT$6as_ptr17hc3b49d66ee974de8E"(i8* mpk_immut nonnull %_2), !dbg !900
  br label %bb2, !dbg !900

bb2:                                              ; preds = %bb1
  ret i8* %2, !dbg !901
}

; core::ptr::non_null::NonNull<[T]>::as_non_null_ptr
; Function Attrs: inlinehint nonlazybind uwtable
define internal mpk_immut nonnull i8* @"_ZN4core3ptr8non_null26NonNull$LT$$u5b$T$u5d$$GT$15as_non_null_ptr17hd8dd5e56773f4033E"(i8* mpk_immut nonnull %self.0, i64 %self.1) unnamed_addr #0 !dbg !902 {
start:
  %self.dbg.spill = alloca { i8*, i64 }, align 8
  %0 = getelementptr inbounds { i8*, i64 }, { i8*, i64 }* %self.dbg.spill, i32 0, i32 0
  store i8* %self.0, i8** %0, align 8
  %1 = getelementptr inbounds { i8*, i64 }, { i8*, i64 }* %self.dbg.spill, i32 0, i32 1
  store i64 %self.1, i64* %1, align 8
  call void @llvm.dbg.declare(metadata { i8*, i64 }* %self.dbg.spill, metadata !906, metadata !DIExpression()), !dbg !907
; call core::ptr::non_null::NonNull<T>::as_ptr
  %2 = call { [0 x i8]*, i64 } @"_ZN4core3ptr8non_null16NonNull$LT$T$GT$6as_ptr17haedcecef81d78fe6E"(i8* mpk_immut nonnull %self.0, i64 %self.1), !dbg !908
  %_3.0 = extractvalue { [0 x i8]*, i64 } %2, 0, !dbg !908
  %_3.1 = extractvalue { [0 x i8]*, i64 } %2, 1, !dbg !908
  br label %bb1, !dbg !908

bb1:                                              ; preds = %start
  store i64 1, i64* @METASAFE_TYPE_ID, align 8
; call core::ptr::mut_ptr::<impl *mut [T]>::as_mut_ptr
  %_2 = call i8* @"_ZN4core3ptr7mut_ptr41_$LT$impl$u20$$BP$mut$u20$$u5b$T$u5d$$GT$10as_mut_ptr17hca53dca0c8089c7bE"([0 x i8]* %_3.0, i64 %_3.1), !dbg !909
  br label %bb2, !dbg !909

bb2:                                              ; preds = %bb1
; call core::ptr::non_null::NonNull<T>::new_unchecked
  %3 = call mpk_immut mpk_unsafe nonnull i8* @"_ZN4core3ptr8non_null16NonNull$LT$T$GT$13new_unchecked17h84ba694ce0d90537E"(i8* mpk_unsafe %_2), !dbg !910
  br label %bb3, !dbg !910

bb3:                                              ; preds = %bb2
  ret i8* %3, !dbg !911
}

; core::ptr::non_null::NonNull<[T]>::slice_from_raw_parts
; Function Attrs: inlinehint nonlazybind uwtable
define internal { i8*, i64 } @"_ZN4core3ptr8non_null26NonNull$LT$$u5b$T$u5d$$GT$20slice_from_raw_parts17h71606f2c2f86b9c5E"(i8* mpk_immut nonnull %data, i64 %len) unnamed_addr #0 !dbg !912 {
start:
  %len.dbg.spill = alloca i64, align 8
  %data.dbg.spill = alloca i8*, align 8
  store i8* %data, i8** %data.dbg.spill, align 8
  call void @llvm.dbg.declare(metadata i8** %data.dbg.spill, metadata !916, metadata !DIExpression()), !dbg !918
  store i64 %len, i64* %len.dbg.spill, align 8
  call void @llvm.dbg.declare(metadata i64* %len.dbg.spill, metadata !917, metadata !DIExpression()), !dbg !919
; call core::ptr::non_null::NonNull<T>::as_ptr
  %_4 = call i8* @"_ZN4core3ptr8non_null16NonNull$LT$T$GT$6as_ptr17hc3b49d66ee974de8E"(i8* mpk_immut nonnull %data), !dbg !920
  br label %bb1, !dbg !920

bb1:                                              ; preds = %start
; call core::ptr::slice_from_raw_parts_mut
  %0 = call { [0 x i8]*, i64 } @_ZN4core3ptr24slice_from_raw_parts_mut17hb205f168a3200b39E(i8* %_4, i64 %len), !dbg !921
  %_3.0 = extractvalue { [0 x i8]*, i64 } %0, 0, !dbg !921
  %_3.1 = extractvalue { [0 x i8]*, i64 } %0, 1, !dbg !921
  br label %bb2, !dbg !921

bb2:                                              ; preds = %bb1
; call core::ptr::non_null::NonNull<T>::new_unchecked
  %1 = call { i8*, i64 } @"_ZN4core3ptr8non_null16NonNull$LT$T$GT$13new_unchecked17h659c282977fd6372E"([0 x i8]* mpk_unsafe %_3.0, i64 %_3.1), !dbg !922
  %2 = extractvalue { i8*, i64 } %1, 0, !dbg !922
  %3 = extractvalue { i8*, i64 } %1, 1, !dbg !922
  br label %bb3, !dbg !922

bb3:                                              ; preds = %bb2
  %4 = insertvalue { i8*, i64 } undef, i8* %2, 0, !dbg !923
  %5 = insertvalue { i8*, i64 } %4, i64 %3, 1, !dbg !923
  ret { i8*, i64 } %5, !dbg !923
}

; core::ptr::const_ptr::<impl *const T>::wrapping_add
; Function Attrs: inlinehint nonlazybind uwtable
define internal mpk_immut i8* @"_ZN4core3ptr9const_ptr33_$LT$impl$u20$$BP$const$u20$T$GT$12wrapping_add17h9560207829276327E"(i8* mpk_immut %self, i64 %count) unnamed_addr #0 !dbg !924 {
start:
  %count.dbg.spill = alloca i64, align 8
  %self.dbg.spill = alloca i8*, align 8
  store i8* %self, i8** %self.dbg.spill, align 8
  call void @llvm.dbg.declare(metadata i8** %self.dbg.spill, metadata !931, metadata !DIExpression()), !dbg !933
  store i64 %count, i64* %count.dbg.spill, align 8
  call void @llvm.dbg.declare(metadata i64* %count.dbg.spill, metadata !932, metadata !DIExpression()), !dbg !934
; call core::ptr::const_ptr::<impl *const T>::wrapping_offset
  %0 = call mpk_immut i8* @"_ZN4core3ptr9const_ptr33_$LT$impl$u20$$BP$const$u20$T$GT$15wrapping_offset17h2c0577b3435cf5edE"(i8* mpk_immut %self, i64 %count), !dbg !935
  br label %bb1, !dbg !935

bb1:                                              ; preds = %start
  ret i8* %0, !dbg !936
}

; core::ptr::const_ptr::<impl *const T>::guaranteed_eq
; Function Attrs: inlinehint nonlazybind uwtable
define internal zeroext i1 @"_ZN4core3ptr9const_ptr33_$LT$impl$u20$$BP$const$u20$T$GT$13guaranteed_eq17hede87b8023eea217E"(i8* mpk_immut %self, i8* mpk_immut %other) unnamed_addr #0 !dbg !937 {
start:
  %0 = alloca i8, align 1
  %other.dbg.spill = alloca i8*, align 8
  %self.dbg.spill = alloca i8*, align 8
  store i8* %self, i8** %self.dbg.spill, align 8
  call void @llvm.dbg.declare(metadata i8** %self.dbg.spill, metadata !941, metadata !DIExpression()), !dbg !943
  store i8* %other, i8** %other.dbg.spill, align 8
  call void @llvm.dbg.declare(metadata i8** %other.dbg.spill, metadata !942, metadata !DIExpression()), !dbg !944
  %1 = icmp eq i8* %self, %other, !dbg !945
  %2 = zext i1 %1 to i8, !dbg !945
  store i8 %2, i8* %0, align 1, !dbg !945
  %3 = load i8, i8* %0, align 1, !dbg !945, !range !298
  %4 = trunc i8 %3 to i1, !dbg !945
  br label %bb1, !dbg !945

bb1:                                              ; preds = %start
  ret i1 %4, !dbg !946
}

; core::ptr::const_ptr::<impl *const T>::wrapping_offset
; Function Attrs: inlinehint nonlazybind uwtable
define internal mpk_immut i8* @"_ZN4core3ptr9const_ptr33_$LT$impl$u20$$BP$const$u20$T$GT$15wrapping_offset17h2c0577b3435cf5edE"(i8* mpk_immut %self, i64 %count) unnamed_addr #0 !dbg !947 {
start:
  %0 = alloca i8*, align 8
  %count.dbg.spill = alloca i64, align 8
  %self.dbg.spill = alloca i8*, align 8
  store i8* %self, i8** %self.dbg.spill, align 8
  call void @llvm.dbg.declare(metadata i8** %self.dbg.spill, metadata !951, metadata !DIExpression()), !dbg !953
  store i64 %count, i64* %count.dbg.spill, align 8
  call void @llvm.dbg.declare(metadata i64* %count.dbg.spill, metadata !952, metadata !DIExpression()), !dbg !954
  %1 = getelementptr i8, i8* %self, i64 %count, !dbg !955
  store i8* %1, i8** %0, align 8, !dbg !955
  %2 = load i8*, i8** %0, align 8, !dbg !955
  br label %bb1, !dbg !955

bb1:                                              ; preds = %start
  ret i8* %2, !dbg !956
}

; core::ptr::const_ptr::<impl *const T>::add
; Function Attrs: inlinehint nonlazybind uwtable
define internal mpk_immut mpk_unsafe i32* @"_ZN4core3ptr9const_ptr33_$LT$impl$u20$$BP$const$u20$T$GT$3add17hfcb6e5e24014a961E"(i32* mpk_immut mpk_unsafe %self, i64 %count) unnamed_addr #0 !dbg !957 {
start:
  %count.dbg.spill = alloca i64, align 8
  %self.dbg.spill = alloca i32*, align 8
  store i32* %self, i32** %self.dbg.spill, align 8
  call void @llvm.dbg.declare(metadata i32** %self.dbg.spill, metadata !961, metadata !DIExpression()), !dbg !963
  store i64 %count, i64* %count.dbg.spill, align 8
  call void @llvm.dbg.declare(metadata i64* %count.dbg.spill, metadata !962, metadata !DIExpression()), !dbg !964
; call core::ptr::const_ptr::<impl *const T>::offset
  %0 = call mpk_immut mpk_unsafe i32* @"_ZN4core3ptr9const_ptr33_$LT$impl$u20$$BP$const$u20$T$GT$6offset17h52c9a63d9dd5b356E"(i32* mpk_immut mpk_unsafe %self, i64 %count), !dbg !965
  br label %bb1, !dbg !965

bb1:                                              ; preds = %start
  ret i32* %0, !dbg !966
}

; core::ptr::const_ptr::<impl *const T>::offset
; Function Attrs: inlinehint nonlazybind uwtable
define internal mpk_immut mpk_unsafe i32* @"_ZN4core3ptr9const_ptr33_$LT$impl$u20$$BP$const$u20$T$GT$6offset17h52c9a63d9dd5b356E"(i32* mpk_immut mpk_unsafe %self, i64 %count) unnamed_addr #0 !dbg !967 {
start:
  %0 = alloca i32*, align 8
  %count.dbg.spill = alloca i64, align 8
  %self.dbg.spill = alloca i32*, align 8
  store i32* %self, i32** %self.dbg.spill, align 8
  call void @llvm.dbg.declare(metadata i32** %self.dbg.spill, metadata !971, metadata !DIExpression()), !dbg !973
  store i64 %count, i64* %count.dbg.spill, align 8
  call void @llvm.dbg.declare(metadata i64* %count.dbg.spill, metadata !972, metadata !DIExpression()), !dbg !974
  %1 = getelementptr inbounds i32, i32* %self, i64 %count, !dbg !975
  store i32* %1, i32** %0, align 8, !dbg !975
  %2 = load i32*, i32** %0, align 8, !dbg !975
  br label %bb1, !dbg !975

bb1:                                              ; preds = %start
  ret i32* %2, !dbg !976
}

; core::ptr::const_ptr::<impl *const T>::is_null
; Function Attrs: inlinehint nonlazybind uwtable
define internal zeroext i1 @"_ZN4core3ptr9const_ptr33_$LT$impl$u20$$BP$const$u20$T$GT$7is_null17h453d39df1550669bE"(i32* mpk_immut %self) unnamed_addr #0 !dbg !977 {
start:
  %self.dbg.spill = alloca i32*, align 8
  store i32* %self, i32** %self.dbg.spill, align 8
  call void @llvm.dbg.declare(metadata i32** %self.dbg.spill, metadata !981, metadata !DIExpression()), !dbg !982
  %_2 = bitcast i32* %self to i8*, !dbg !983
  br label %bb1, !dbg !984

bb1:                                              ; preds = %start
; call core::ptr::const_ptr::<impl *const T>::guaranteed_eq
  %0 = call zeroext i1 @"_ZN4core3ptr9const_ptr33_$LT$impl$u20$$BP$const$u20$T$GT$13guaranteed_eq17hede87b8023eea217E"(i8* mpk_immut %_2, i8* mpk_immut null), !dbg !985
  br label %bb2, !dbg !985

bb2:                                              ; preds = %bb1
  ret i1 %0, !dbg !986
}

; core::hint::black_box
; Function Attrs: inlinehint nonlazybind uwtable
define internal void @_ZN4core4hint9black_box17h3f305f7168908f35E() unnamed_addr #0 !dbg !987 {
start:
  %dummy = alloca {}, align 1
  call void @llvm.dbg.declare(metadata {}* %dummy, metadata !993, metadata !DIExpression()), !dbg !994
  call void asm sideeffect "", "r,~{memory},~{dirflag},~{fpsr},~{flags}"({}* %dummy), !dbg !995, !srcloc !996
  ret void, !dbg !997
}

; core::alloc::layout::Layout::from_size_align_unchecked
; Function Attrs: inlinehint nonlazybind uwtable
define internal { i64, i64 } @_ZN4core5alloc6layout6Layout25from_size_align_unchecked17h1699ba5b3834f783E(i64 %size, i64 %align) unnamed_addr #0 !dbg !998 {
start:
  %align.dbg.spill = alloca i64, align 8
  %size.dbg.spill = alloca i64, align 8
  %0 = alloca { i64, i64 }, align 8
  store i64 %size, i64* %size.dbg.spill, align 8
  call void @llvm.dbg.declare(metadata i64* %size.dbg.spill, metadata !1009, metadata !DIExpression()), !dbg !1011
  store i64 %align, i64* %align.dbg.spill, align 8
  call void @llvm.dbg.declare(metadata i64* %align.dbg.spill, metadata !1010, metadata !DIExpression()), !dbg !1012
; call core::num::nonzero::NonZeroUsize::new_unchecked
  %_4 = call i64 @_ZN4core3num7nonzero12NonZeroUsize13new_unchecked17hf526da6b062e070bE(i64 %align), !dbg !1013, !range !463
  br label %bb1, !dbg !1013

bb1:                                              ; preds = %start
  %1 = bitcast { i64, i64 }* %0 to i64*, !dbg !1014
  store i64 %size, i64* %1, align 8, !dbg !1014
  %2 = getelementptr inbounds { i64, i64 }, { i64, i64 }* %0, i32 0, i32 1, !dbg !1015
  store i64 %_4, i64* %2, align 8, !dbg !1015
  %3 = getelementptr inbounds { i64, i64 }, { i64, i64 }* %0, i32 0, i32 0, !dbg !1016
  %4 = load i64, i64* %3, align 8, !dbg !1016
  %5 = getelementptr inbounds { i64, i64 }, { i64, i64 }* %0, i32 0, i32 1, !dbg !1016
  %6 = load i64, i64* %5, align 8, !dbg !1016, !range !463
  %7 = insertvalue { i64, i64 } undef, i64 %4, 0, !dbg !1016
  %8 = insertvalue { i64, i64 } %7, i64 %6, 1, !dbg !1016
  ret { i64, i64 } %8, !dbg !1016
}

; core::alloc::layout::Layout::size
; Function Attrs: inlinehint nonlazybind uwtable
define internal i64 @_ZN4core5alloc6layout6Layout4size17h07d5eeac68a5ac0cE({ i64, i64 }* mpk_immut noalias readonly align 8 dereferenceable(16) %self) unnamed_addr #0 !dbg !1017 {
start:
  %self.dbg.spill = alloca { i64, i64 }*, align 8
  store { i64, i64 }* %self, { i64, i64 }** %self.dbg.spill, align 8
  call void @llvm.dbg.declare(metadata { i64, i64 }** %self.dbg.spill, metadata !1022, metadata !DIExpression()), !dbg !1023
  %0 = bitcast { i64, i64 }* %self to i64*, !dbg !1024
  %1 = load i64, i64* %0, align 8, !dbg !1024
  ret i64 %1, !dbg !1025
}

; core::alloc::layout::Layout::align
; Function Attrs: inlinehint nonlazybind uwtable
define internal i64 @_ZN4core5alloc6layout6Layout5align17hde3bb1e78eaf8d08E({ i64, i64 }* mpk_immut noalias readonly align 8 dereferenceable(16) %self) unnamed_addr #0 !dbg !1026 {
start:
  %self.dbg.spill = alloca { i64, i64 }*, align 8
  store { i64, i64 }* %self, { i64, i64 }** %self.dbg.spill, align 8
  call void @llvm.dbg.declare(metadata { i64, i64 }** %self.dbg.spill, metadata !1028, metadata !DIExpression()), !dbg !1029
  %0 = getelementptr inbounds { i64, i64 }, { i64, i64 }* %self, i32 0, i32 1, !dbg !1030
  %_2 = load i64, i64* %0, align 8, !dbg !1030, !range !463
; call core::num::nonzero::NonZeroUsize::get
  %1 = call i64 @_ZN4core3num7nonzero12NonZeroUsize3get17h8457693f3832f611E(i64 %_2), !dbg !1031
  br label %bb1, !dbg !1031

bb1:                                              ; preds = %start
  ret i64 %1, !dbg !1032
}

; core::alloc::layout::Layout::dangling
; Function Attrs: inlinehint nonlazybind uwtable
define internal mpk_immut nonnull i8* @_ZN4core5alloc6layout6Layout8dangling17h1feac1aab6904462E({ i64, i64 }* mpk_immut noalias readonly align 8 dereferenceable(16) %self) unnamed_addr #0 !dbg !1033 {
start:
  %self.dbg.spill = alloca { i64, i64 }*, align 8
  store { i64, i64 }* %self, { i64, i64 }** %self.dbg.spill, align 8
  call void @llvm.dbg.declare(metadata { i64, i64 }** %self.dbg.spill, metadata !1037, metadata !DIExpression()), !dbg !1038
; call core::alloc::layout::Layout::align
  %_3 = call i64 @_ZN4core5alloc6layout6Layout5align17hde3bb1e78eaf8d08E({ i64, i64 }* mpk_immut noalias readonly align 8 dereferenceable(16) %self), !dbg !1039
  br label %bb1, !dbg !1039

bb1:                                              ; preds = %start
  %_2 = inttoptr i64 %_3 to i8*, !dbg !1040
; call core::ptr::non_null::NonNull<T>::new_unchecked
  %0 = call mpk_immut mpk_unsafe nonnull i8* @"_ZN4core3ptr8non_null16NonNull$LT$T$GT$13new_unchecked17h84ba694ce0d90537E"(i8* mpk_unsafe %_2), !dbg !1041
  br label %bb2, !dbg !1041

bb2:                                              ; preds = %bb1
  ret i8* %0, !dbg !1042
}

; core::slice::<impl [T]>::len
; Function Attrs: inlinehint nonlazybind uwtable
define internal i64 @"_ZN4core5slice29_$LT$impl$u20$$u5b$T$u5d$$GT$3len17h4d8273294ed3defaE"([0 x i32]* mpk_immut noalias nonnull readonly align 4 %self.0, i64 %self.1) unnamed_addr #0 !dbg !1043 {
start:
  %self.dbg.spill = alloca { [0 x i32]*, i64 }, align 8
  %_2 = alloca %"std::ptr::Repr<i32>", align 8, !MPK-SmartPointer !267
  %0 = getelementptr inbounds { [0 x i32]*, i64 }, { [0 x i32]*, i64 }* %self.dbg.spill, i32 0, i32 0
  store [0 x i32]* %self.0, [0 x i32]** %0, align 8
  %1 = getelementptr inbounds { [0 x i32]*, i64 }, { [0 x i32]*, i64 }* %self.dbg.spill, i32 0, i32 1
  store i64 %self.1, i64* %1, align 8
  call void @llvm.dbg.declare(metadata { [0 x i32]*, i64 }* %self.dbg.spill, metadata !1049, metadata !DIExpression()), !dbg !1050
  %2 = bitcast %"std::ptr::Repr<i32>"* %_2 to { [0 x i32]*, i64 }*, !dbg !1051, !MPK-SmartPointer !267
  %3 = getelementptr inbounds { [0 x i32]*, i64 }, { [0 x i32]*, i64 }* %2, i32 0, i32 0, !dbg !1051
  store [0 x i32]* %self.0, [0 x i32]** %3, align 8, !dbg !1051
  %4 = getelementptr inbounds { [0 x i32]*, i64 }, { [0 x i32]*, i64 }* %2, i32 0, i32 1, !dbg !1051
  store i64 %self.1, i64* %4, align 8, !dbg !1051
  %5 = bitcast %"std::ptr::Repr<i32>"* %_2 to { i32*, i64 }*, !dbg !1052
  %6 = getelementptr inbounds { i32*, i64 }, { i32*, i64 }* %5, i32 0, i32 1, !dbg !1052
  %7 = load i64, i64* %6, align 8, !dbg !1052
  ret i64 %7, !dbg !1053
}

; core::slice::<impl [T]>::iter
; Function Attrs: inlinehint nonlazybind uwtable
define internal { i32*, i32* } @"_ZN4core5slice29_$LT$impl$u20$$u5b$T$u5d$$GT$4iter17hce9bf1e9eca74189E"([0 x i32]* mpk_immut noalias nonnull readonly align 4 %self.0, i64 %self.1) unnamed_addr #0 !dbg !1054 {
start:
  %self.dbg.spill = alloca { [0 x i32]*, i64 }, align 8
  %0 = getelementptr inbounds { [0 x i32]*, i64 }, { [0 x i32]*, i64 }* %self.dbg.spill, i32 0, i32 0
  store [0 x i32]* %self.0, [0 x i32]** %0, align 8
  %1 = getelementptr inbounds { [0 x i32]*, i64 }, { [0 x i32]*, i64 }* %self.dbg.spill, i32 0, i32 1
  store i64 %self.1, i64* %1, align 8
  call void @llvm.dbg.declare(metadata { [0 x i32]*, i64 }* %self.dbg.spill, metadata !1058, metadata !DIExpression()), !dbg !1059
; call core::slice::iter::Iter<T>::new
  %2 = call { i32*, i32* } @"_ZN4core5slice4iter13Iter$LT$T$GT$3new17he0d67fcfec8d5993E"([0 x i32]* mpk_immut noalias nonnull readonly align 4 %self.0, i64 %self.1), !dbg !1060
  %3 = extractvalue { i32*, i32* } %2, 0, !dbg !1060
  %4 = extractvalue { i32*, i32* } %2, 1, !dbg !1060
  br label %bb1, !dbg !1060

bb1:                                              ; preds = %start
  %5 = insertvalue { i32*, i32* } undef, i32* %3, 0, !dbg !1061
  %6 = insertvalue { i32*, i32* } %5, i32* %4, 1, !dbg !1061
  ret { i32*, i32* } %6, !dbg !1061
}

; core::slice::<impl [T]>::as_ptr
; Function Attrs: inlinehint nonlazybind uwtable
define internal mpk_immut i32* @"_ZN4core5slice29_$LT$impl$u20$$u5b$T$u5d$$GT$6as_ptr17h1753371974822862E"([0 x i32]* mpk_immut noalias nonnull readonly align 4 %self.0, i64 %self.1) unnamed_addr #0 !dbg !1062 {
start:
  %self.dbg.spill = alloca { [0 x i32]*, i64 }, align 8
  %0 = getelementptr inbounds { [0 x i32]*, i64 }, { [0 x i32]*, i64 }* %self.dbg.spill, i32 0, i32 0
  store [0 x i32]* %self.0, [0 x i32]** %0, align 8
  %1 = getelementptr inbounds { [0 x i32]*, i64 }, { [0 x i32]*, i64 }* %self.dbg.spill, i32 0, i32 1
  store i64 %self.1, i64* %1, align 8
  call void @llvm.dbg.declare(metadata { [0 x i32]*, i64 }* %self.dbg.spill, metadata !1066, metadata !DIExpression()), !dbg !1067
  %2 = bitcast [0 x i32]* %self.0 to i32*, !dbg !1068
  ret i32* %2, !dbg !1069
}

; core::slice::raw::from_raw_parts
; Function Attrs: inlinehint nonlazybind uwtable
define internal { [0 x i32]*, i64 } @_ZN4core5slice3raw14from_raw_parts17h7f090ad2f5b666cbE(i32* mpk_immut mpk_unsafe %data, i64 %len) unnamed_addr #0 !dbg !1070 {
start:
  %len.dbg.spill = alloca i64, align 8
  %data.dbg.spill = alloca i32*, align 8
  store i32* %data, i32** %data.dbg.spill, align 8
  call void @llvm.dbg.declare(metadata i32** %data.dbg.spill, metadata !1076, metadata !DIExpression()), !dbg !1078
  store i64 %len, i64* %len.dbg.spill, align 8
  call void @llvm.dbg.declare(metadata i64* %len.dbg.spill, metadata !1077, metadata !DIExpression()), !dbg !1079
; call core::ptr::slice_from_raw_parts
  %0 = call { [0 x i32]*, i64 } @_ZN4core3ptr20slice_from_raw_parts17h4db2e16f33e9c7faE(i32* mpk_immut %data, i64 %len), !dbg !1080
  %_3.0 = extractvalue { [0 x i32]*, i64 } %0, 0, !dbg !1080
  %_3.1 = extractvalue { [0 x i32]*, i64 } %0, 1, !dbg !1080
  br label %bb1, !dbg !1080

bb1:                                              ; preds = %start
  %1 = insertvalue { [0 x i32]*, i64 } undef, [0 x i32]* %_3.0, 0, !dbg !1081
  %2 = insertvalue { [0 x i32]*, i64 } %1, i64 %_3.1, 1, !dbg !1081
  ret { [0 x i32]*, i64 } %2, !dbg !1081
}

; core::slice::iter::Iter<T>::new
; Function Attrs: inlinehint nonlazybind uwtable
define internal { i32*, i32* } @"_ZN4core5slice4iter13Iter$LT$T$GT$3new17he0d67fcfec8d5993E"([0 x i32]* mpk_immut noalias nonnull readonly align 4 %slice.0, i64 %slice.1) unnamed_addr #0 !dbg !1082 {
start:
  %0 = alloca i64, align 8
  %ptr.dbg.spill = alloca i32*, align 8
  %slice.dbg.spill = alloca { [0 x i32]*, i64 }, align 8
  %end = alloca i32*, align 8
  %1 = alloca { i32*, i32* }, align 8
  %2 = getelementptr inbounds { [0 x i32]*, i64 }, { [0 x i32]*, i64 }* %slice.dbg.spill, i32 0, i32 0
  store [0 x i32]* %slice.0, [0 x i32]** %2, align 8
  %3 = getelementptr inbounds { [0 x i32]*, i64 }, { [0 x i32]*, i64 }* %slice.dbg.spill, i32 0, i32 1
  store i64 %slice.1, i64* %3, align 8
  call void @llvm.dbg.declare(metadata { [0 x i32]*, i64 }* %slice.dbg.spill, metadata !1085, metadata !DIExpression()), !dbg !1090
  call void @llvm.dbg.declare(metadata i32** %end, metadata !1088, metadata !DIExpression()), !dbg !1091
; call core::slice::<impl [T]>::as_ptr
  %ptr = call mpk_immut i32* @"_ZN4core5slice29_$LT$impl$u20$$u5b$T$u5d$$GT$6as_ptr17h1753371974822862E"([0 x i32]* mpk_immut noalias nonnull readonly align 4 %slice.0, i64 %slice.1), !dbg !1092
  store i32* %ptr, i32** %ptr.dbg.spill, align 8, !dbg !1092
  call void @llvm.dbg.declare(metadata i32** %ptr.dbg.spill, metadata !1086, metadata !DIExpression()), !dbg !1093
  br label %bb1, !dbg !1092

bb1:                                              ; preds = %start
; call core::ptr::const_ptr::<impl *const T>::is_null
  %_6 = call zeroext i1 @"_ZN4core3ptr9const_ptr33_$LT$impl$u20$$BP$const$u20$T$GT$7is_null17h453d39df1550669bE"(i32* mpk_immut %ptr), !dbg !1094
  br label %bb2, !dbg !1094

bb2:                                              ; preds = %bb1
  %_5 = xor i1 %_6, true, !dbg !1095
  call void @llvm.assume(i1 %_5), !dbg !1096
  br label %bb3, !dbg !1096

bb3:                                              ; preds = %bb2
  store i64 4, i64* %0, align 8, !dbg !1097
  %4 = load i64, i64* %0, align 8, !dbg !1097
  br label %bb4, !dbg !1103

bb4:                                              ; preds = %bb3
  %5 = icmp eq i64 %4, 0, !dbg !1104
  br i1 %5, label %bb6, label %bb5, !dbg !1104

bb5:                                              ; preds = %bb4
; call core::slice::<impl [T]>::len
  %_16 = call i64 @"_ZN4core5slice29_$LT$impl$u20$$u5b$T$u5d$$GT$3len17h4d8273294ed3defaE"([0 x i32]* mpk_immut noalias nonnull readonly align 4 %slice.0, i64 %slice.1), !dbg !1105
  br label %bb9, !dbg !1105

bb6:                                              ; preds = %bb4
  %_11 = bitcast i32* %ptr to i8*, !dbg !1106
; call core::slice::<impl [T]>::len
  %_13 = call i64 @"_ZN4core5slice29_$LT$impl$u20$$u5b$T$u5d$$GT$3len17h4d8273294ed3defaE"([0 x i32]* mpk_immut noalias nonnull readonly align 4 %slice.0, i64 %slice.1), !dbg !1107
  br label %bb7, !dbg !1107

bb7:                                              ; preds = %bb6
; call core::ptr::const_ptr::<impl *const T>::wrapping_add
  %_10 = call mpk_immut i8* @"_ZN4core3ptr9const_ptr33_$LT$impl$u20$$BP$const$u20$T$GT$12wrapping_add17h9560207829276327E"(i8* mpk_immut %_11, i64 %_13), !dbg !1108
  br label %bb8, !dbg !1108

bb8:                                              ; preds = %bb7
  %6 = bitcast i8* %_10 to i32*, !dbg !1109
  store i32* %6, i32** %end, align 8, !dbg !1109
  br label %bb11, !dbg !1110

bb9:                                              ; preds = %bb5
; call core::ptr::const_ptr::<impl *const T>::add
  %7 = call mpk_immut mpk_unsafe i32* @"_ZN4core3ptr9const_ptr33_$LT$impl$u20$$BP$const$u20$T$GT$3add17hfcb6e5e24014a961E"(i32* mpk_immut mpk_unsafe %ptr, i64 %_16), !dbg !1111
  store i32* %7, i32** %end, align 8, !dbg !1111
  br label %bb10, !dbg !1111

bb10:                                             ; preds = %bb9
  br label %bb11, !dbg !1112

bb11:                                             ; preds = %bb8, %bb10
; call core::ptr::non_null::NonNull<T>::new_unchecked
  %_18 = call mpk_immut mpk_unsafe nonnull i32* @"_ZN4core3ptr8non_null16NonNull$LT$T$GT$13new_unchecked17h03a0dc91a76cb040E"(i32* mpk_unsafe %ptr), !dbg !1113
  br label %bb12, !dbg !1113

bb12:                                             ; preds = %bb11
  %_21 = load i32*, i32** %end, align 8, !dbg !1114
  %8 = bitcast { i32*, i32* }* %1 to i32**, !dbg !1115
  store i32* %_18, i32** %8, align 8, !dbg !1115
  %9 = getelementptr inbounds { i32*, i32* }, { i32*, i32* }* %1, i32 0, i32 1, !dbg !1116
  store i32* %_21, i32** %9, align 8, !dbg !1116
  %10 = bitcast { i32*, i32* }* %1 to %"std::marker::PhantomData<&i32>"*, !dbg !1117
  %11 = getelementptr inbounds { i32*, i32* }, { i32*, i32* }* %1, i32 0, i32 0, !dbg !1118
  %12 = load i32*, i32** %11, align 8, !dbg !1118, !nonnull !4
  %13 = getelementptr inbounds { i32*, i32* }, { i32*, i32* }* %1, i32 0, i32 1, !dbg !1118
  %14 = load i32*, i32** %13, align 8, !dbg !1118
  %15 = insertvalue { i32*, i32* } undef, i32* %12, 0, !dbg !1118
  %16 = insertvalue { i32*, i32* } %15, i32* %14, 1, !dbg !1118
  ret { i32*, i32* } %16, !dbg !1118
}

; core::option::Option<T>::ok_or
; Function Attrs: inlinehint nonlazybind uwtable
define internal mpk_immut i8* @"_ZN4core6option15Option$LT$T$GT$5ok_or17h4a9f1d00333c96adE"(i8* mpk_immut %0) unnamed_addr #0 !dbg !1119 {
start:
  %v.dbg.spill = alloca i8*, align 8
  %err.dbg.spill = alloca %"std::alloc::AllocError", align 1
  %_7 = alloca i8, align 1
  %1 = alloca i8*, align 8
  %self = alloca i8*, align 8
  store i8* %0, i8** %self, align 8
  call void @llvm.dbg.declare(metadata i8** %self, metadata !1140, metadata !DIExpression()), !dbg !1144
  call void @llvm.dbg.declare(metadata %"std::alloc::AllocError"* %err.dbg.spill, metadata !1141, metadata !DIExpression()), !dbg !1145
  store i8 0, i8* %_7, align 1, !dbg !1146
  store i8 1, i8* %_7, align 1, !dbg !1147
  %2 = bitcast i8** %self to {}**, !dbg !1148
  %3 = load {}*, {}** %2, align 8, !dbg !1148
  %4 = icmp eq {}* %3, null, !dbg !1148
  %_3 = select i1 %4, i64 0, i64 1, !dbg !1148
  switch i64 %_3, label %bb2 [
    i64 0, label %bb1
    i64 1, label %bb3
  ], !dbg !1149

bb1:                                              ; preds = %start
  store i8 0, i8* %_7, align 1, !dbg !1150
  %5 = bitcast i8** %1 to %"std::result::Result<std::ptr::NonNull<u8>, std::alloc::AllocError>::Err"*, !dbg !1151
  %6 = bitcast %"std::result::Result<std::ptr::NonNull<u8>, std::alloc::AllocError>::Err"* %5 to %"std::alloc::AllocError"*, !dbg !1151
  %7 = bitcast i8** %1 to {}**, !dbg !1152
  store {}* null, {}** %7, align 8, !dbg !1152
  br label %bb4, !dbg !1153

bb2:                                              ; preds = %start
  unreachable, !dbg !1154

bb3:                                              ; preds = %start
  %v = load i8*, i8** %self, align 8, !dbg !1155, !nonnull !4
  store i8* %v, i8** %v.dbg.spill, align 8, !dbg !1155
  call void @llvm.dbg.declare(metadata i8** %v.dbg.spill, metadata !1142, metadata !DIExpression()), !dbg !1156
  store i8* %v, i8** %1, align 8, !dbg !1157
  br label %bb4, !dbg !1158

bb4:                                              ; preds = %bb1, %bb3
  %8 = load i8, i8* %_7, align 1, !dbg !1159, !range !298
  %9 = trunc i8 %8 to i1, !dbg !1159
  br i1 %9, label %bb6, label %bb5, !dbg !1159

bb5:                                              ; preds = %bb6, %bb4
  %10 = load i8*, i8** %1, align 8, !dbg !1160
  ret i8* %10, !dbg !1160

bb6:                                              ; preds = %bb4
  br label %bb5, !dbg !1161
}

; <T as core::convert::From<T>>::from
; Function Attrs: nonlazybind uwtable
define internal void @"_ZN50_$LT$T$u20$as$u20$core..convert..From$LT$T$GT$$GT$4from17h1b5e7400c59f8410E"() unnamed_addr #2 !dbg !1162 {
start:
  %t.dbg.spill = alloca %"std::alloc::AllocError", align 1
  call void @llvm.dbg.declare(metadata %"std::alloc::AllocError"* %t.dbg.spill, metadata !1169, metadata !DIExpression()), !dbg !1172
  ret void, !dbg !1173
}

; <T as core::convert::Into<U>>::into
; Function Attrs: nonlazybind uwtable
define internal mpk_immut nonnull i8* @"_ZN50_$LT$T$u20$as$u20$core..convert..Into$LT$U$GT$$GT$4into17h6b5f33d149855f28E"(i8* mpk_immut nonnull %self) unnamed_addr #2 !dbg !1174 {
start:
  %self.dbg.spill = alloca i8*, align 8
  store i8* %self, i8** %self.dbg.spill, align 8
  call void @llvm.dbg.declare(metadata i8** %self.dbg.spill, metadata !1176, metadata !DIExpression()), !dbg !1180
; call <core::ptr::non_null::NonNull<T> as core::convert::From<core::ptr::unique::Unique<T>>>::from
  %0 = call mpk_immut nonnull i8* @"_ZN119_$LT$core..ptr..non_null..NonNull$LT$T$GT$$u20$as$u20$core..convert..From$LT$core..ptr..unique..Unique$LT$T$GT$$GT$$GT$4from17h6ca259d3d4f2f373E"(i8* mpk_immut nonnull %self), !dbg !1181
  br label %bb1, !dbg !1181

bb1:                                              ; preds = %start
  ret i8* %0, !dbg !1182
}

; <() as std::process::Termination>::report
; Function Attrs: inlinehint nonlazybind uwtable
define internal i32 @"_ZN54_$LT$$LP$$RP$$u20$as$u20$std..process..Termination$GT$6report17he405626ebd2a2f2cE"() unnamed_addr #0 !dbg !1183 {
start:
  %self.dbg.spill = alloca {}, align 1
  call void @llvm.dbg.declare(metadata {}* %self.dbg.spill, metadata !1190, metadata !DIExpression()), !dbg !1191
; call <std::process::ExitCode as std::process::Termination>::report
  %0 = call i32 @"_ZN68_$LT$std..process..ExitCode$u20$as$u20$std..process..Termination$GT$6report17he50b409bb573b85dE"(i8 0), !dbg !1192
  br label %bb1, !dbg !1192

bb1:                                              ; preds = %start
  ret i32 %0, !dbg !1193
}

; alloc::vec::Vec<T>::as_mut_ptr
; Function Attrs: inlinehint nonlazybind uwtable
define internal i32* @"_ZN5alloc3vec12Vec$LT$T$GT$10as_mut_ptr17h0c32902b03e7d3d2E"(%"std::vec::Vec<i32>"* align 8 dereferenceable(24) %self) unnamed_addr #0 !dbg !1194 {
start:
  %ptr.dbg.spill = alloca i32*, align 8
  %self.dbg.spill = alloca %"std::vec::Vec<i32>"*, align 8, !MPK-SmartPointer !267
  store %"std::vec::Vec<i32>"* %self, %"std::vec::Vec<i32>"** %self.dbg.spill, align 8
  call void @llvm.dbg.declare(metadata %"std::vec::Vec<i32>"** %self.dbg.spill, metadata !1200, metadata !DIExpression()), !dbg !1203
  %_2 = bitcast %"std::vec::Vec<i32>"* %self to { i32*, i64 }*, !dbg !1204, !MPK-SmartPointer !267
; call alloc::raw_vec::RawVec<T,A>::ptr
  %ptr = call i32* @"_ZN5alloc7raw_vec19RawVec$LT$T$C$A$GT$3ptr17ha98bac4c9b872dc5E"({ i32*, i64 }* mpk_immut noalias readonly align 8 dereferenceable(16) %_2), !dbg !1205
  store i32* %ptr, i32** %ptr.dbg.spill, align 8, !dbg !1205
  call void @llvm.dbg.declare(metadata i32** %ptr.dbg.spill, metadata !1201, metadata !DIExpression()), !dbg !1206
  br label %bb1, !dbg !1205

bb1:                                              ; preds = %start
; call core::ptr::mut_ptr::<impl *mut T>::is_null
  %_5 = call zeroext i1 @"_ZN4core3ptr7mut_ptr31_$LT$impl$u20$$BP$mut$u20$T$GT$7is_null17hc537b8e417870f77E"(i32* %ptr), !dbg !1207
  br label %bb2, !dbg !1207

bb2:                                              ; preds = %bb1
  %_4 = xor i1 %_5, true, !dbg !1208
  call void @llvm.assume(i1 %_4), !dbg !1209
  br label %bb3, !dbg !1209

bb3:                                              ; preds = %bb2
  ret i32* %ptr, !dbg !1210
}

; alloc::vec::Vec<T>::from_raw_parts
; Function Attrs: nonlazybind uwtable
define internal void @"_ZN5alloc3vec12Vec$LT$T$GT$14from_raw_parts17hfa732aea6f78e527E"(%"std::vec::Vec<i32>"* noalias nocapture sret dereferenceable(24) %0, i32* mpk_unsafe %ptr, i64 %length, i64 %capacity) unnamed_addr #2 !dbg !1211 {
start:
  %capacity.dbg.spill = alloca i64, align 8
  %length.dbg.spill = alloca i64, align 8
  %ptr.dbg.spill = alloca i32*, align 8
  store i32* %ptr, i32** %ptr.dbg.spill, align 8
  call void @llvm.dbg.declare(metadata i32** %ptr.dbg.spill, metadata !1215, metadata !DIExpression()), !dbg !1218
  store i64 %length, i64* %length.dbg.spill, align 8
  call void @llvm.dbg.declare(metadata i64* %length.dbg.spill, metadata !1216, metadata !DIExpression()), !dbg !1219
  store i64 %capacity, i64* %capacity.dbg.spill, align 8
  call void @llvm.dbg.declare(metadata i64* %capacity.dbg.spill, metadata !1217, metadata !DIExpression()), !dbg !1220
; call alloc::raw_vec::RawVec<T>::from_raw_parts
  %1 = call { i32*, i64 } @"_ZN5alloc7raw_vec15RawVec$LT$T$GT$14from_raw_parts17hc666947fe7e4a31bE"(i32* mpk_unsafe %ptr, i64 %capacity), !dbg !1221
  %_4.0 = extractvalue { i32*, i64 } %1, 0, !dbg !1221
  %_4.1 = extractvalue { i32*, i64 } %1, 1, !dbg !1221
  br label %bb1, !dbg !1221

bb1:                                              ; preds = %start
  %2 = bitcast %"std::vec::Vec<i32>"* %0 to { i32*, i64 }*, !dbg !1222, !MPK-SmartPointer !267
  %3 = getelementptr inbounds { i32*, i64 }, { i32*, i64 }* %2, i32 0, i32 0, !dbg !1222
  store i32* %_4.0, i32** %3, align 8, !dbg !1222
  %4 = getelementptr inbounds { i32*, i64 }, { i32*, i64 }* %2, i32 0, i32 1, !dbg !1222
  store i64 %_4.1, i64* %4, align 8, !dbg !1222
  %5 = getelementptr inbounds %"std::vec::Vec<i32>", %"std::vec::Vec<i32>"* %0, i32 0, i32 3, !dbg !1223
  store i64 %length, i64* %5, align 8, !dbg !1223
  ret void, !dbg !1224
}

; alloc::vec::Vec<T>::as_ptr
; Function Attrs: inlinehint nonlazybind uwtable
define internal mpk_immut i32* @"_ZN5alloc3vec12Vec$LT$T$GT$6as_ptr17hcde5f5ca2a751493E"(%"std::vec::Vec<i32>"* mpk_immut noalias readonly align 8 dereferenceable(24) %self) unnamed_addr #0 !dbg !1225 {
start:
  %ptr.dbg.spill = alloca i32*, align 8
  %self.dbg.spill = alloca %"std::vec::Vec<i32>"*, align 8, !MPK-SmartPointer !267
  store %"std::vec::Vec<i32>"* %self, %"std::vec::Vec<i32>"** %self.dbg.spill, align 8
  call void @llvm.dbg.declare(metadata %"std::vec::Vec<i32>"** %self.dbg.spill, metadata !1229, metadata !DIExpression()), !dbg !1232
  %_3 = bitcast %"std::vec::Vec<i32>"* %self to { i32*, i64 }*, !dbg !1233, !MPK-SmartPointer !267
; call alloc::raw_vec::RawVec<T,A>::ptr
  %ptr = call i32* @"_ZN5alloc7raw_vec19RawVec$LT$T$C$A$GT$3ptr17ha98bac4c9b872dc5E"({ i32*, i64 }* mpk_immut noalias readonly align 8 dereferenceable(16) %_3), !dbg !1234
  store i32* %ptr, i32** %ptr.dbg.spill, align 8, !dbg !1234
  call void @llvm.dbg.declare(metadata i32** %ptr.dbg.spill, metadata !1230, metadata !DIExpression()), !dbg !1235
  br label %bb1, !dbg !1234

bb1:                                              ; preds = %start
; call core::ptr::mut_ptr::<impl *mut T>::is_null
  %_6 = call zeroext i1 @"_ZN4core3ptr7mut_ptr31_$LT$impl$u20$$BP$mut$u20$T$GT$7is_null17hc537b8e417870f77E"(i32* %ptr), !dbg !1236
  br label %bb2, !dbg !1236

bb2:                                              ; preds = %bb1
  %_5 = xor i1 %_6, true, !dbg !1237
  call void @llvm.assume(i1 %_5), !dbg !1238
  br label %bb3, !dbg !1238

bb3:                                              ; preds = %bb2
  ret i32* %ptr, !dbg !1239
}

; alloc::vec::Vec<T>::set_len
; Function Attrs: inlinehint nonlazybind uwtable
define internal void @"_ZN5alloc3vec12Vec$LT$T$GT$7set_len17h9e8e6d29c05f6cd2E"(%"std::vec::Vec<i32>"* align 8 dereferenceable(24) %self, i64 %new_len) unnamed_addr #0 !dbg !1240 {
start:
  %new_len.dbg.spill = alloca i64, align 8
  %self.dbg.spill = alloca %"std::vec::Vec<i32>"*, align 8, !MPK-SmartPointer !267
  store %"std::vec::Vec<i32>"* %self, %"std::vec::Vec<i32>"** %self.dbg.spill, align 8
  call void @llvm.dbg.declare(metadata %"std::vec::Vec<i32>"** %self.dbg.spill, metadata !1244, metadata !DIExpression()), !dbg !1246
  store i64 %new_len, i64* %new_len.dbg.spill, align 8
  call void @llvm.dbg.declare(metadata i64* %new_len.dbg.spill, metadata !1245, metadata !DIExpression()), !dbg !1247
  %0 = getelementptr inbounds %"std::vec::Vec<i32>", %"std::vec::Vec<i32>"* %self, i32 0, i32 3, !dbg !1248
  store i64 %new_len, i64* %0, align 8, !dbg !1248
  ret void, !dbg !1249
}

; alloc::vec::Vec<T>::capacity
; Function Attrs: inlinehint nonlazybind uwtable
define internal i64 @"_ZN5alloc3vec12Vec$LT$T$GT$8capacity17h936aaed6a6b29989E"(%"std::vec::Vec<i32>"* mpk_immut noalias readonly align 8 dereferenceable(24) %self) unnamed_addr #0 !dbg !1250 {
start:
  %0 = alloca i64, align 8
  %self.dbg.spill.i = alloca { i32*, i64 }*, align 8, !MPK-SmartPointer !267
  %1 = alloca i64, align 8
  %self.dbg.spill = alloca %"std::vec::Vec<i32>"*, align 8, !MPK-SmartPointer !267
  store %"std::vec::Vec<i32>"* %self, %"std::vec::Vec<i32>"** %self.dbg.spill, align 8
  call void @llvm.dbg.declare(metadata %"std::vec::Vec<i32>"** %self.dbg.spill, metadata !1254, metadata !DIExpression()), !dbg !1255
  %_2 = bitcast %"std::vec::Vec<i32>"* %self to { i32*, i64 }*, !dbg !1256, !MPK-SmartPointer !267
  store { i32*, i64 }* %_2, { i32*, i64 }** %self.dbg.spill.i, align 8, !noalias !1257
  call void @llvm.dbg.declare(metadata { i32*, i64 }** %self.dbg.spill.i, metadata !1260, metadata !DIExpression()), !dbg !1267
  store i64 4, i64* %0, align 8, !dbg !1269, !noalias !1257
  %2 = load i64, i64* %0, align 8, !dbg !1269, !noalias !1257
  %3 = icmp eq i64 %2, 0, !dbg !1271
  br i1 %3, label %bb3.i, label %bb2.i, !dbg !1271

bb2.i:                                            ; preds = %start
  %4 = getelementptr inbounds { i32*, i64 }, { i32*, i64 }* %_2, i32 0, i32 1, !dbg !1272
  %5 = load i64, i64* %4, align 8, !dbg !1272, !alias.scope !1257
  store i64 %5, i64* %1, align 8, !dbg !1272, !noalias !1257
  br label %"_ZN5alloc7raw_vec19RawVec$LT$T$C$A$GT$8capacity17h1d5bc4eae0cc1f1dE.exit", !dbg !1271

bb3.i:                                            ; preds = %start
  store i64 -1, i64* %1, align 8, !dbg !1273, !noalias !1257
  br label %"_ZN5alloc7raw_vec19RawVec$LT$T$C$A$GT$8capacity17h1d5bc4eae0cc1f1dE.exit", !dbg !1271

"_ZN5alloc7raw_vec19RawVec$LT$T$C$A$GT$8capacity17h1d5bc4eae0cc1f1dE.exit": ; preds = %bb2.i, %bb3.i
  %6 = load i64, i64* %1, align 8, !dbg !1274, !noalias !1257
  br label %bb1, !dbg !1275

bb1:                                              ; preds = %"_ZN5alloc7raw_vec19RawVec$LT$T$C$A$GT$8capacity17h1d5bc4eae0cc1f1dE.exit"
  ret i64 %6, !dbg !1276
}

; alloc::alloc::alloc_zeroed
; Function Attrs: inlinehint nonlazybind uwtable
define internal mpk_unsafe i8* @_ZN5alloc5alloc12alloc_zeroed17h8985f9da19978f17E(i64 %0, i64 %1) unnamed_addr #0 !dbg !1277 {
start:
  %layout = alloca { i64, i64 }, align 8
  %2 = getelementptr inbounds { i64, i64 }, { i64, i64 }* %layout, i32 0, i32 0
  store i64 %0, i64* %2, align 8
  %3 = getelementptr inbounds { i64, i64 }, { i64, i64 }* %layout, i32 0, i32 1
  store i64 %1, i64* %3, align 8
  call void @llvm.dbg.declare(metadata { i64, i64 }* %layout, metadata !1282, metadata !DIExpression()), !dbg !1283
; call core::alloc::layout::Layout::size
  %_2 = call i64 @_ZN4core5alloc6layout6Layout4size17h07d5eeac68a5ac0cE({ i64, i64 }* mpk_immut noalias readonly align 8 dereferenceable(16) %layout), !dbg !1284
  br label %bb1, !dbg !1284

bb1:                                              ; preds = %start
; call core::alloc::layout::Layout::align
  %_4 = call i64 @_ZN4core5alloc6layout6Layout5align17hde3bb1e78eaf8d08E({ i64, i64 }* mpk_immut noalias readonly align 8 dereferenceable(16) %layout), !dbg !1285
  br label %bb2, !dbg !1285

bb2:                                              ; preds = %bb1
  %4 = call mpk_unsafe i8* @__rust_alloc_zeroed(i64 %_2, i64 %_4), !dbg !1286
  br label %bb3, !dbg !1286

bb3:                                              ; preds = %bb2
  ret i8* %4, !dbg !1287
}

; alloc::alloc::exchange_malloc
; Function Attrs: inlinehint nonlazybind uwtable
define internal mpk_unsafe i8* @_ZN5alloc5alloc15exchange_malloc17h200b0ca573cdc90dE(i64 %size, i64 %align) unnamed_addr #0 !dbg !1288 {
start:
  %ptr.dbg.spill = alloca { i8*, i64 }, align 8
  %layout.dbg.spill = alloca { i64, i64 }, align 8
  %align.dbg.spill = alloca i64, align 8
  %size.dbg.spill = alloca i64, align 8
  %_6 = alloca { i8*, i64 }, align 8, !MPK-SmartPointer !267
  store i64 %size, i64* %size.dbg.spill, align 8
  call void @llvm.dbg.declare(metadata i64* %size.dbg.spill, metadata !1292, metadata !DIExpression()), !dbg !1298
  store i64 %align, i64* %align.dbg.spill, align 8
  call void @llvm.dbg.declare(metadata i64* %align.dbg.spill, metadata !1293, metadata !DIExpression()), !dbg !1299
; call core::alloc::layout::Layout::from_size_align_unchecked
  %0 = call { i64, i64 } @_ZN4core5alloc6layout6Layout25from_size_align_unchecked17h1699ba5b3834f783E(i64 %size, i64 %align), !dbg !1300
  %layout.0 = extractvalue { i64, i64 } %0, 0, !dbg !1300
  %layout.1 = extractvalue { i64, i64 } %0, 1, !dbg !1300
  %1 = getelementptr inbounds { i64, i64 }, { i64, i64 }* %layout.dbg.spill, i32 0, i32 0, !dbg !1300
  store i64 %layout.0, i64* %1, align 8, !dbg !1300
  %2 = getelementptr inbounds { i64, i64 }, { i64, i64 }* %layout.dbg.spill, i32 0, i32 1, !dbg !1300
  store i64 %layout.1, i64* %2, align 8, !dbg !1300
  call void @llvm.dbg.declare(metadata { i64, i64 }* %layout.dbg.spill, metadata !1294, metadata !DIExpression()), !dbg !1301
  br label %bb1, !dbg !1300

bb1:                                              ; preds = %start
; call <alloc::alloc::Global as core::alloc::AllocRef>::alloc
  %3 = call { i8*, i64 } @"_ZN62_$LT$alloc..alloc..Global$u20$as$u20$core..alloc..AllocRef$GT$5alloc17h0dee5ce87bfcb0dcE"(%"std::alloc::Global"* mpk_immut noalias nonnull readonly align 1 bitcast (<{ [0 x i8] }>* @alloc7 to %"std::alloc::Global"*), i64 %layout.0, i64 %layout.1), !dbg !1302
  store { i8*, i64 } %3, { i8*, i64 }* %_6, align 8, !dbg !1302
  br label %bb2, !dbg !1302

bb2:                                              ; preds = %bb1
  %4 = bitcast { i8*, i64 }* %_6 to {}**, !dbg !1303
  %5 = load {}*, {}** %4, align 8, !dbg !1303
  %6 = icmp eq {}* %5, null, !dbg !1303
  %_9 = select i1 %6, i64 1, i64 0, !dbg !1303
  switch i64 %_9, label %bb4 [
    i64 0, label %bb5
    i64 1, label %bb3
  ], !dbg !1304

bb3:                                              ; preds = %bb2
; call alloc::alloc::handle_alloc_error
  call void @_ZN5alloc5alloc18handle_alloc_error17h988aff758f9fc198E(i64 %layout.0, i64 %layout.1), !dbg !1305
  unreachable, !dbg !1305

bb4:                                              ; preds = %bb2
  unreachable, !dbg !1306

bb5:                                              ; preds = %bb2
  %7 = getelementptr inbounds { i8*, i64 }, { i8*, i64 }* %_6, i32 0, i32 0, !dbg !1307
  %ptr.0 = load i8*, i8** %7, align 8, !dbg !1307, !nonnull !4
  %8 = getelementptr inbounds { i8*, i64 }, { i8*, i64 }* %_6, i32 0, i32 1, !dbg !1307
  %ptr.1 = load i64, i64* %8, align 8, !dbg !1307
  %9 = getelementptr inbounds { i8*, i64 }, { i8*, i64 }* %ptr.dbg.spill, i32 0, i32 0, !dbg !1307
  store i8* %ptr.0, i8** %9, align 8, !dbg !1307
  %10 = getelementptr inbounds { i8*, i64 }, { i8*, i64 }* %ptr.dbg.spill, i32 0, i32 1, !dbg !1307
  store i64 %ptr.1, i64* %10, align 8, !dbg !1307
  call void @llvm.dbg.declare(metadata { i8*, i64 }* %ptr.dbg.spill, metadata !1296, metadata !DIExpression()), !dbg !1308
; call core::ptr::non_null::NonNull<[T]>::as_mut_ptr
  %11 = call i8* @"_ZN4core3ptr8non_null26NonNull$LT$$u5b$T$u5d$$GT$10as_mut_ptr17he10adf85e17fa53bE"(i8* mpk_immut nonnull %ptr.0, i64 %ptr.1), !dbg !1309
  br label %bb6, !dbg !1309

bb6:                                              ; preds = %bb5
  ret i8* %11, !dbg !1310
}

; alloc::alloc::alloc
; Function Attrs: inlinehint nonlazybind uwtable
define internal mpk_unsafe i8* @_ZN5alloc5alloc5alloc17h678618a1f39bb685E(i64 %0, i64 %1) unnamed_addr #0 !dbg !1311 {
start:
  %layout = alloca { i64, i64 }, align 8
  %2 = getelementptr inbounds { i64, i64 }, { i64, i64 }* %layout, i32 0, i32 0
  store i64 %0, i64* %2, align 8
  %3 = getelementptr inbounds { i64, i64 }, { i64, i64 }* %layout, i32 0, i32 1
  store i64 %1, i64* %3, align 8
  call void @llvm.dbg.declare(metadata { i64, i64 }* %layout, metadata !1313, metadata !DIExpression()), !dbg !1314
; call core::alloc::layout::Layout::size
  %_2 = call i64 @_ZN4core5alloc6layout6Layout4size17h07d5eeac68a5ac0cE({ i64, i64 }* mpk_immut noalias readonly align 8 dereferenceable(16) %layout), !dbg !1315
  br label %bb1, !dbg !1315

bb1:                                              ; preds = %start
; call core::alloc::layout::Layout::align
  %_4 = call i64 @_ZN4core5alloc6layout6Layout5align17hde3bb1e78eaf8d08E({ i64, i64 }* mpk_immut noalias readonly align 8 dereferenceable(16) %layout), !dbg !1316
  br label %bb2, !dbg !1316

bb2:                                              ; preds = %bb1
  %4 = call mpk_unsafe i8* @__rust_alloc(i64 %_2, i64 %_4), !dbg !1317
  br label %bb3, !dbg !1317

bb3:                                              ; preds = %bb2
  ret i8* %4, !dbg !1318
}

; alloc::alloc::Global::alloc_impl
; Function Attrs: inlinehint nonlazybind uwtable
define internal { i8*, i64 } @_ZN5alloc5alloc6Global10alloc_impl17h235e5e3a244f08fdE(%"std::alloc::Global"* mpk_immut noalias nonnull readonly align 1 %self, i64 %0, i64 %1, i1 zeroext %zeroed) unnamed_addr #0 !dbg !1319 {
start:
  %ptr.dbg.spill = alloca i8*, align 8
  %val.dbg.spill = alloca i8*, align 8
  %size.dbg.spill = alloca i64, align 8
  %err.dbg.spill = alloca %"std::alloc::AllocError", align 1
  %zeroed.dbg.spill = alloca i8, align 1
  %self.dbg.spill = alloca %"std::alloc::Global"*, align 8
  %_19 = alloca %"std::alloc::AllocError", align 1
  %_15 = alloca i8*, align 8
  %raw_ptr = alloca i8*, align 8
  %2 = alloca { i8*, i64 }, align 8, !MPK-SmartPointer !267
  %layout = alloca { i64, i64 }, align 8
  %3 = getelementptr inbounds { i64, i64 }, { i64, i64 }* %layout, i32 0, i32 0
  store i64 %0, i64* %3, align 8
  %4 = getelementptr inbounds { i64, i64 }, { i64, i64 }* %layout, i32 0, i32 1
  store i64 %1, i64* %4, align 8
  store %"std::alloc::Global"* %self, %"std::alloc::Global"** %self.dbg.spill, align 8
  call void @llvm.dbg.declare(metadata %"std::alloc::Global"** %self.dbg.spill, metadata !1338, metadata !DIExpression()), !dbg !1351
  call void @llvm.dbg.declare(metadata { i64, i64 }* %layout, metadata !1339, metadata !DIExpression()), !dbg !1352
  %5 = zext i1 %zeroed to i8
  store i8 %5, i8* %zeroed.dbg.spill, align 1
  call void @llvm.dbg.declare(metadata i8* %zeroed.dbg.spill, metadata !1340, metadata !DIExpression()), !dbg !1353
  call void @llvm.dbg.declare(metadata i8** %raw_ptr, metadata !1343, metadata !DIExpression()), !dbg !1354
  call void @llvm.dbg.declare(metadata %"std::alloc::AllocError"* %err.dbg.spill, metadata !1347, metadata !DIExpression()), !dbg !1355
; call core::alloc::layout::Layout::size
  %_4 = call i64 @_ZN4core5alloc6layout6Layout4size17h07d5eeac68a5ac0cE({ i64, i64 }* mpk_immut noalias readonly align 8 dereferenceable(16) %layout), !dbg !1356
  br label %bb1, !dbg !1356

bb1:                                              ; preds = %start
  %6 = icmp eq i64 %_4, 0, !dbg !1357
  br i1 %6, label %bb3, label %bb2, !dbg !1357

bb2:                                              ; preds = %bb1
  store i64 %_4, i64* %size.dbg.spill, align 8, !dbg !1358
  call void @llvm.dbg.declare(metadata i64* %size.dbg.spill, metadata !1341, metadata !DIExpression()), !dbg !1359
  br i1 %zeroed, label %bb7, label %bb6, !dbg !1360

bb3:                                              ; preds = %bb1
; call core::alloc::layout::Layout::dangling
  %_7 = call mpk_immut nonnull i8* @_ZN4core5alloc6layout6Layout8dangling17h1feac1aab6904462E({ i64, i64 }* mpk_immut noalias readonly align 8 dereferenceable(16) %layout), !dbg !1361
  br label %bb4, !dbg !1361

bb4:                                              ; preds = %bb3
; call core::ptr::non_null::NonNull<[T]>::slice_from_raw_parts
  %7 = call { i8*, i64 } @"_ZN4core3ptr8non_null26NonNull$LT$$u5b$T$u5d$$GT$20slice_from_raw_parts17h71606f2c2f86b9c5E"(i8* mpk_immut nonnull %_7, i64 0), !dbg !1362
  %_6.0 = extractvalue { i8*, i64 } %7, 0, !dbg !1362
  %_6.1 = extractvalue { i8*, i64 } %7, 1, !dbg !1362
  br label %bb5, !dbg !1362

bb5:                                              ; preds = %bb4
  %8 = getelementptr inbounds { i8*, i64 }, { i8*, i64 }* %2, i32 0, i32 0, !dbg !1363
  store i8* %_6.0, i8** %8, align 8, !dbg !1363
  %9 = getelementptr inbounds { i8*, i64 }, { i8*, i64 }* %2, i32 0, i32 1, !dbg !1363
  store i64 %_6.1, i64* %9, align 8, !dbg !1363
  br label %bb20, !dbg !1364

bb6:                                              ; preds = %bb2
  %10 = getelementptr inbounds { i64, i64 }, { i64, i64 }* %layout, i32 0, i32 0, !dbg !1365
  %_13.0 = load i64, i64* %10, align 8, !dbg !1365
  %11 = getelementptr inbounds { i64, i64 }, { i64, i64 }* %layout, i32 0, i32 1, !dbg !1365
  %_13.1 = load i64, i64* %11, align 8, !dbg !1365, !range !463
; call alloc::alloc::alloc
  %12 = call mpk_unsafe i8* @_ZN5alloc5alloc5alloc17h678618a1f39bb685E(i64 %_13.0, i64 %_13.1), !dbg !1366
  store i8* %12, i8** %raw_ptr, align 8, !dbg !1366
  br label %bb9, !dbg !1366

bb7:                                              ; preds = %bb2
  %13 = getelementptr inbounds { i64, i64 }, { i64, i64 }* %layout, i32 0, i32 0, !dbg !1367
  %_12.0 = load i64, i64* %13, align 8, !dbg !1367
  %14 = getelementptr inbounds { i64, i64 }, { i64, i64 }* %layout, i32 0, i32 1, !dbg !1367
  %_12.1 = load i64, i64* %14, align 8, !dbg !1367, !range !463
; call alloc::alloc::alloc_zeroed
  %15 = call mpk_unsafe i8* @_ZN5alloc5alloc12alloc_zeroed17h8985f9da19978f17E(i64 %_12.0, i64 %_12.1), !dbg !1368
  store i8* %15, i8** %raw_ptr, align 8, !dbg !1368
  br label %bb8, !dbg !1368

bb8:                                              ; preds = %bb7
  br label %bb10, !dbg !1369

bb9:                                              ; preds = %bb6
  br label %bb10, !dbg !1370

bb10:                                             ; preds = %bb9, %bb8
  %_18 = load i8*, i8** %raw_ptr, align 8, !dbg !1371
; call core::ptr::non_null::NonNull<T>::new
  %_17 = call mpk_immut i8* @"_ZN4core3ptr8non_null16NonNull$LT$T$GT$3new17he9440fa3bb331ca6E"(i8* %_18), !dbg !1372
  br label %bb11, !dbg !1372

bb11:                                             ; preds = %bb10
; call core::option::Option<T>::ok_or
  %_16 = call mpk_immut i8* @"_ZN4core6option15Option$LT$T$GT$5ok_or17h4a9f1d00333c96adE"(i8* mpk_immut %_17), !dbg !1373
  br label %bb12, !dbg !1373

bb12:                                             ; preds = %bb11
; call <core::result::Result<T,E> as core::ops::try::Try>::into_result
  %16 = call mpk_immut i8* @"_ZN73_$LT$core..result..Result$LT$T$C$E$GT$$u20$as$u20$core..ops..try..Try$GT$11into_result17h8b5e961879f83787E"(i8* mpk_immut %_16), !dbg !1374
  store i8* %16, i8** %_15, align 8, !dbg !1374
  br label %bb13, !dbg !1374

bb13:                                             ; preds = %bb12
  %17 = bitcast i8** %_15 to {}**, !dbg !1375
  %18 = load {}*, {}** %17, align 8, !dbg !1375
  %19 = icmp eq {}* %18, null, !dbg !1375
  %_20 = select i1 %19, i64 1, i64 0, !dbg !1375
  switch i64 %_20, label %bb15 [
    i64 0, label %bb14
    i64 1, label %bb16
  ], !dbg !1376

bb14:                                             ; preds = %bb13
  %val = load i8*, i8** %_15, align 8, !dbg !1377, !nonnull !4
  store i8* %val, i8** %val.dbg.spill, align 8, !dbg !1377
  call void @llvm.dbg.declare(metadata i8** %val.dbg.spill, metadata !1349, metadata !DIExpression()), !dbg !1378
  store i8* %val, i8** %ptr.dbg.spill, align 8, !dbg !1379
  call void @llvm.dbg.declare(metadata i8** %ptr.dbg.spill, metadata !1345, metadata !DIExpression()), !dbg !1380
; call core::ptr::non_null::NonNull<[T]>::slice_from_raw_parts
  %20 = call { i8*, i64 } @"_ZN4core3ptr8non_null26NonNull$LT$$u5b$T$u5d$$GT$20slice_from_raw_parts17h71606f2c2f86b9c5E"(i8* mpk_immut nonnull %val, i64 %_4), !dbg !1381
  %_25.0 = extractvalue { i8*, i64 } %20, 0, !dbg !1381
  %_25.1 = extractvalue { i8*, i64 } %20, 1, !dbg !1381
  br label %bb19, !dbg !1381

bb15:                                             ; preds = %bb13
  unreachable, !dbg !1382

bb16:                                             ; preds = %bb13
; call <T as core::convert::From<T>>::from
  call void @"_ZN50_$LT$T$u20$as$u20$core..convert..From$LT$T$GT$$GT$4from17h1b5e7400c59f8410E"(), !dbg !1383
  br label %bb17, !dbg !1383

bb17:                                             ; preds = %bb16
; call <core::result::Result<T,E> as core::ops::try::Try>::from_error
  %21 = call { i8*, i64 } @"_ZN73_$LT$core..result..Result$LT$T$C$E$GT$$u20$as$u20$core..ops..try..Try$GT$10from_error17h8151ea9a5184fee0E"(), !dbg !1384
  store { i8*, i64 } %21, { i8*, i64 }* %2, align 8, !dbg !1384
  br label %bb18, !dbg !1384

bb18:                                             ; preds = %bb17
  br label %bb21, !dbg !1385

bb19:                                             ; preds = %bb14
  %22 = getelementptr inbounds { i8*, i64 }, { i8*, i64 }* %2, i32 0, i32 0, !dbg !1386
  store i8* %_25.0, i8** %22, align 8, !dbg !1386
  %23 = getelementptr inbounds { i8*, i64 }, { i8*, i64 }* %2, i32 0, i32 1, !dbg !1386
  store i64 %_25.1, i64* %23, align 8, !dbg !1386
  br label %bb20, !dbg !1387

bb20:                                             ; preds = %bb5, %bb19
  br label %bb21, !dbg !1388

bb21:                                             ; preds = %bb20, %bb18
  %24 = getelementptr inbounds { i8*, i64 }, { i8*, i64 }* %2, i32 0, i32 0, !dbg !1389
  %25 = load i8*, i8** %24, align 8, !dbg !1389
  %26 = getelementptr inbounds { i8*, i64 }, { i8*, i64 }* %2, i32 0, i32 1, !dbg !1389
  %27 = load i64, i64* %26, align 8, !dbg !1389
  %28 = insertvalue { i8*, i64 } undef, i8* %25, 0, !dbg !1389
  %29 = insertvalue { i8*, i64 } %28, i64 %27, 1, !dbg !1389
  ret { i8*, i64 } %29, !dbg !1389
}

; alloc::alloc::dealloc
; Function Attrs: inlinehint nonlazybind uwtable
define internal void @_ZN5alloc5alloc7dealloc17h97e2ba8020a65fbfE(i8* mpk_unsafe %ptr, i64 %0, i64 %1) unnamed_addr #0 !dbg !1390 {
start:
  %ptr.dbg.spill = alloca i8*, align 8
  %layout = alloca { i64, i64 }, align 8
  %2 = getelementptr inbounds { i64, i64 }, { i64, i64 }* %layout, i32 0, i32 0
  store i64 %0, i64* %2, align 8
  %3 = getelementptr inbounds { i64, i64 }, { i64, i64 }* %layout, i32 0, i32 1
  store i64 %1, i64* %3, align 8
  store i8* %ptr, i8** %ptr.dbg.spill, align 8
  call void @llvm.dbg.declare(metadata i8** %ptr.dbg.spill, metadata !1394, metadata !DIExpression()), !dbg !1396
  call void @llvm.dbg.declare(metadata { i64, i64 }* %layout, metadata !1395, metadata !DIExpression()), !dbg !1397
; call core::alloc::layout::Layout::size
  %_4 = call i64 @_ZN4core5alloc6layout6Layout4size17h07d5eeac68a5ac0cE({ i64, i64 }* mpk_immut noalias readonly align 8 dereferenceable(16) %layout), !dbg !1398
  br label %bb1, !dbg !1398

bb1:                                              ; preds = %start
; call core::alloc::layout::Layout::align
  %_6 = call i64 @_ZN4core5alloc6layout6Layout5align17hde3bb1e78eaf8d08E({ i64, i64 }* mpk_immut noalias readonly align 8 dereferenceable(16) %layout), !dbg !1399
  br label %bb2, !dbg !1399

bb2:                                              ; preds = %bb1
  call void @__rust_dealloc(i8* mpk_unsafe %ptr, i64 %_4, i64 %_6), !dbg !1400
  br label %bb3, !dbg !1400

bb3:                                              ; preds = %bb2
  ret void, !dbg !1401
}

; alloc::alloc::box_free
; Function Attrs: inlinehint nonlazybind uwtable
define internal void @_ZN5alloc5alloc8box_free17h4eb0efa0847cbcc8E(i32* mpk_immut mpk_unsafe nonnull %0, i64 %1) unnamed_addr #0 personality i32 (i32, i32, i64, %"unwind::libunwind::_Unwind_Exception"*, %"unwind::libunwind::_Unwind_Context"*)* @rust_eh_personality !dbg !1402 {
start:
  %layout.dbg.spill = alloca { i64, i64 }, align 8
  %align.dbg.spill = alloca i64, align 8
  %2 = alloca i64, align 8
  %size.dbg.spill = alloca i64, align 8
  %3 = alloca i64, align 8
  %4 = alloca { i8*, i32 }, align 8
  %alloc = alloca %"std::alloc::Global", align 1
  %ptr = alloca { i32*, i64 }, align 8
  %5 = getelementptr inbounds { i32*, i64 }, { i32*, i64 }* %ptr, i32 0, i32 0
  store i32* %0, i32** %5, align 8
  %6 = getelementptr inbounds { i32*, i64 }, { i32*, i64 }* %ptr, i32 0, i32 1
  store i64 %1, i64* %6, align 8
  call void @llvm.dbg.declare(metadata { i32*, i64 }* %ptr, metadata !1406, metadata !DIExpression()), !dbg !1414
  call void @llvm.dbg.declare(metadata %"std::alloc::Global"* %alloc, metadata !1407, metadata !DIExpression()), !dbg !1415
; invoke core::ptr::unique::Unique<T>::as_ref
  %7 = invoke { [0 x i32]*, i64 } @"_ZN4core3ptr6unique15Unique$LT$T$GT$6as_ref17h44554a8e8a2ae465E"({ i32*, i64 }* mpk_immut noalias readonly align 8 dereferenceable(16) %ptr)
          to label %bb1 unwind label %cleanup, !dbg !1416

bb1:                                              ; preds = %start
  %_5.0 = extractvalue { [0 x i32]*, i64 } %7, 0, !dbg !1417
  %_5.1 = extractvalue { [0 x i32]*, i64 } %7, 1, !dbg !1417
  %8 = mul i64 %_5.1, 4, !dbg !1418
  store i64 %8, i64* %3, align 8, !dbg !1418
  %size = load i64, i64* %3, align 8, !dbg !1418
  store i64 %size, i64* %size.dbg.spill, align 8, !dbg !1418
  call void @llvm.dbg.declare(metadata i64* %size.dbg.spill, metadata !1408, metadata !DIExpression()), !dbg !1419
  br label %bb2, !dbg !1418

bb2:                                              ; preds = %bb1
; invoke core::ptr::unique::Unique<T>::as_ref
  %9 = invoke { [0 x i32]*, i64 } @"_ZN4core3ptr6unique15Unique$LT$T$GT$6as_ref17h44554a8e8a2ae465E"({ i32*, i64 }* mpk_immut noalias readonly align 8 dereferenceable(16) %ptr)
          to label %bb3 unwind label %cleanup, !dbg !1420

bb3:                                              ; preds = %bb2
  %_9.0 = extractvalue { [0 x i32]*, i64 } %9, 0, !dbg !1421
  %_9.1 = extractvalue { [0 x i32]*, i64 } %9, 1, !dbg !1421
  %10 = mul i64 %_9.1, 4, !dbg !1422
  store i64 4, i64* %2, align 8, !dbg !1422
  %align = load i64, i64* %2, align 8, !dbg !1422
  store i64 %align, i64* %align.dbg.spill, align 8, !dbg !1422
  call void @llvm.dbg.declare(metadata i64* %align.dbg.spill, metadata !1410, metadata !DIExpression()), !dbg !1423
  br label %bb4, !dbg !1422

bb4:                                              ; preds = %bb3
; invoke core::alloc::layout::Layout::from_size_align_unchecked
  %11 = invoke { i64, i64 } @_ZN4core5alloc6layout6Layout25from_size_align_unchecked17h1699ba5b3834f783E(i64 %size, i64 %align)
          to label %bb5 unwind label %cleanup, !dbg !1424

bb5:                                              ; preds = %bb4
  %layout.0 = extractvalue { i64, i64 } %11, 0, !dbg !1425
  %layout.1 = extractvalue { i64, i64 } %11, 1, !dbg !1425
  %12 = getelementptr inbounds { i64, i64 }, { i64, i64 }* %layout.dbg.spill, i32 0, i32 0, !dbg !1425
  store i64 %layout.0, i64* %12, align 8, !dbg !1425
  %13 = getelementptr inbounds { i64, i64 }, { i64, i64 }* %layout.dbg.spill, i32 0, i32 1, !dbg !1425
  store i64 %layout.1, i64* %13, align 8, !dbg !1425
  call void @llvm.dbg.declare(metadata { i64, i64 }* %layout.dbg.spill, metadata !1412, metadata !DIExpression()), !dbg !1426
  %14 = getelementptr inbounds { i32*, i64 }, { i32*, i64 }* %ptr, i32 0, i32 0, !dbg !1427
  %_17.0 = load i32*, i32** %14, align 8, !dbg !1427, !nonnull !4
  %15 = getelementptr inbounds { i32*, i64 }, { i32*, i64 }* %ptr, i32 0, i32 1, !dbg !1427
  %_17.1 = load i64, i64* %15, align 8, !dbg !1427
; invoke core::ptr::unique::Unique<T>::cast
  %_16 = invoke mpk_immut nonnull i8* @"_ZN4core3ptr6unique15Unique$LT$T$GT$4cast17h5926825bea614c1eE"(i32* mpk_immut nonnull %_17.0, i64 %_17.1)
          to label %bb6 unwind label %cleanup, !dbg !1428

bb6:                                              ; preds = %bb5
; invoke <T as core::convert::Into<U>>::into
  %_15 = invoke mpk_immut nonnull i8* @"_ZN50_$LT$T$u20$as$u20$core..convert..Into$LT$U$GT$$GT$4into17h6b5f33d149855f28E"(i8* mpk_immut nonnull %_16)
          to label %bb7 unwind label %cleanup, !dbg !1429

bb7:                                              ; preds = %bb6
; invoke <alloc::alloc::Global as core::alloc::AllocRef>::dealloc
  invoke void @"_ZN62_$LT$alloc..alloc..Global$u20$as$u20$core..alloc..AllocRef$GT$7dealloc17h4a98a1cb57d49813E"(%"std::alloc::Global"* mpk_immut noalias nonnull readonly align 1 %alloc, i8* mpk_immut mpk_unsafe nonnull %_15, i64 %layout.0, i64 %layout.1)
          to label %bb8 unwind label %cleanup, !dbg !1430

bb8:                                              ; preds = %bb7
  br label %bb9, !dbg !1431

bb9:                                              ; preds = %bb8
  ret void, !dbg !1432

bb10:                                             ; preds = %cleanup
  br label %bb11, !dbg !1433

bb11:                                             ; preds = %bb10
  %16 = bitcast { i8*, i32 }* %4 to i8**, !dbg !1434
  %17 = load i8*, i8** %16, align 8, !dbg !1434
  %18 = getelementptr inbounds { i8*, i32 }, { i8*, i32 }* %4, i32 0, i32 1, !dbg !1434
  %19 = load i32, i32* %18, align 8, !dbg !1434
  %20 = insertvalue { i8*, i32 } undef, i8* %17, 0, !dbg !1434
  %21 = insertvalue { i8*, i32 } %20, i32 %19, 1, !dbg !1434
  resume { i8*, i32 } %21, !dbg !1434

cleanup:                                          ; preds = %bb7, %bb6, %bb5, %bb4, %bb2, %start
  %22 = landingpad { i8*, i32 }
          cleanup
  %23 = extractvalue { i8*, i32 } %22, 0
  %24 = extractvalue { i8*, i32 } %22, 1
  %25 = getelementptr inbounds { i8*, i32 }, { i8*, i32 }* %4, i32 0, i32 0
  store i8* %23, i8** %25, align 8
  %26 = getelementptr inbounds { i8*, i32 }, { i8*, i32 }* %4, i32 0, i32 1
  store i32 %24, i32* %26, align 8
  br label %bb10
}

; alloc::boxed::Box<T,A>::into_unique
; Function Attrs: inlinehint nonlazybind uwtable
define internal { i32*, i64 } @"_ZN5alloc5boxed16Box$LT$T$C$A$GT$11into_unique17hc85d50471c065228E"([0 x i32]* mpk_immut noalias nonnull align 4 %0, i64 %1) unnamed_addr #0 personality i32 (i32, i32, i64, %"unwind::libunwind::_Unwind_Exception"*, %"unwind::libunwind::_Unwind_Context"*)* @rust_eh_personality !dbg !1435 {
start:
  %2 = alloca { i8*, i32 }, align 8
  %alloc.dbg.spill = alloca %"std::alloc::Global", align 1
  %_9 = alloca i8, align 1
  %3 = alloca { i32*, i64 }, align 8, !MPK-SmartPointer !267
  %b = alloca { [0 x i32]*, i64 }, align 8, !MPK-SmartPointer !267
  %4 = getelementptr inbounds { [0 x i32]*, i64 }, { [0 x i32]*, i64 }* %b, i32 0, i32 0
  store [0 x i32]* %0, [0 x i32]** %4, align 8
  %5 = getelementptr inbounds { [0 x i32]*, i64 }, { [0 x i32]*, i64 }* %b, i32 0, i32 1
  store i64 %1, i64* %5, align 8
  call void @llvm.dbg.declare(metadata { [0 x i32]*, i64 }* %b, metadata !1446, metadata !DIExpression()), !dbg !1449
  call void @llvm.dbg.declare(metadata %"std::alloc::Global"* %alloc.dbg.spill, metadata !1447, metadata !DIExpression()), !dbg !1450
  store i8 0, i8* %_9, align 1, !dbg !1451
  store i8 1, i8* %_9, align 1, !dbg !1452
  %_4 = bitcast { [0 x i32]*, i64 }* %b to %"std::alloc::Global"*, !dbg !1453
; invoke core::ptr::read
  invoke void @_ZN4core3ptr4read17h07d7b66b3db4ed97E(%"std::alloc::Global"* mpk_immut mpk_unsafe %_4)
          to label %bb1 unwind label %cleanup, !dbg !1454

bb1:                                              ; preds = %start
  store i8 0, i8* %_9, align 1, !dbg !1455
  %6 = getelementptr inbounds { [0 x i32]*, i64 }, { [0 x i32]*, i64 }* %b, i32 0, i32 0, !dbg !1456
  %_7.0 = load [0 x i32]*, [0 x i32]** %6, align 8, !dbg !1456, !nonnull !4
  %7 = getelementptr inbounds { [0 x i32]*, i64 }, { [0 x i32]*, i64 }* %b, i32 0, i32 1, !dbg !1456
  %_7.1 = load i64, i64* %7, align 8, !dbg !1456
; invoke alloc::boxed::Box<T,A>::leak
  %8 = invoke { [0 x i32]*, i64 } @"_ZN5alloc5boxed16Box$LT$T$C$A$GT$4leak17hc88028f895b9f31aE"([0 x i32]* mpk_immut noalias nonnull align 4 %_7.0, i64 %_7.1)
          to label %bb2 unwind label %cleanup1, !dbg !1457

bb2:                                              ; preds = %bb1
  %_6.0 = extractvalue { [0 x i32]*, i64 } %8, 0, !dbg !1458
  %_6.1 = extractvalue { [0 x i32]*, i64 } %8, 1, !dbg !1458
; invoke <core::ptr::unique::Unique<T> as core::convert::From<&mut T>>::from
  %9 = invoke { i32*, i64 } @"_ZN95_$LT$core..ptr..unique..Unique$LT$T$GT$$u20$as$u20$core..convert..From$LT$$RF$mut$u20$T$GT$$GT$4from17hcf2a6362339b64dcE"([0 x i32]* nonnull align 4 %_6.0, i64 %_6.1)
          to label %bb3 unwind label %cleanup1, !dbg !1459

bb3:                                              ; preds = %bb2
  %_5.0 = extractvalue { i32*, i64 } %9, 0, !dbg !1460
  %_5.1 = extractvalue { i32*, i64 } %9, 1, !dbg !1460
  %10 = getelementptr inbounds { i32*, i64 }, { i32*, i64 }* %3, i32 0, i32 0, !dbg !1461
  store i32* %_5.0, i32** %10, align 8, !dbg !1461
  %11 = getelementptr inbounds { i32*, i64 }, { i32*, i64 }* %3, i32 0, i32 1, !dbg !1461
  store i64 %_5.1, i64* %11, align 8, !dbg !1461
  %12 = bitcast { i32*, i64 }* %3 to i8*, !dbg !1462
  %13 = getelementptr i8, i8* %12, i64 16, !dbg !1462
  %14 = bitcast i8* %13 to %"std::alloc::Global"*, !dbg !1462
  %15 = getelementptr inbounds { i32*, i64 }, { i32*, i64 }* %3, i32 0, i32 0, !dbg !1463
  %16 = load i32*, i32** %15, align 8, !dbg !1463, !nonnull !4
  %17 = getelementptr inbounds { i32*, i64 }, { i32*, i64 }* %3, i32 0, i32 1, !dbg !1463
  %18 = load i64, i64* %17, align 8, !dbg !1463
  %19 = insertvalue { i32*, i64 } undef, i32* %16, 0, !dbg !1463
  %20 = insertvalue { i32*, i64 } %19, i64 %18, 1, !dbg !1463
  ret { i32*, i64 } %20, !dbg !1463

bb4:                                              ; preds = %cleanup1
  br label %bb7, !dbg !1464

bb5:                                              ; preds = %bb6, %bb7
  %21 = bitcast { i8*, i32 }* %2 to i8**, !dbg !1465
  %22 = load i8*, i8** %21, align 8, !dbg !1465
  %23 = getelementptr inbounds { i8*, i32 }, { i8*, i32 }* %2, i32 0, i32 1, !dbg !1465
  %24 = load i32, i32* %23, align 8, !dbg !1465
  %25 = insertvalue { i8*, i32 } undef, i8* %22, 0, !dbg !1465
  %26 = insertvalue { i8*, i32 } %25, i32 %24, 1, !dbg !1465
  resume { i8*, i32 } %26, !dbg !1465

bb6:                                              ; preds = %bb7
; call core::ptr::drop_in_place
  call void @_ZN4core3ptr13drop_in_place17hb95ca1738c2cdf43E({ [0 x i32]*, i64 }* mpk_unsafe %b) #11, !dbg !1466
  br label %bb5, !dbg !1466

bb7:                                              ; preds = %bb4, %cleanup
  %27 = load i8, i8* %_9, align 1, !dbg !1467, !range !298
  %28 = trunc i8 %27 to i1, !dbg !1467
  br i1 %28, label %bb6, label %bb5, !dbg !1467

cleanup:                                          ; preds = %start
  %29 = landingpad { i8*, i32 }
          cleanup
  %30 = extractvalue { i8*, i32 } %29, 0
  %31 = extractvalue { i8*, i32 } %29, 1
  %32 = getelementptr inbounds { i8*, i32 }, { i8*, i32 }* %2, i32 0, i32 0
  store i8* %30, i8** %32, align 8
  %33 = getelementptr inbounds { i8*, i32 }, { i8*, i32 }* %2, i32 0, i32 1
  store i32 %31, i32* %33, align 8
  br label %bb7

cleanup1:                                         ; preds = %bb2, %bb1
  %34 = landingpad { i8*, i32 }
          cleanup
  %35 = extractvalue { i8*, i32 } %34, 0
  %36 = extractvalue { i8*, i32 } %34, 1
  %37 = getelementptr inbounds { i8*, i32 }, { i8*, i32 }* %2, i32 0, i32 0
  store i8* %35, i8** %37, align 8
  %38 = getelementptr inbounds { i8*, i32 }, { i8*, i32 }* %2, i32 0, i32 1
  store i32 %36, i32* %38, align 8
  br label %bb4
}

; alloc::boxed::Box<T,A>::into_raw_with_alloc
; Function Attrs: inlinehint nonlazybind uwtable
define internal { i32*, i64 } @"_ZN5alloc5boxed16Box$LT$T$C$A$GT$19into_raw_with_alloc17h99ec2c50d1a078cfE"([0 x i32]* mpk_immut noalias nonnull align 4 %b.0, i64 %b.1) unnamed_addr #0 personality i32 (i32, i32, i64, %"unwind::libunwind::_Unwind_Exception"*, %"unwind::libunwind::_Unwind_Context"*)* @rust_eh_personality !dbg !1468 {
start:
  %0 = alloca { i8*, i32 }, align 8
  %leaked.dbg.spill = alloca { i32*, i64 }, align 8
  %alloc.dbg.spill = alloca %"std::alloc::Global", align 1
  %b.dbg.spill = alloca { [0 x i32]*, i64 }, align 8, !MPK-SmartPointer !267
  %1 = alloca { i32*, i64 }, align 8, !MPK-SmartPointer !267
  %2 = getelementptr inbounds { [0 x i32]*, i64 }, { [0 x i32]*, i64 }* %b.dbg.spill, i32 0, i32 0
  store [0 x i32]* %b.0, [0 x i32]** %2, align 8
  %3 = getelementptr inbounds { [0 x i32]*, i64 }, { [0 x i32]*, i64 }* %b.dbg.spill, i32 0, i32 1
  store i64 %b.1, i64* %3, align 8
  call void @llvm.dbg.declare(metadata { [0 x i32]*, i64 }* %b.dbg.spill, metadata !1476, metadata !DIExpression()), !dbg !1480
  call void @llvm.dbg.declare(metadata %"std::alloc::Global"* %alloc.dbg.spill, metadata !1479, metadata !DIExpression()), !dbg !1481
; call alloc::boxed::Box<T,A>::into_unique
  %4 = call { i32*, i64 } @"_ZN5alloc5boxed16Box$LT$T$C$A$GT$11into_unique17hc85d50471c065228E"([0 x i32]* mpk_immut noalias nonnull align 4 %b.0, i64 %b.1), !dbg !1482
  %_4.0 = extractvalue { i32*, i64 } %4, 0, !dbg !1482
  %_4.1 = extractvalue { i32*, i64 } %4, 1, !dbg !1482
  br label %bb1, !dbg !1482

bb1:                                              ; preds = %start
  %5 = getelementptr inbounds { i32*, i64 }, { i32*, i64 }* %leaked.dbg.spill, i32 0, i32 0, !dbg !1483
  store i32* %_4.0, i32** %5, align 8, !dbg !1483
  %6 = getelementptr inbounds { i32*, i64 }, { i32*, i64 }* %leaked.dbg.spill, i32 0, i32 1, !dbg !1483
  store i64 %_4.1, i64* %6, align 8, !dbg !1483
  call void @llvm.dbg.declare(metadata { i32*, i64 }* %leaked.dbg.spill, metadata !1477, metadata !DIExpression()), !dbg !1484
; invoke core::ptr::unique::Unique<T>::as_ptr
  %7 = invoke { [0 x i32]*, i64 } @"_ZN4core3ptr6unique15Unique$LT$T$GT$6as_ptr17h63fe3d5caa7ed3a5E"(i32* mpk_immut nonnull %_4.0, i64 %_4.1)
          to label %bb2 unwind label %cleanup, !dbg !1485

bb2:                                              ; preds = %bb1
  %_6.0 = extractvalue { [0 x i32]*, i64 } %7, 0, !dbg !1486
  %_6.1 = extractvalue { [0 x i32]*, i64 } %7, 1, !dbg !1486
  %8 = bitcast { i32*, i64 }* %1 to { [0 x i32]*, i64 }*, !dbg !1487, !MPK-SmartPointer !267
  %9 = getelementptr inbounds { [0 x i32]*, i64 }, { [0 x i32]*, i64 }* %8, i32 0, i32 0, !dbg !1487
  store [0 x i32]* %_6.0, [0 x i32]** %9, align 8, !dbg !1487
  %10 = getelementptr inbounds { [0 x i32]*, i64 }, { [0 x i32]*, i64 }* %8, i32 0, i32 1, !dbg !1487
  store i64 %_6.1, i64* %10, align 8, !dbg !1487
  %11 = bitcast { i32*, i64 }* %1 to i8*, !dbg !1488
  %12 = getelementptr i8, i8* %11, i64 16, !dbg !1488
  %13 = bitcast i8* %12 to %"std::alloc::Global"*, !dbg !1488
  %14 = getelementptr inbounds { i32*, i64 }, { i32*, i64 }* %1, i32 0, i32 0, !dbg !1489
  %15 = load i32*, i32** %14, align 8, !dbg !1489
  %16 = getelementptr inbounds { i32*, i64 }, { i32*, i64 }* %1, i32 0, i32 1, !dbg !1489
  %17 = load i64, i64* %16, align 8, !dbg !1489
  %18 = insertvalue { i32*, i64 } undef, i32* %15, 0, !dbg !1489
  %19 = insertvalue { i32*, i64 } %18, i64 %17, 1, !dbg !1489
  ret { i32*, i64 } %19, !dbg !1489

bb3:                                              ; preds = %cleanup
  br label %bb4, !dbg !1490

bb4:                                              ; preds = %bb3
  %20 = bitcast { i8*, i32 }* %0 to i8**, !dbg !1491
  %21 = load i8*, i8** %20, align 8, !dbg !1491
  %22 = getelementptr inbounds { i8*, i32 }, { i8*, i32 }* %0, i32 0, i32 1, !dbg !1491
  %23 = load i32, i32* %22, align 8, !dbg !1491
  %24 = insertvalue { i8*, i32 } undef, i8* %21, 0, !dbg !1491
  %25 = insertvalue { i8*, i32 } %24, i32 %23, 1, !dbg !1491
  resume { i8*, i32 } %25, !dbg !1491

cleanup:                                          ; preds = %bb1
  %26 = landingpad { i8*, i32 }
          cleanup
  %27 = extractvalue { i8*, i32 } %26, 0
  %28 = extractvalue { i8*, i32 } %26, 1
  %29 = getelementptr inbounds { i8*, i32 }, { i8*, i32 }* %0, i32 0, i32 0
  store i8* %27, i8** %29, align 8
  %30 = getelementptr inbounds { i8*, i32 }, { i8*, i32 }* %0, i32 0, i32 1
  store i32 %28, i32* %30, align 8
  br label %bb3
}

; alloc::boxed::Box<T,A>::leak
; Function Attrs: inlinehint nonlazybind uwtable
define internal { [0 x i32]*, i64 } @"_ZN5alloc5boxed16Box$LT$T$C$A$GT$4leak17hc88028f895b9f31aE"([0 x i32]* mpk_immut noalias nonnull align 4 %b.0, i64 %b.1) unnamed_addr #0 !dbg !1492 {
start:
  %self.dbg.spill.i = alloca { i32*, i64 }*, align 8
  %value.dbg.spill.i = alloca { [0 x i32]*, i64 }, align 8, !MPK-SmartPointer !267
  %0 = alloca { i32*, i64 }, align 8, !MPK-SmartPointer !267
  %b.dbg.spill = alloca { [0 x i32]*, i64 }, align 8, !MPK-SmartPointer !267
  %_9 = alloca { i32*, i64 }, align 8
  %1 = getelementptr inbounds { [0 x i32]*, i64 }, { [0 x i32]*, i64 }* %b.dbg.spill, i32 0, i32 0
  store [0 x i32]* %b.0, [0 x i32]** %1, align 8
  %2 = getelementptr inbounds { [0 x i32]*, i64 }, { [0 x i32]*, i64 }* %b.dbg.spill, i32 0, i32 1
  store i64 %b.1, i64* %2, align 8
  call void @llvm.dbg.declare(metadata { [0 x i32]*, i64 }* %b.dbg.spill, metadata !1500, metadata !DIExpression()), !dbg !1501
  %3 = getelementptr inbounds { [0 x i32]*, i64 }, { [0 x i32]*, i64 }* %value.dbg.spill.i, i32 0, i32 0
  store [0 x i32]* %b.0, [0 x i32]** %3, align 8, !noalias !1502
  %4 = getelementptr inbounds { [0 x i32]*, i64 }, { [0 x i32]*, i64 }* %value.dbg.spill.i, i32 0, i32 1
  store i64 %b.1, i64* %4, align 8, !noalias !1502
  call void @llvm.dbg.declare(metadata { [0 x i32]*, i64 }* %value.dbg.spill.i, metadata !1505, metadata !DIExpression()), !dbg !1513
  %5 = bitcast { i32*, i64 }* %0 to { [0 x i32]*, i64 }*, !dbg !1515, !MPK-SmartPointer !267
  %6 = getelementptr inbounds { [0 x i32]*, i64 }, { [0 x i32]*, i64 }* %5, i32 0, i32 0, !dbg !1515
  store [0 x i32]* %b.0, [0 x i32]** %6, align 8, !dbg !1515, !noalias !1502
  %7 = getelementptr inbounds { [0 x i32]*, i64 }, { [0 x i32]*, i64 }* %5, i32 0, i32 1, !dbg !1515
  store i64 %b.1, i64* %7, align 8, !dbg !1515, !noalias !1502
  %8 = getelementptr inbounds { i32*, i64 }, { i32*, i64 }* %0, i32 0, i32 0, !dbg !1516
  %9 = load i32*, i32** %8, align 8, !dbg !1516, !noalias !1502, !nonnull !4
  %10 = getelementptr inbounds { i32*, i64 }, { i32*, i64 }* %0, i32 0, i32 1, !dbg !1516
  %11 = load i64, i64* %10, align 8, !dbg !1516, !noalias !1502
  %12 = insertvalue { i32*, i64 } undef, i32* %9, 0, !dbg !1516
  %13 = insertvalue { i32*, i64 } %12, i64 %11, 1, !dbg !1516
  store { i32*, i64 } %13, { i32*, i64 }* %_9, align 8, !dbg !1517
  br label %bb1, !dbg !1517

bb1:                                              ; preds = %start
  store { i32*, i64 }* %_9, { i32*, i64 }** %self.dbg.spill.i, align 8, !noalias !1518
  call void @llvm.dbg.declare(metadata { i32*, i64 }** %self.dbg.spill.i, metadata !1521, metadata !DIExpression()), !dbg !1529
  %14 = bitcast { i32*, i64 }* %_9 to { [0 x i32]*, i64 }*, !dbg !1531, !MPK-SmartPointer !267
  br label %bb2, !dbg !1532

bb2:                                              ; preds = %bb1
  %15 = bitcast { [0 x i32]*, i64 }* %14 to { i32*, i64 }*, !dbg !1533, !MPK-SmartPointer !267
  %16 = getelementptr inbounds { i32*, i64 }, { i32*, i64 }* %15, i32 0, i32 0, !dbg !1533
  %_6.0 = load i32*, i32** %16, align 8, !dbg !1533, !nonnull !4
  %17 = getelementptr inbounds { i32*, i64 }, { i32*, i64 }* %15, i32 0, i32 1, !dbg !1533
  %_6.1 = load i64, i64* %17, align 8, !dbg !1533
; call core::ptr::unique::Unique<T>::as_ptr
  %18 = call { [0 x i32]*, i64 } @"_ZN4core3ptr6unique15Unique$LT$T$GT$6as_ptr17h63fe3d5caa7ed3a5E"(i32* mpk_immut nonnull %_6.0, i64 %_6.1), !dbg !1534
  %_5.0 = extractvalue { [0 x i32]*, i64 } %18, 0, !dbg !1534
  %_5.1 = extractvalue { [0 x i32]*, i64 } %18, 1, !dbg !1534
  br label %bb3, !dbg !1534

bb3:                                              ; preds = %bb2
  %19 = insertvalue { [0 x i32]*, i64 } undef, [0 x i32]* %_5.0, 0, !dbg !1535
  %20 = insertvalue { [0 x i32]*, i64 } %19, i64 %_5.1, 1, !dbg !1535
  ret { [0 x i32]*, i64 } %20, !dbg !1535
}

; alloc::boxed::Box<T,A>::into_raw
; Function Attrs: inlinehint nonlazybind uwtable
define internal { [0 x i32]*, i64 } @"_ZN5alloc5boxed16Box$LT$T$C$A$GT$8into_raw17h7e291b2fcd2abd8eE"([0 x i32]* mpk_immut noalias nonnull align 4 %b.0, i64 %b.1) unnamed_addr #0 !dbg !1536 {
start:
  %b.dbg.spill = alloca { [0 x i32]*, i64 }, align 8, !MPK-SmartPointer !267
  %0 = getelementptr inbounds { [0 x i32]*, i64 }, { [0 x i32]*, i64 }* %b.dbg.spill, i32 0, i32 0
  store [0 x i32]* %b.0, [0 x i32]** %0, align 8
  %1 = getelementptr inbounds { [0 x i32]*, i64 }, { [0 x i32]*, i64 }* %b.dbg.spill, i32 0, i32 1
  store i64 %b.1, i64* %1, align 8
  call void @llvm.dbg.declare(metadata { [0 x i32]*, i64 }* %b.dbg.spill, metadata !1540, metadata !DIExpression()), !dbg !1541
; call alloc::boxed::Box<T,A>::into_raw_with_alloc
  %2 = call { i32*, i64 } @"_ZN5alloc5boxed16Box$LT$T$C$A$GT$19into_raw_with_alloc17h99ec2c50d1a078cfE"([0 x i32]* mpk_immut noalias nonnull align 4 %b.0, i64 %b.1), !dbg !1542
  %_2.0 = extractvalue { i32*, i64 } %2, 0, !dbg !1542
  %_2.1 = extractvalue { i32*, i64 } %2, 1, !dbg !1542
  br label %bb1, !dbg !1542

bb1:                                              ; preds = %start
  %3 = bitcast i32* %_2.0 to [0 x i32]*, !dbg !1543
  br label %bb2, !dbg !1544

bb2:                                              ; preds = %bb1
  %4 = insertvalue { [0 x i32]*, i64 } undef, [0 x i32]* %3, 0, !dbg !1545
  %5 = insertvalue { [0 x i32]*, i64 } %4, i64 %_2.1, 1, !dbg !1545
  ret { [0 x i32]*, i64 } %5, !dbg !1545
}

; alloc::slice::<impl [T]>::into_vec
; Function Attrs: inlinehint nonlazybind uwtable
define internal void @"_ZN5alloc5slice29_$LT$impl$u20$$u5b$T$u5d$$GT$8into_vec17hc59164068662c637E"(%"std::vec::Vec<i32>"* noalias nocapture sret dereferenceable(24) %0, [0 x i32]* mpk_immut noalias nonnull align 4 %self.0, i64 %self.1) unnamed_addr #0 !dbg !1546 {
start:
  %self.dbg.spill = alloca { [0 x i32]*, i64 }, align 8, !MPK-SmartPointer !267
  %1 = getelementptr inbounds { [0 x i32]*, i64 }, { [0 x i32]*, i64 }* %self.dbg.spill, i32 0, i32 0
  store [0 x i32]* %self.0, [0 x i32]** %1, align 8
  %2 = getelementptr inbounds { [0 x i32]*, i64 }, { [0 x i32]*, i64 }* %self.dbg.spill, i32 0, i32 1
  store i64 %self.1, i64* %2, align 8
  call void @llvm.dbg.declare(metadata { [0 x i32]*, i64 }* %self.dbg.spill, metadata !1553, metadata !DIExpression()), !dbg !1554
; call alloc::slice::hack::into_vec
  call void @_ZN5alloc5slice4hack8into_vec17h774ae25c8839ce60E(%"std::vec::Vec<i32>"* noalias nocapture sret dereferenceable(24) %0, [0 x i32]* mpk_immut noalias nonnull align 4 %self.0, i64 %self.1), !dbg !1555
  br label %bb1, !dbg !1555

bb1:                                              ; preds = %start
  ret void, !dbg !1556
}

; alloc::slice::hack::into_vec
; Function Attrs: nonlazybind uwtable
define internal void @_ZN5alloc5slice4hack8into_vec17h774ae25c8839ce60E(%"std::vec::Vec<i32>"* noalias nocapture sret dereferenceable(24) %0, [0 x i32]* mpk_immut noalias nonnull align 4 %1, i64 %2) unnamed_addr #2 personality i32 (i32, i32, i64, %"unwind::libunwind::_Unwind_Exception"*, %"unwind::libunwind::_Unwind_Context"*)* @rust_eh_personality !dbg !1557 {
start:
  %b.dbg.spill = alloca { [0 x i32]*, i64 }, align 8, !MPK-SmartPointer !267
  %len.dbg.spill = alloca i64, align 8
  %3 = alloca { i8*, i32 }, align 8
  %_10 = alloca i8, align 1
  %b = alloca { [0 x i32]*, i64 }, align 8, !MPK-SmartPointer !267
  %4 = getelementptr inbounds { [0 x i32]*, i64 }, { [0 x i32]*, i64 }* %b, i32 0, i32 0
  store [0 x i32]* %1, [0 x i32]** %4, align 8
  %5 = getelementptr inbounds { [0 x i32]*, i64 }, { [0 x i32]*, i64 }* %b, i32 0, i32 1
  store i64 %2, i64* %5, align 8
  call void @llvm.dbg.declare(metadata { [0 x i32]*, i64 }* %b, metadata !1560, metadata !DIExpression()), !dbg !1565
  store i8 0, i8* %_10, align 1, !dbg !1566
  store i8 1, i8* %_10, align 1, !dbg !1567
  %6 = getelementptr inbounds { [0 x i32]*, i64 }, { [0 x i32]*, i64 }* %b, i32 0, i32 0, !dbg !1568
  %_3.0 = load [0 x i32]*, [0 x i32]** %6, align 8, !dbg !1568, !nonnull !4
  %7 = getelementptr inbounds { [0 x i32]*, i64 }, { [0 x i32]*, i64 }* %b, i32 0, i32 1, !dbg !1568
  %_3.1 = load i64, i64* %7, align 8, !dbg !1568
; invoke core::slice::<impl [T]>::len
  %len = invoke i64 @"_ZN4core5slice29_$LT$impl$u20$$u5b$T$u5d$$GT$3len17h4d8273294ed3defaE"([0 x i32]* mpk_immut noalias nonnull readonly align 4 %_3.0, i64 %_3.1)
          to label %bb1 unwind label %cleanup, !dbg !1569

bb1:                                              ; preds = %start
  store i64 %len, i64* %len.dbg.spill, align 8, !dbg !1570
  call void @llvm.dbg.declare(metadata i64* %len.dbg.spill, metadata !1561, metadata !DIExpression()), !dbg !1571
  store i8 0, i8* %_10, align 1, !dbg !1572
  %8 = getelementptr inbounds { [0 x i32]*, i64 }, { [0 x i32]*, i64 }* %b, i32 0, i32 0, !dbg !1573
  %_5.0 = load [0 x i32]*, [0 x i32]** %8, align 8, !dbg !1573, !nonnull !4
  %9 = getelementptr inbounds { [0 x i32]*, i64 }, { [0 x i32]*, i64 }* %b, i32 0, i32 1, !dbg !1573
  %_5.1 = load i64, i64* %9, align 8, !dbg !1573
  store i64 4387985865706188285, i64* @METASAFE_TYPE_ID, align 8
; invoke alloc::boxed::Box<T,A>::into_raw
  %10 = invoke { [0 x i32]*, i64 } @"_ZN5alloc5boxed16Box$LT$T$C$A$GT$8into_raw17h7e291b2fcd2abd8eE"([0 x i32]* mpk_immut noalias nonnull align 4 %_5.0, i64 %_5.1)
          to label %bb2 unwind label %cleanup, !dbg !1574

bb2:                                              ; preds = %bb1
  %b.0 = extractvalue { [0 x i32]*, i64 } %10, 0, !dbg !1575
  %b.1 = extractvalue { [0 x i32]*, i64 } %10, 1, !dbg !1575
  %11 = getelementptr inbounds { [0 x i32]*, i64 }, { [0 x i32]*, i64 }* %b.dbg.spill, i32 0, i32 0, !dbg !1575
  store [0 x i32]* %b.0, [0 x i32]** %11, align 8, !dbg !1575
  %12 = getelementptr inbounds { [0 x i32]*, i64 }, { [0 x i32]*, i64 }* %b.dbg.spill, i32 0, i32 1, !dbg !1575
  store i64 %b.1, i64* %12, align 8, !dbg !1575
  call void @llvm.dbg.declare(metadata { [0 x i32]*, i64 }* %b.dbg.spill, metadata !1563, metadata !DIExpression()), !dbg !1576
  %_6 = bitcast [0 x i32]* %b.0 to i32*, !dbg !1577
  store i64 -5015437470765251660, i64* @METASAFE_TYPE_ID, align 8
; invoke alloc::vec::Vec<T>::from_raw_parts
  invoke void @"_ZN5alloc3vec12Vec$LT$T$GT$14from_raw_parts17hfa732aea6f78e527E"(%"std::vec::Vec<i32>"* noalias nocapture sret dereferenceable(24) %0, i32* mpk_unsafe %_6, i64 %len, i64 %len)
          to label %bb3 unwind label %cleanup, !dbg !1578

bb3:                                              ; preds = %bb2
  ret void, !dbg !1579

bb4:                                              ; preds = %bb5, %bb6
  %13 = bitcast { i8*, i32 }* %3 to i8**, !dbg !1580
  %14 = load i8*, i8** %13, align 8, !dbg !1580
  %15 = getelementptr inbounds { i8*, i32 }, { i8*, i32 }* %3, i32 0, i32 1, !dbg !1580
  %16 = load i32, i32* %15, align 8, !dbg !1580
  %17 = insertvalue { i8*, i32 } undef, i8* %14, 0, !dbg !1580
  %18 = insertvalue { i8*, i32 } %17, i32 %16, 1, !dbg !1580
  resume { i8*, i32 } %18, !dbg !1580

bb5:                                              ; preds = %bb6
; call core::ptr::drop_in_place
  call void @_ZN4core3ptr13drop_in_place17hb95ca1738c2cdf43E({ [0 x i32]*, i64 }* mpk_unsafe %b) #11, !dbg !1581
  br label %bb4, !dbg !1581

bb6:                                              ; preds = %cleanup
  %19 = load i8, i8* %_10, align 1, !dbg !1582, !range !298
  %20 = trunc i8 %19 to i1, !dbg !1582
  br i1 %20, label %bb5, label %bb4, !dbg !1582

cleanup:                                          ; preds = %bb2, %bb1, %start
  %21 = landingpad { i8*, i32 }
          cleanup
  %22 = extractvalue { i8*, i32 } %21, 0
  %23 = extractvalue { i8*, i32 } %21, 1
  %24 = getelementptr inbounds { i8*, i32 }, { i8*, i32 }* %3, i32 0, i32 0
  store i8* %22, i8** %24, align 8
  %25 = getelementptr inbounds { i8*, i32 }, { i8*, i32 }* %3, i32 0, i32 1
  store i32 %23, i32* %25, align 8
  br label %bb6
}

; alloc::raw_vec::RawVec<T>::from_raw_parts
; Function Attrs: inlinehint nonlazybind uwtable
define internal { i32*, i64 } @"_ZN5alloc7raw_vec15RawVec$LT$T$GT$14from_raw_parts17hc666947fe7e4a31bE"(i32* mpk_unsafe %ptr, i64 %capacity) unnamed_addr #0 !dbg !1583 {
start:
  %capacity.dbg.spill = alloca i64, align 8
  %ptr.dbg.spill = alloca i32*, align 8
  %_5 = alloca %"std::alloc::Global", align 1
  store i32* %ptr, i32** %ptr.dbg.spill, align 8
  call void @llvm.dbg.declare(metadata i32** %ptr.dbg.spill, metadata !1587, metadata !DIExpression()), !dbg !1589
  store i64 %capacity, i64* %capacity.dbg.spill, align 8
  call void @llvm.dbg.declare(metadata i64* %capacity.dbg.spill, metadata !1588, metadata !DIExpression()), !dbg !1590
; call alloc::raw_vec::RawVec<T,A>::from_raw_parts_in
  %0 = call { i32*, i64 } @"_ZN5alloc7raw_vec19RawVec$LT$T$C$A$GT$17from_raw_parts_in17h56d46f7716042606E"(i32* mpk_unsafe %ptr, i64 %capacity), !dbg !1591
  %1 = extractvalue { i32*, i64 } %0, 0, !dbg !1591
  %2 = extractvalue { i32*, i64 } %0, 1, !dbg !1591
  br label %bb1, !dbg !1591

bb1:                                              ; preds = %start
  %3 = insertvalue { i32*, i64 } undef, i32* %1, 0, !dbg !1592
  %4 = insertvalue { i32*, i64 } %3, i64 %2, 1, !dbg !1592
  ret { i32*, i64 } %4, !dbg !1592
}

; alloc::raw_vec::RawVec<T,A>::current_memory
; Function Attrs: nonlazybind uwtable
define internal void @"_ZN5alloc7raw_vec19RawVec$LT$T$C$A$GT$14current_memory17hc56cf6ee750af1a2E"(%"std::option::Option<(std::ptr::NonNull<u8>, std::alloc::Layout)>"* noalias nocapture sret dereferenceable(24) %0, { i32*, i64 }* mpk_immut noalias readonly align 8 dereferenceable(16) %self) unnamed_addr #2 !dbg !1593 {
start:
  %1 = alloca i64, align 8
  %2 = alloca i64, align 8
  %3 = alloca i64, align 8
  %layout.dbg.spill = alloca { i64, i64 }, align 8
  %size.dbg.spill = alloca i64, align 8
  %align.dbg.spill = alloca i64, align 8
  %self.dbg.spill = alloca { i32*, i64 }*, align 8, !MPK-SmartPointer !267
  %_12 = alloca { [0 x i64], i8*, [0 x i64], { i64, i64 }, [0 x i64] }, align 8
  %_2 = alloca i8, align 1
  store { i32*, i64 }* %self, { i32*, i64 }** %self.dbg.spill, align 8
  call void @llvm.dbg.declare(metadata { i32*, i64 }** %self.dbg.spill, metadata !1613, metadata !DIExpression()), !dbg !1620
  store i64 4, i64* %3, align 8, !dbg !1621
  %4 = load i64, i64* %3, align 8, !dbg !1621
  br label %bb5, !dbg !1623

bb1:                                              ; preds = %bb3, %bb5
  store i8 1, i8* %_2, align 1, !dbg !1624
  br label %bb4, !dbg !1625

bb2:                                              ; preds = %bb3
  store i8 0, i8* %_2, align 1, !dbg !1626
  br label %bb4, !dbg !1627

bb3:                                              ; preds = %bb5
  %5 = getelementptr inbounds { i32*, i64 }, { i32*, i64 }* %self, i32 0, i32 1, !dbg !1628
  %_4 = load i64, i64* %5, align 8, !dbg !1628
  %6 = icmp eq i64 %_4, 0, !dbg !1629
  br i1 %6, label %bb1, label %bb2, !dbg !1629

bb4:                                              ; preds = %bb1, %bb2
  %7 = load i8, i8* %_2, align 1, !dbg !1630, !range !298
  %8 = trunc i8 %7 to i1, !dbg !1630
  br i1 %8, label %bb7, label %bb6, !dbg !1630

bb5:                                              ; preds = %start
  %9 = icmp eq i64 %4, 0, !dbg !1631
  br i1 %9, label %bb1, label %bb3, !dbg !1631

bb6:                                              ; preds = %bb4
  store i64 4, i64* %2, align 8, !dbg !1632
  %10 = load i64, i64* %2, align 8, !dbg !1632
  store i64 %10, i64* %align.dbg.spill, align 8, !dbg !1635
  call void @llvm.dbg.declare(metadata i64* %align.dbg.spill, metadata !1614, metadata !DIExpression()), !dbg !1636
  br label %bb8, !dbg !1635

bb7:                                              ; preds = %bb4
  %11 = bitcast %"std::option::Option<(std::ptr::NonNull<u8>, std::alloc::Layout)>"* %0 to {}**, !dbg !1637
  store {}* null, {}** %11, align 8, !dbg !1637
  br label %bb13, !dbg !1638

bb8:                                              ; preds = %bb6
  store i64 4, i64* %1, align 8, !dbg !1639
  %12 = load i64, i64* %1, align 8, !dbg !1639
  br label %bb9, !dbg !1641

bb9:                                              ; preds = %bb8
  %13 = getelementptr inbounds { i32*, i64 }, { i32*, i64 }* %self, i32 0, i32 1, !dbg !1642
  %_8 = load i64, i64* %13, align 8, !dbg !1642
  %size = mul i64 %12, %_8, !dbg !1643
  store i64 %size, i64* %size.dbg.spill, align 8, !dbg !1643
  call void @llvm.dbg.declare(metadata i64* %size.dbg.spill, metadata !1616, metadata !DIExpression()), !dbg !1644
; call core::alloc::layout::Layout::from_size_align_unchecked
  %14 = call { i64, i64 } @_ZN4core5alloc6layout6Layout25from_size_align_unchecked17h1699ba5b3834f783E(i64 %size, i64 %10), !dbg !1645
  %layout.0 = extractvalue { i64, i64 } %14, 0, !dbg !1645
  %layout.1 = extractvalue { i64, i64 } %14, 1, !dbg !1645
  %15 = getelementptr inbounds { i64, i64 }, { i64, i64 }* %layout.dbg.spill, i32 0, i32 0, !dbg !1645
  store i64 %layout.0, i64* %15, align 8, !dbg !1645
  %16 = getelementptr inbounds { i64, i64 }, { i64, i64 }* %layout.dbg.spill, i32 0, i32 1, !dbg !1645
  store i64 %layout.1, i64* %16, align 8, !dbg !1645
  call void @llvm.dbg.declare(metadata { i64, i64 }* %layout.dbg.spill, metadata !1618, metadata !DIExpression()), !dbg !1646
  br label %bb10, !dbg !1645

bb10:                                             ; preds = %bb9
  %17 = bitcast { i32*, i64 }* %self to i32**, !dbg !1647
  %_15 = load i32*, i32** %17, align 8, !dbg !1647, !nonnull !4
; call core::ptr::unique::Unique<T>::cast
  %_14 = call mpk_immut nonnull i8* @"_ZN4core3ptr6unique15Unique$LT$T$GT$4cast17h9daf1f8b1d441bdaE"(i32* mpk_immut nonnull %_15), !dbg !1648
  br label %bb11, !dbg !1648

bb11:                                             ; preds = %bb10
; call <T as core::convert::Into<U>>::into
  %_13 = call mpk_immut nonnull i8* @"_ZN50_$LT$T$u20$as$u20$core..convert..Into$LT$U$GT$$GT$4into17h6b5f33d149855f28E"(i8* mpk_immut nonnull %_14), !dbg !1649
  br label %bb12, !dbg !1649

bb12:                                             ; preds = %bb11
  %18 = bitcast { [0 x i64], i8*, [0 x i64], { i64, i64 }, [0 x i64] }* %_12 to i8**, !dbg !1650
  store i8* %_13, i8** %18, align 8, !dbg !1650
  %19 = getelementptr inbounds { [0 x i64], i8*, [0 x i64], { i64, i64 }, [0 x i64] }, { [0 x i64], i8*, [0 x i64], { i64, i64 }, [0 x i64] }* %_12, i32 0, i32 3, !dbg !1651
  %20 = getelementptr inbounds { i64, i64 }, { i64, i64 }* %19, i32 0, i32 0, !dbg !1651
  store i64 %layout.0, i64* %20, align 8, !dbg !1651
  %21 = getelementptr inbounds { i64, i64 }, { i64, i64 }* %19, i32 0, i32 1, !dbg !1651
  store i64 %layout.1, i64* %21, align 8, !dbg !1651
  %22 = bitcast %"std::option::Option<(std::ptr::NonNull<u8>, std::alloc::Layout)>"* %0 to %"std::option::Option<(std::ptr::NonNull<u8>, std::alloc::Layout)>::Some"*, !dbg !1652
  %23 = bitcast %"std::option::Option<(std::ptr::NonNull<u8>, std::alloc::Layout)>::Some"* %22 to { [0 x i64], i8*, [0 x i64], { i64, i64 }, [0 x i64] }*, !dbg !1652
  %24 = bitcast { [0 x i64], i8*, [0 x i64], { i64, i64 }, [0 x i64] }* %23 to i8*, !dbg !1652
  %25 = bitcast { [0 x i64], i8*, [0 x i64], { i64, i64 }, [0 x i64] }* %_12 to i8*, !dbg !1652
  call void @llvm.memcpy.p0i8.p0i8.i64(i8* align 8 %24, i8* align 8 %25, i64 24, i1 false), !dbg !1652
  br label %bb13, !dbg !1653

bb13:                                             ; preds = %bb12, %bb7
  ret void, !dbg !1654
}

; alloc::raw_vec::RawVec<T,A>::from_raw_parts_in
; Function Attrs: inlinehint nonlazybind uwtable
define internal { i32*, i64 } @"_ZN5alloc7raw_vec19RawVec$LT$T$C$A$GT$17from_raw_parts_in17h56d46f7716042606E"(i32* mpk_unsafe %ptr, i64 %capacity) unnamed_addr #0 personality i32 (i32, i32, i64, %"unwind::libunwind::_Unwind_Exception"*, %"unwind::libunwind::_Unwind_Context"*)* @rust_eh_personality !dbg !1655 {
start:
  %0 = alloca { i8*, i32 }, align 8
  %alloc.dbg.spill = alloca %"std::alloc::Global", align 1
  %capacity.dbg.spill = alloca i64, align 8
  %ptr.dbg.spill = alloca i32*, align 8
  %1 = alloca { i32*, i64 }, align 8, !MPK-SmartPointer !267
  store i32* %ptr, i32** %ptr.dbg.spill, align 8
  call void @llvm.dbg.declare(metadata i32** %ptr.dbg.spill, metadata !1659, metadata !DIExpression()), !dbg !1662
  store i64 %capacity, i64* %capacity.dbg.spill, align 8
  call void @llvm.dbg.declare(metadata i64* %capacity.dbg.spill, metadata !1660, metadata !DIExpression()), !dbg !1663
  call void @llvm.dbg.declare(metadata %"std::alloc::Global"* %alloc.dbg.spill, metadata !1661, metadata !DIExpression()), !dbg !1664
; invoke core::ptr::unique::Unique<T>::new_unchecked
  %_4 = invoke mpk_immut mpk_unsafe nonnull i32* @"_ZN4core3ptr6unique15Unique$LT$T$GT$13new_unchecked17h42b2342089c55d30E"(i32* mpk_unsafe %ptr)
          to label %bb1 unwind label %cleanup, !dbg !1665

bb1:                                              ; preds = %start
  %2 = bitcast { i32*, i64 }* %1 to i32**, !dbg !1666
  store i32* %_4, i32** %2, align 8, !dbg !1666
  %3 = getelementptr inbounds { i32*, i64 }, { i32*, i64 }* %1, i32 0, i32 1, !dbg !1667
  store i64 %capacity, i64* %3, align 8, !dbg !1667
  %4 = bitcast { i32*, i64 }* %1 to %"std::alloc::Global"*, !dbg !1668
  %5 = getelementptr inbounds { i32*, i64 }, { i32*, i64 }* %1, i32 0, i32 0, !dbg !1669
  %6 = load i32*, i32** %5, align 8, !dbg !1669, !nonnull !4
  %7 = getelementptr inbounds { i32*, i64 }, { i32*, i64 }* %1, i32 0, i32 1, !dbg !1669
  %8 = load i64, i64* %7, align 8, !dbg !1669
  %9 = insertvalue { i32*, i64 } undef, i32* %6, 0, !dbg !1669
  %10 = insertvalue { i32*, i64 } %9, i64 %8, 1, !dbg !1669
  ret { i32*, i64 } %10, !dbg !1669

bb2:                                              ; preds = %cleanup
  br label %bb3, !dbg !1670

bb3:                                              ; preds = %bb2
  %11 = bitcast { i8*, i32 }* %0 to i8**, !dbg !1671
  %12 = load i8*, i8** %11, align 8, !dbg !1671
  %13 = getelementptr inbounds { i8*, i32 }, { i8*, i32 }* %0, i32 0, i32 1, !dbg !1671
  %14 = load i32, i32* %13, align 8, !dbg !1671
  %15 = insertvalue { i8*, i32 } undef, i8* %12, 0, !dbg !1671
  %16 = insertvalue { i8*, i32 } %15, i32 %14, 1, !dbg !1671
  resume { i8*, i32 } %16, !dbg !1671

cleanup:                                          ; preds = %start
  %17 = landingpad { i8*, i32 }
          cleanup
  %18 = extractvalue { i8*, i32 } %17, 0
  %19 = extractvalue { i8*, i32 } %17, 1
  %20 = getelementptr inbounds { i8*, i32 }, { i8*, i32 }* %0, i32 0, i32 0
  store i8* %18, i8** %20, align 8
  %21 = getelementptr inbounds { i8*, i32 }, { i8*, i32 }* %0, i32 0, i32 1
  store i32 %19, i32* %21, align 8
  br label %bb2
}

; alloc::raw_vec::RawVec<T,A>::ptr
; Function Attrs: nonlazybind uwtable
define internal i32* @"_ZN5alloc7raw_vec19RawVec$LT$T$C$A$GT$3ptr17ha98bac4c9b872dc5E"({ i32*, i64 }* mpk_immut noalias readonly align 8 dereferenceable(16) %self) unnamed_addr #2 !dbg !1672 {
start:
  %self.dbg.spill = alloca { i32*, i64 }*, align 8, !MPK-SmartPointer !267
  store { i32*, i64 }* %self, { i32*, i64 }** %self.dbg.spill, align 8
  call void @llvm.dbg.declare(metadata { i32*, i64 }** %self.dbg.spill, metadata !1676, metadata !DIExpression()), !dbg !1677
  %0 = bitcast { i32*, i64 }* %self to i32**, !dbg !1678
  %_2 = load i32*, i32** %0, align 8, !dbg !1678, !nonnull !4
; call core::ptr::unique::Unique<T>::as_ptr
  %1 = call i32* @"_ZN4core3ptr6unique15Unique$LT$T$GT$6as_ptr17he85cdfdca767e0fcE"(i32* mpk_immut nonnull %_2), !dbg !1679
  br label %bb1, !dbg !1679

bb1:                                              ; preds = %start
  ret i32* %1, !dbg !1680
}

; <alloc::vec::Vec<T> as core::fmt::Debug>::fmt
; Function Attrs: nonlazybind uwtable
define internal zeroext i1 @"_ZN61_$LT$alloc..vec..Vec$LT$T$GT$$u20$as$u20$core..fmt..Debug$GT$3fmt17h5311d9afda23248dE"(%"std::vec::Vec<i32>"* mpk_immut noalias readonly align 8 dereferenceable(24) %self, %"std::fmt::Formatter"* align 8 dereferenceable(64) %f) unnamed_addr #2 !dbg !1681 {
start:
  %f.dbg.spill = alloca %"std::fmt::Formatter"*, align 8
  %self.dbg.spill = alloca %"std::vec::Vec<i32>"*, align 8, !MPK-SmartPointer !267
  store %"std::vec::Vec<i32>"* %self, %"std::vec::Vec<i32>"** %self.dbg.spill, align 8
  call void @llvm.dbg.declare(metadata %"std::vec::Vec<i32>"** %self.dbg.spill, metadata !1684, metadata !DIExpression()), !dbg !1686
  store %"std::fmt::Formatter"* %f, %"std::fmt::Formatter"** %f.dbg.spill, align 8
  call void @llvm.dbg.declare(metadata %"std::fmt::Formatter"** %f.dbg.spill, metadata !1685, metadata !DIExpression()), !dbg !1687
; call <alloc::vec::Vec<T> as core::ops::deref::Deref>::deref
  %0 = call { [0 x i32]*, i64 } @"_ZN68_$LT$alloc..vec..Vec$LT$T$GT$$u20$as$u20$core..ops..deref..Deref$GT$5deref17he77df1d5f83b01faE"(%"std::vec::Vec<i32>"* mpk_immut noalias readonly align 8 dereferenceable(24) %self), !dbg !1688
  %_5.0 = extractvalue { [0 x i32]*, i64 } %0, 0, !dbg !1688
  %_5.1 = extractvalue { [0 x i32]*, i64 } %0, 1, !dbg !1688
  br label %bb1, !dbg !1688

bb1:                                              ; preds = %start
; call <[T] as core::fmt::Debug>::fmt
  %1 = call zeroext i1 @"_ZN48_$LT$$u5b$T$u5d$$u20$as$u20$core..fmt..Debug$GT$3fmt17he8eff0ea630990eeE"([0 x i32]* mpk_immut noalias nonnull readonly align 4 %_5.0, i64 %_5.1, %"std::fmt::Formatter"* align 8 dereferenceable(64) %f), !dbg !1689
  br label %bb2, !dbg !1689

bb2:                                              ; preds = %bb1
  ret i1 %1, !dbg !1690
}

; <alloc::alloc::Global as core::alloc::AllocRef>::alloc
; Function Attrs: inlinehint nonlazybind uwtable
define internal { i8*, i64 } @"_ZN62_$LT$alloc..alloc..Global$u20$as$u20$core..alloc..AllocRef$GT$5alloc17h0dee5ce87bfcb0dcE"(%"std::alloc::Global"* mpk_immut noalias nonnull readonly align 1 %self, i64 %layout.0, i64 %layout.1) unnamed_addr #0 !dbg !1691 {
start:
  %layout.dbg.spill = alloca { i64, i64 }, align 8
  %self.dbg.spill = alloca %"std::alloc::Global"*, align 8
  store %"std::alloc::Global"* %self, %"std::alloc::Global"** %self.dbg.spill, align 8
  call void @llvm.dbg.declare(metadata %"std::alloc::Global"** %self.dbg.spill, metadata !1696, metadata !DIExpression()), !dbg !1698
  %0 = getelementptr inbounds { i64, i64 }, { i64, i64 }* %layout.dbg.spill, i32 0, i32 0
  store i64 %layout.0, i64* %0, align 8
  %1 = getelementptr inbounds { i64, i64 }, { i64, i64 }* %layout.dbg.spill, i32 0, i32 1
  store i64 %layout.1, i64* %1, align 8
  call void @llvm.dbg.declare(metadata { i64, i64 }* %layout.dbg.spill, metadata !1697, metadata !DIExpression()), !dbg !1699
; call alloc::alloc::Global::alloc_impl
  %2 = call { i8*, i64 } @_ZN5alloc5alloc6Global10alloc_impl17h235e5e3a244f08fdE(%"std::alloc::Global"* mpk_immut noalias nonnull readonly align 1 %self, i64 %layout.0, i64 %layout.1, i1 zeroext false), !dbg !1700
  %3 = extractvalue { i8*, i64 } %2, 0, !dbg !1700
  %4 = extractvalue { i8*, i64 } %2, 1, !dbg !1700
  br label %bb1, !dbg !1700

bb1:                                              ; preds = %start
  %5 = insertvalue { i8*, i64 } undef, i8* %3, 0, !dbg !1701
  %6 = insertvalue { i8*, i64 } %5, i64 %4, 1, !dbg !1701
  ret { i8*, i64 } %6, !dbg !1701
}

; <alloc::alloc::Global as core::alloc::AllocRef>::dealloc
; Function Attrs: inlinehint nonlazybind uwtable
define internal void @"_ZN62_$LT$alloc..alloc..Global$u20$as$u20$core..alloc..AllocRef$GT$7dealloc17h4a98a1cb57d49813E"(%"std::alloc::Global"* mpk_immut noalias nonnull readonly align 1 %self, i8* mpk_immut mpk_unsafe nonnull %ptr, i64 %0, i64 %1) unnamed_addr #0 !dbg !1702 {
start:
  %ptr.dbg.spill = alloca i8*, align 8
  %self.dbg.spill = alloca %"std::alloc::Global"*, align 8
  %2 = alloca {}, align 1
  %layout = alloca { i64, i64 }, align 8
  %3 = getelementptr inbounds { i64, i64 }, { i64, i64 }* %layout, i32 0, i32 0
  store i64 %0, i64* %3, align 8
  %4 = getelementptr inbounds { i64, i64 }, { i64, i64 }* %layout, i32 0, i32 1
  store i64 %1, i64* %4, align 8
  store %"std::alloc::Global"* %self, %"std::alloc::Global"** %self.dbg.spill, align 8
  call void @llvm.dbg.declare(metadata %"std::alloc::Global"** %self.dbg.spill, metadata !1706, metadata !DIExpression()), !dbg !1709
  store i8* %ptr, i8** %ptr.dbg.spill, align 8
  call void @llvm.dbg.declare(metadata i8** %ptr.dbg.spill, metadata !1707, metadata !DIExpression()), !dbg !1710
  call void @llvm.dbg.declare(metadata { i64, i64 }* %layout, metadata !1708, metadata !DIExpression()), !dbg !1711
; call core::alloc::layout::Layout::size
  %_4 = call i64 @_ZN4core5alloc6layout6Layout4size17h07d5eeac68a5ac0cE({ i64, i64 }* mpk_immut noalias readonly align 8 dereferenceable(16) %layout), !dbg !1712
  br label %bb1, !dbg !1712

bb1:                                              ; preds = %start
  %5 = icmp eq i64 %_4, 0, !dbg !1713
  br i1 %5, label %bb2, label %bb3, !dbg !1713

bb2:                                              ; preds = %bb1
  br label %bb6, !dbg !1714

bb3:                                              ; preds = %bb1
; call core::ptr::non_null::NonNull<T>::as_ptr
  %_6 = call i8* @"_ZN4core3ptr8non_null16NonNull$LT$T$GT$6as_ptr17hc3b49d66ee974de8E"(i8* mpk_immut nonnull %ptr), !dbg !1715
  br label %bb4, !dbg !1715

bb4:                                              ; preds = %bb3
  %6 = getelementptr inbounds { i64, i64 }, { i64, i64 }* %layout, i32 0, i32 0, !dbg !1716
  %_8.0 = load i64, i64* %6, align 8, !dbg !1716
  %7 = getelementptr inbounds { i64, i64 }, { i64, i64 }* %layout, i32 0, i32 1, !dbg !1716
  %_8.1 = load i64, i64* %7, align 8, !dbg !1716, !range !463
; call alloc::alloc::dealloc
  call void @_ZN5alloc5alloc7dealloc17h97e2ba8020a65fbfE(i8* mpk_unsafe %_6, i64 %_8.0, i64 %_8.1), !dbg !1717
  br label %bb5, !dbg !1717

bb5:                                              ; preds = %bb4
  br label %bb6, !dbg !1718

bb6:                                              ; preds = %bb2, %bb5
  ret void, !dbg !1719
}

; <I as core::iter::traits::collect::IntoIterator>::into_iter
; Function Attrs: nonlazybind uwtable
define internal { i32*, i32* } @"_ZN63_$LT$I$u20$as$u20$core..iter..traits..collect..IntoIterator$GT$9into_iter17haa6f789b850dae3cE"(i32* mpk_immut nonnull %self.0, i32* mpk_immut %self.1) unnamed_addr #2 !dbg !1720 {
start:
  %self.dbg.spill = alloca { i32*, i32* }, align 8
  %0 = getelementptr inbounds { i32*, i32* }, { i32*, i32* }* %self.dbg.spill, i32 0, i32 0
  store i32* %self.0, i32** %0, align 8
  %1 = getelementptr inbounds { i32*, i32* }, { i32*, i32* }* %self.dbg.spill, i32 0, i32 1
  store i32* %self.1, i32** %1, align 8
  call void @llvm.dbg.declare(metadata { i32*, i32* }* %self.dbg.spill, metadata !1729, metadata !DIExpression()), !dbg !1731
  %2 = insertvalue { i32*, i32* } undef, i32* %self.0, 0, !dbg !1732
  %3 = insertvalue { i32*, i32* } %2, i32* %self.1, 1, !dbg !1732
  ret { i32*, i32* } %3, !dbg !1732
}

; <alloc::vec::Vec<T> as core::ops::drop::Drop>::drop
; Function Attrs: nonlazybind uwtable
define internal void @"_ZN66_$LT$alloc..vec..Vec$LT$T$GT$$u20$as$u20$core..ops..drop..Drop$GT$4drop17hf1fa165543401aa5E"(%"std::vec::Vec<i32>"* align 8 dereferenceable(24) %self) unnamed_addr #2 !dbg !1733 {
start:
  %self.dbg.spill = alloca %"std::vec::Vec<i32>"*, align 8, !MPK-SmartPointer !267
  store %"std::vec::Vec<i32>"* %self, %"std::vec::Vec<i32>"** %self.dbg.spill, align 8
  call void @llvm.dbg.declare(metadata %"std::vec::Vec<i32>"** %self.dbg.spill, metadata !1737, metadata !DIExpression()), !dbg !1738
; call alloc::vec::Vec<T>::as_mut_ptr
  %_3 = call i32* @"_ZN5alloc3vec12Vec$LT$T$GT$10as_mut_ptr17h0c32902b03e7d3d2E"(%"std::vec::Vec<i32>"* align 8 dereferenceable(24) %self), !dbg !1739
  br label %bb1, !dbg !1739

bb1:                                              ; preds = %start
  %0 = getelementptr inbounds %"std::vec::Vec<i32>", %"std::vec::Vec<i32>"* %self, i32 0, i32 3, !dbg !1740
  %_5 = load i64, i64* %0, align 8, !dbg !1740
; call core::ptr::slice_from_raw_parts_mut
  %1 = call { [0 x i32]*, i64 } @_ZN4core3ptr24slice_from_raw_parts_mut17h2956f75533fe9ee5E(i32* %_3, i64 %_5), !dbg !1741
  %_2.0 = extractvalue { [0 x i32]*, i64 } %1, 0, !dbg !1741
  %_2.1 = extractvalue { [0 x i32]*, i64 } %1, 1, !dbg !1741
  br label %bb2, !dbg !1741

bb2:                                              ; preds = %bb1
  br label %bb3, !dbg !1742

bb3:                                              ; preds = %bb2
  ret void, !dbg !1743
}

; <alloc::vec::Vec<T> as core::ops::deref::Deref>::deref
; Function Attrs: nonlazybind uwtable
define internal { [0 x i32]*, i64 } @"_ZN68_$LT$alloc..vec..Vec$LT$T$GT$$u20$as$u20$core..ops..deref..Deref$GT$5deref17he77df1d5f83b01faE"(%"std::vec::Vec<i32>"* mpk_immut noalias readonly align 8 dereferenceable(24) %self) unnamed_addr #2 !dbg !1744 {
start:
  %self.dbg.spill = alloca %"std::vec::Vec<i32>"*, align 8, !MPK-SmartPointer !267
  store %"std::vec::Vec<i32>"* %self, %"std::vec::Vec<i32>"** %self.dbg.spill, align 8
  call void @llvm.dbg.declare(metadata %"std::vec::Vec<i32>"** %self.dbg.spill, metadata !1748, metadata !DIExpression()), !dbg !1749
; call alloc::vec::Vec<T>::as_ptr
  %_2 = call mpk_immut i32* @"_ZN5alloc3vec12Vec$LT$T$GT$6as_ptr17hcde5f5ca2a751493E"(%"std::vec::Vec<i32>"* mpk_immut noalias readonly align 8 dereferenceable(24) %self), !dbg !1750
  br label %bb1, !dbg !1750

bb1:                                              ; preds = %start
  %0 = getelementptr inbounds %"std::vec::Vec<i32>", %"std::vec::Vec<i32>"* %self, i32 0, i32 3, !dbg !1751
  %_4 = load i64, i64* %0, align 8, !dbg !1751
; call core::slice::raw::from_raw_parts
  %1 = call { [0 x i32]*, i64 } @_ZN4core5slice3raw14from_raw_parts17h7f090ad2f5b666cbE(i32* mpk_immut mpk_unsafe %_2, i64 %_4), !dbg !1752
  %2 = extractvalue { [0 x i32]*, i64 } %1, 0, !dbg !1752
  %3 = extractvalue { [0 x i32]*, i64 } %1, 1, !dbg !1752
  br label %bb2, !dbg !1752

bb2:                                              ; preds = %bb1
  %4 = insertvalue { [0 x i32]*, i64 } undef, [0 x i32]* %2, 0, !dbg !1753
  %5 = insertvalue { [0 x i32]*, i64 } %4, i64 %3, 1, !dbg !1753
  ret { [0 x i32]*, i64 } %5, !dbg !1753
}

; <std::process::ExitCode as std::process::Termination>::report
; Function Attrs: inlinehint nonlazybind uwtable
define internal i32 @"_ZN68_$LT$std..process..ExitCode$u20$as$u20$std..process..Termination$GT$6report17he50b409bb573b85dE"(i8 %0) unnamed_addr #0 !dbg !1754 {
start:
  %self = alloca i8, align 1
  store i8 %0, i8* %self, align 1
  call void @llvm.dbg.declare(metadata i8* %self, metadata !1761, metadata !DIExpression()), !dbg !1762
; call std::sys::unix::process::process_common::ExitCode::as_i32
  %1 = call i32 @_ZN3std3sys4unix7process14process_common8ExitCode6as_i3217h24801695b7a3221cE(i8* mpk_immut noalias readonly align 1 dereferenceable(1) %self), !dbg !1763
  br label %bb1, !dbg !1763

bb1:                                              ; preds = %start
  ret i32 %1, !dbg !1764
}

; <alloc::vec::Vec<T> as alloc::metasafe::MetaUpdate>::synchronize
; Function Attrs: nonlazybind uwtable
define internal void @"_ZN72_$LT$alloc..vec..Vec$LT$T$GT$$u20$as$u20$alloc..metasafe..MetaUpdate$GT$11synchronize17h5469b5b7674c647aE"(%"std::vec::Vec<i32>"* mpk_immut noalias readonly align 8 dereferenceable(24) %self) unnamed_addr #2 !dbg !1765 {
start:
  %self.dbg.spill = alloca %"std::vec::Vec<i32>"*, align 8, !MPK-SmartPointer !267
  store %"std::vec::Vec<i32>"* %self, %"std::vec::Vec<i32>"** %self.dbg.spill, align 8
  call void @llvm.dbg.declare(metadata %"std::vec::Vec<i32>"** %self.dbg.spill, metadata !1769, metadata !DIExpression()), !dbg !1770
; call alloc::vec::Vec<T>::capacity
  %_3 = call i64 @"_ZN5alloc3vec12Vec$LT$T$GT$8capacity17h936aaed6a6b29989E"(%"std::vec::Vec<i32>"* mpk_immut noalias readonly align 8 dereferenceable(24) %self), !dbg !1771
  br label %bb1, !dbg !1771

bb1:                                              ; preds = %start
  %0 = getelementptr inbounds %"std::vec::Vec<i32>", %"std::vec::Vec<i32>"* %self, i32 0, i32 3, !dbg !1772
  %_5 = load i64, i64* %0, align 8, !dbg !1772
  %_2 = icmp ult i64 %_3, %_5, !dbg !1773
  br i1 %_2, label %bb3, label %bb2, !dbg !1774

bb2:                                              ; preds = %bb1
  ret void, !dbg !1775

bb3:                                              ; preds = %bb1
; call core::panicking::panic
  call void @_ZN4core9panicking5panic17hc14ab8d72efd34afE([0 x i8]* mpk_immut noalias nonnull readonly align 1 bitcast (<{ [43 x i8] }>* @alloc33 to [0 x i8]*), i64 43, %"std::panic::Location"* mpk_immut noalias readonly align 8 dereferenceable(24) bitcast (<{ i8*, [16 x i8] }>* @alloc35 to %"std::panic::Location"*)), !dbg !1776
  unreachable, !dbg !1776
}

; <core::result::Result<T,E> as core::ops::try::Try>::from_error
; Function Attrs: inlinehint nonlazybind uwtable
define internal { i8*, i64 } @"_ZN73_$LT$core..result..Result$LT$T$C$E$GT$$u20$as$u20$core..ops..try..Try$GT$10from_error17h8151ea9a5184fee0E"() unnamed_addr #0 !dbg !1777 {
start:
  %v.dbg.spill = alloca %"std::alloc::AllocError", align 1
  %0 = alloca { i8*, i64 }, align 8
  call void @llvm.dbg.declare(metadata %"std::alloc::AllocError"* %v.dbg.spill, metadata !1783, metadata !DIExpression()), !dbg !1784
  %1 = bitcast { i8*, i64 }* %0 to %"std::result::Result<std::ptr::NonNull<[u8]>, std::alloc::AllocError>::Err"*, !dbg !1785
  %2 = bitcast %"std::result::Result<std::ptr::NonNull<[u8]>, std::alloc::AllocError>::Err"* %1 to %"std::alloc::AllocError"*, !dbg !1785
  %3 = bitcast { i8*, i64 }* %0 to {}**, !dbg !1786
  store {}* null, {}** %3, align 8, !dbg !1786
  %4 = getelementptr inbounds { i8*, i64 }, { i8*, i64 }* %0, i32 0, i32 0, !dbg !1787
  %5 = load i8*, i8** %4, align 8, !dbg !1787
  %6 = getelementptr inbounds { i8*, i64 }, { i8*, i64 }* %0, i32 0, i32 1, !dbg !1787
  %7 = load i64, i64* %6, align 8, !dbg !1787
  %8 = insertvalue { i8*, i64 } undef, i8* %5, 0, !dbg !1787
  %9 = insertvalue { i8*, i64 } %8, i64 %7, 1, !dbg !1787
  ret { i8*, i64 } %9, !dbg !1787
}

; <core::result::Result<T,E> as core::ops::try::Try>::into_result
; Function Attrs: inlinehint nonlazybind uwtable
define internal mpk_immut i8* @"_ZN73_$LT$core..result..Result$LT$T$C$E$GT$$u20$as$u20$core..ops..try..Try$GT$11into_result17h8b5e961879f83787E"(i8* mpk_immut %self) unnamed_addr #0 !dbg !1788 {
start:
  %self.dbg.spill = alloca i8*, align 8
  store i8* %self, i8** %self.dbg.spill, align 8
  call void @llvm.dbg.declare(metadata i8** %self.dbg.spill, metadata !1792, metadata !DIExpression()), !dbg !1793
  ret i8* %self, !dbg !1794
}

; <alloc::raw_vec::RawVec<T,A> as core::ops::drop::Drop>::drop
; Function Attrs: nonlazybind uwtable
define internal void @"_ZN77_$LT$alloc..raw_vec..RawVec$LT$T$C$A$GT$$u20$as$u20$core..ops..drop..Drop$GT$4drop17h341e4cb7a5d5481aE"({ i32*, i64 }* align 8 dereferenceable(16) %self) unnamed_addr #2 !dbg !1795 {
start:
  %layout.dbg.spill = alloca { i64, i64 }, align 8
  %ptr.dbg.spill = alloca i8*, align 8
  %self.dbg.spill = alloca { i32*, i64 }*, align 8, !MPK-SmartPointer !267
  %_2 = alloca %"std::option::Option<(std::ptr::NonNull<u8>, std::alloc::Layout)>", align 8
  %0 = alloca {}, align 1
  store { i32*, i64 }* %self, { i32*, i64 }** %self.dbg.spill, align 8
  call void @llvm.dbg.declare(metadata { i32*, i64 }** %self.dbg.spill, metadata !1801, metadata !DIExpression()), !dbg !1805
; call alloc::raw_vec::RawVec<T,A>::current_memory
  call void @"_ZN5alloc7raw_vec19RawVec$LT$T$C$A$GT$14current_memory17hc56cf6ee750af1a2E"(%"std::option::Option<(std::ptr::NonNull<u8>, std::alloc::Layout)>"* noalias nocapture sret dereferenceable(24) %_2, { i32*, i64 }* mpk_immut noalias readonly align 8 dereferenceable(16) %self), !dbg !1806
  br label %bb1, !dbg !1806

bb1:                                              ; preds = %start
  %1 = bitcast %"std::option::Option<(std::ptr::NonNull<u8>, std::alloc::Layout)>"* %_2 to {}**, !dbg !1807
  %2 = load {}*, {}** %1, align 8, !dbg !1807
  %3 = icmp eq {}* %2, null, !dbg !1807
  %_4 = select i1 %3, i64 0, i64 1, !dbg !1807
  %4 = icmp eq i64 %_4, 1, !dbg !1808
  br i1 %4, label %bb3, label %bb2, !dbg !1808

bb2:                                              ; preds = %bb1
  br label %bb5, !dbg !1809

bb3:                                              ; preds = %bb1
  %5 = bitcast %"std::option::Option<(std::ptr::NonNull<u8>, std::alloc::Layout)>"* %_2 to %"std::option::Option<(std::ptr::NonNull<u8>, std::alloc::Layout)>::Some"*, !dbg !1810
  %6 = bitcast %"std::option::Option<(std::ptr::NonNull<u8>, std::alloc::Layout)>::Some"* %5 to { [0 x i64], i8*, [0 x i64], { i64, i64 }, [0 x i64] }*, !dbg !1810
  %7 = bitcast { [0 x i64], i8*, [0 x i64], { i64, i64 }, [0 x i64] }* %6 to i8**, !dbg !1810
  %ptr = load i8*, i8** %7, align 8, !dbg !1810, !nonnull !4
  store i8* %ptr, i8** %ptr.dbg.spill, align 8, !dbg !1810
  call void @llvm.dbg.declare(metadata i8** %ptr.dbg.spill, metadata !1802, metadata !DIExpression()), !dbg !1811
  %8 = bitcast %"std::option::Option<(std::ptr::NonNull<u8>, std::alloc::Layout)>"* %_2 to %"std::option::Option<(std::ptr::NonNull<u8>, std::alloc::Layout)>::Some"*, !dbg !1812
  %9 = bitcast %"std::option::Option<(std::ptr::NonNull<u8>, std::alloc::Layout)>::Some"* %8 to { [0 x i64], i8*, [0 x i64], { i64, i64 }, [0 x i64] }*, !dbg !1812
  %10 = getelementptr inbounds { [0 x i64], i8*, [0 x i64], { i64, i64 }, [0 x i64] }, { [0 x i64], i8*, [0 x i64], { i64, i64 }, [0 x i64] }* %9, i32 0, i32 3, !dbg !1812
  %11 = getelementptr inbounds { i64, i64 }, { i64, i64 }* %10, i32 0, i32 0, !dbg !1812
  %layout.0 = load i64, i64* %11, align 8, !dbg !1812
  %12 = getelementptr inbounds { i64, i64 }, { i64, i64 }* %10, i32 0, i32 1, !dbg !1812
  %layout.1 = load i64, i64* %12, align 8, !dbg !1812, !range !463
  %13 = getelementptr inbounds { i64, i64 }, { i64, i64 }* %layout.dbg.spill, i32 0, i32 0, !dbg !1812
  store i64 %layout.0, i64* %13, align 8, !dbg !1812
  %14 = getelementptr inbounds { i64, i64 }, { i64, i64 }* %layout.dbg.spill, i32 0, i32 1, !dbg !1812
  store i64 %layout.1, i64* %14, align 8, !dbg !1812
  call void @llvm.dbg.declare(metadata { i64, i64 }* %layout.dbg.spill, metadata !1804, metadata !DIExpression()), !dbg !1813
  %_7 = bitcast { i32*, i64 }* %self to %"std::alloc::Global"*, !dbg !1814
; call <alloc::alloc::Global as core::alloc::AllocRef>::dealloc
  call void @"_ZN62_$LT$alloc..alloc..Global$u20$as$u20$core..alloc..AllocRef$GT$7dealloc17h4a98a1cb57d49813E"(%"std::alloc::Global"* mpk_immut noalias nonnull readonly align 1 %_7, i8* mpk_immut mpk_unsafe nonnull %ptr, i64 %layout.0, i64 %layout.1), !dbg !1815
  br label %bb4, !dbg !1815

bb4:                                              ; preds = %bb3
  br label %bb5, !dbg !1816

bb5:                                              ; preds = %bb4, %bb2
  ret void, !dbg !1817
}

; <core::slice::iter::Iter<T> as core::iter::traits::iterator::Iterator>::next
; Function Attrs: inlinehint nonlazybind uwtable
define internal mpk_immut align 4 dereferenceable_or_null(4) i32* @"_ZN91_$LT$core..slice..iter..Iter$LT$T$GT$$u20$as$u20$core..iter..traits..iterator..Iterator$GT$4next17hf68fe8e8aa0414f8E"({ i32*, i32* }* align 8 dereferenceable(16) %self) unnamed_addr #0 !dbg !1818 {
start:
  %0 = alloca i64, align 8
  %old.dbg.spill.i = alloca i32*, align 8
  %offset.dbg.spill.i = alloca i64, align 8
  %self.dbg.spill.i = alloca { i32*, i32* }*, align 8
  %1 = alloca i32*, align 8
  %2 = alloca i64, align 8
  %self.dbg.spill = alloca { i32*, i32* }*, align 8
  %3 = alloca i32*, align 8
  store { i32*, i32* }* %self, { i32*, i32* }** %self.dbg.spill, align 8
  call void @llvm.dbg.declare(metadata { i32*, i32* }** %self.dbg.spill, metadata !1835, metadata !DIExpression()), !dbg !1836
  %4 = bitcast { i32*, i32* }* %self to i32**, !dbg !1837
  %_6 = load i32*, i32** %4, align 8, !dbg !1837, !nonnull !4
; call core::ptr::non_null::NonNull<T>::as_ptr
  %_5 = call i32* @"_ZN4core3ptr8non_null16NonNull$LT$T$GT$6as_ptr17h18abd5f41d5005e0E"(i32* mpk_immut nonnull %_6), !dbg !1838
  br label %bb1, !dbg !1838

bb1:                                              ; preds = %start
; call core::ptr::mut_ptr::<impl *mut T>::is_null
  %_4 = call zeroext i1 @"_ZN4core3ptr7mut_ptr31_$LT$impl$u20$$BP$mut$u20$T$GT$7is_null17hc537b8e417870f77E"(i32* %_5), !dbg !1839
  br label %bb2, !dbg !1839

bb2:                                              ; preds = %bb1
  %_3 = xor i1 %_4, true, !dbg !1840
  call void @llvm.assume(i1 %_3), !dbg !1841
  br label %bb3, !dbg !1841

bb3:                                              ; preds = %bb2
  store i64 4, i64* %2, align 8, !dbg !1842
  %5 = load i64, i64* %2, align 8, !dbg !1842
  br label %bb4, !dbg !1844

bb4:                                              ; preds = %bb3
  %6 = icmp eq i64 %5, 0, !dbg !1845
  br i1 %6, label %bb5, label %bb6, !dbg !1845

bb5:                                              ; preds = %bb4
  br label %bb9, !dbg !1846

bb6:                                              ; preds = %bb4
  %7 = getelementptr inbounds { i32*, i32* }, { i32*, i32* }* %self, i32 0, i32 1, !dbg !1847
  %_11 = load i32*, i32** %7, align 8, !dbg !1847
; call core::ptr::const_ptr::<impl *const T>::is_null
  %_10 = call zeroext i1 @"_ZN4core3ptr9const_ptr33_$LT$impl$u20$$BP$const$u20$T$GT$7is_null17h453d39df1550669bE"(i32* mpk_immut %_11), !dbg !1848
  br label %bb7, !dbg !1848

bb7:                                              ; preds = %bb6
  %_9 = xor i1 %_10, true, !dbg !1849
  call void @llvm.assume(i1 %_9), !dbg !1850
  br label %bb8, !dbg !1850

bb8:                                              ; preds = %bb7
  br label %bb9, !dbg !1851

bb9:                                              ; preds = %bb5, %bb8
  %8 = bitcast { i32*, i32* }* %self to i32**, !dbg !1852
  %_15 = load i32*, i32** %8, align 8, !dbg !1852, !nonnull !4
; call core::ptr::non_null::NonNull<T>::as_ptr
  %_14 = call i32* @"_ZN4core3ptr8non_null16NonNull$LT$T$GT$6as_ptr17h18abd5f41d5005e0E"(i32* mpk_immut nonnull %_15), !dbg !1853
  br label %bb10, !dbg !1853

bb10:                                             ; preds = %bb9
  %9 = getelementptr inbounds { i32*, i32* }, { i32*, i32* }* %self, i32 0, i32 1, !dbg !1854
  %_16 = load i32*, i32** %9, align 8, !dbg !1854
  %_12 = icmp eq i32* %_14, %_16, !dbg !1855
  br i1 %_12, label %bb12, label %bb11, !dbg !1856

bb11:                                             ; preds = %bb10
  store { i32*, i32* }* %self, { i32*, i32* }** %self.dbg.spill.i, align 8
  call void @llvm.dbg.declare(metadata { i32*, i32* }** %self.dbg.spill.i, metadata !1857, metadata !DIExpression()), !dbg !1865
  store i64 1, i64* %offset.dbg.spill.i, align 8
  call void @llvm.dbg.declare(metadata i64* %offset.dbg.spill.i, metadata !1862, metadata !DIExpression()), !dbg !1867
  store i64 4, i64* %0, align 8, !dbg !1868
  %10 = load i64, i64* %0, align 8, !dbg !1868
  %11 = icmp eq i64 %10, 0, !dbg !1870
  br i1 %11, label %bb3.i, label %bb2.i, !dbg !1870

bb2.i:                                            ; preds = %bb11
  %12 = bitcast { i32*, i32* }* %self to i32**, !dbg !1871
  %_12.i = load i32*, i32** %12, align 8, !dbg !1871, !nonnull !4
; call core::ptr::non_null::NonNull<T>::as_ptr
  %old.i = call i32* @"_ZN4core3ptr8non_null16NonNull$LT$T$GT$6as_ptr17h18abd5f41d5005e0E"(i32* mpk_immut nonnull %_12.i), !dbg !1871
  store i32* %old.i, i32** %old.dbg.spill.i, align 8, !dbg !1871
  call void @llvm.dbg.declare(metadata i32** %old.dbg.spill.i, metadata !1863, metadata !DIExpression()), !dbg !1872
  %13 = bitcast { i32*, i32* }* %self to i32**, !dbg !1873
  %_16.i = load i32*, i32** %13, align 8, !dbg !1873, !nonnull !4
; call core::ptr::non_null::NonNull<T>::as_ptr
  %_15.i = call i32* @"_ZN4core3ptr8non_null16NonNull$LT$T$GT$6as_ptr17h18abd5f41d5005e0E"(i32* mpk_immut nonnull %_16.i), !dbg !1873
; call core::ptr::mut_ptr::<impl *mut T>::offset
  %_14.i = call mpk_unsafe i32* @"_ZN4core3ptr7mut_ptr31_$LT$impl$u20$$BP$mut$u20$T$GT$6offset17h5250e853408cb246E"(i32* mpk_unsafe %_15.i, i64 1), !dbg !1873
; call core::ptr::non_null::NonNull<T>::new_unchecked
  %_13.i = call mpk_immut mpk_unsafe nonnull i32* @"_ZN4core3ptr8non_null16NonNull$LT$T$GT$13new_unchecked17h03a0dc91a76cb040E"(i32* mpk_unsafe %_14.i), !dbg !1874
  %14 = bitcast { i32*, i32* }* %self to i32**, !dbg !1875
  store i32* %_13.i, i32** %14, align 8, !dbg !1875
  store i32* %old.i, i32** %1, align 8, !dbg !1876
  br label %"_ZN4core5slice4iter13Iter$LT$T$GT$14post_inc_start17hded17d0b7eb153c3E.exit", !dbg !1870

bb3.i:                                            ; preds = %bb11
  %15 = getelementptr inbounds { i32*, i32* }, { i32*, i32* }* %self, i32 0, i32 1, !dbg !1877
  %_6.i = load i32*, i32** %15, align 8, !dbg !1877
  %_5.i = bitcast i32* %_6.i to i8*, !dbg !1877
; call core::ptr::const_ptr::<impl *const T>::wrapping_offset
  %_4.i = call mpk_immut i8* @"_ZN4core3ptr9const_ptr33_$LT$impl$u20$$BP$const$u20$T$GT$15wrapping_offset17h2c0577b3435cf5edE"(i8* mpk_immut %_5.i, i64 -1), !dbg !1877
  %16 = getelementptr inbounds { i32*, i32* }, { i32*, i32* }* %self, i32 0, i32 1, !dbg !1877
  %17 = bitcast i8* %_4.i to i32*, !dbg !1877
  store i32* %17, i32** %16, align 8, !dbg !1877
  %18 = bitcast { i32*, i32* }* %self to i32**, !dbg !1878
  %_10.i = load i32*, i32** %18, align 8, !dbg !1878, !nonnull !4
; call core::ptr::non_null::NonNull<T>::as_ptr
  %_9.i = call i32* @"_ZN4core3ptr8non_null16NonNull$LT$T$GT$6as_ptr17h18abd5f41d5005e0E"(i32* mpk_immut nonnull %_10.i), !dbg !1878
  store i32* %_9.i, i32** %1, align 8, !dbg !1878
  br label %"_ZN4core5slice4iter13Iter$LT$T$GT$14post_inc_start17hded17d0b7eb153c3E.exit", !dbg !1870

"_ZN4core5slice4iter13Iter$LT$T$GT$14post_inc_start17hded17d0b7eb153c3E.exit": ; preds = %bb3.i, %bb2.i
  %19 = load i32*, i32** %1, align 8, !dbg !1879
  br label %bb13, !dbg !1880

bb12:                                             ; preds = %bb10
  %20 = bitcast i32** %3 to {}**, !dbg !1881
  store {}* null, {}** %20, align 8, !dbg !1881
  br label %bb14, !dbg !1882

bb13:                                             ; preds = %"_ZN4core5slice4iter13Iter$LT$T$GT$14post_inc_start17hded17d0b7eb153c3E.exit"
  store i32* %19, i32** %3, align 8, !dbg !1883
  br label %bb14, !dbg !1884

bb14:                                             ; preds = %bb13, %bb12
  %21 = load i32*, i32** %3, align 8, !dbg !1885
  ret i32* %21, !dbg !1885
}

; <core::ptr::unique::Unique<T> as core::convert::From<&mut T>>::from
; Function Attrs: inlinehint nonlazybind uwtable
define internal { i32*, i64 } @"_ZN95_$LT$core..ptr..unique..Unique$LT$T$GT$$u20$as$u20$core..convert..From$LT$$RF$mut$u20$T$GT$$GT$4from17hcf2a6362339b64dcE"([0 x i32]* nonnull align 4 %reference.0, i64 %reference.1) unnamed_addr #0 !dbg !1886 {
start:
  %reference.dbg.spill = alloca { [0 x i32]*, i64 }, align 8
  %_4 = alloca %"std::marker::PhantomData<[i32]>", align 1
  %0 = alloca { i32*, i64 }, align 8, !MPK-SmartPointer !267
  %1 = getelementptr inbounds { [0 x i32]*, i64 }, { [0 x i32]*, i64 }* %reference.dbg.spill, i32 0, i32 0
  store [0 x i32]* %reference.0, [0 x i32]** %1, align 8
  %2 = getelementptr inbounds { [0 x i32]*, i64 }, { [0 x i32]*, i64 }* %reference.dbg.spill, i32 0, i32 1
  store i64 %reference.1, i64* %2, align 8
  call void @llvm.dbg.declare(metadata { [0 x i32]*, i64 }* %reference.dbg.spill, metadata !1891, metadata !DIExpression()), !dbg !1892
  %3 = bitcast { i32*, i64 }* %0 to { [0 x i32]*, i64 }*, !dbg !1893, !MPK-SmartPointer !267
  %4 = getelementptr inbounds { [0 x i32]*, i64 }, { [0 x i32]*, i64 }* %3, i32 0, i32 0, !dbg !1893
  store [0 x i32]* %reference.0, [0 x i32]** %4, align 8, !dbg !1893
  %5 = getelementptr inbounds { [0 x i32]*, i64 }, { [0 x i32]*, i64 }* %3, i32 0, i32 1, !dbg !1893
  store i64 %reference.1, i64* %5, align 8, !dbg !1893
  %6 = bitcast { i32*, i64 }* %0 to %"std::marker::PhantomData<[i32]>"*, !dbg !1894, !MPK-SmartPointer-Shadow !1895
  %7 = getelementptr inbounds { i32*, i64 }, { i32*, i64 }* %0, i32 0, i32 0, !dbg !1896
  %8 = load i32*, i32** %7, align 8, !dbg !1896, !nonnull !4
  %9 = getelementptr inbounds { i32*, i64 }, { i32*, i64 }* %0, i32 0, i32 1, !dbg !1896
  %10 = load i64, i64* %9, align 8, !dbg !1896
  %11 = insertvalue { i32*, i64 } undef, i32* %8, 0, !dbg !1896
  %12 = insertvalue { i32*, i64 } %11, i64 %10, 1, !dbg !1896
  ret { i32*, i64 } %12, !dbg !1896
}

; simple_poc::main
; Function Attrs: nonlazybind uwtable
define internal void @_ZN10simple_poc4main17h81ef23be539e64a2E() unnamed_addr #2 personality i32 (i32, i32, i64, %"unwind::libunwind::_Unwind_Exception"*, %"unwind::libunwind::_Unwind_Context"*)* @rust_eh_personality !dbg !1897 {
start:
  %arg0.dbg.spill = alloca %"std::vec::Vec<i32>"*, align 8, !MPK-SmartPointer !267
  %0 = alloca { i8*, i32 }, align 8
  %_16 = alloca i64*, align 8, !MPK-SmartPointer !267
  %_15 = alloca [1 x { i8*, i64* }], align 8
  %_8 = alloca %"std::fmt::Arguments", align 8
  %collection = alloca %"std::vec::Vec<i32>", align 8, !MPK-SmartPointer !267
  call void @llvm.dbg.declare(metadata %"std::vec::Vec<i32>"* %collection, metadata !1901, metadata !DIExpression()), !dbg !1907
  store i64 -199187152433176340, i64* @METASAFE_TYPE_ID, align 8
; call alloc::alloc::exchange_malloc
  %1 = call i8* @_ZN5alloc5alloc15exchange_malloc17h200b0ca573cdc90dE(i64 8, i64 4), !dbg !1908
  %_4 = bitcast i8* %1 to [2 x i32]*, !dbg !1908
  store i64 0, i64* @METASAFE_TYPE_ID, align 8
  %2 = bitcast [2 x i32]* %_4 to i32*, !dbg !1909
  store i32 0, i32* %2, align 4, !dbg !1909
  %3 = getelementptr inbounds [2 x i32], [2 x i32]* %_4, i32 0, i32 1, !dbg !1909
  store i32 1, i32* %3, align 4, !dbg !1909
  %4 = bitcast [2 x i32]* %_4 to [0 x i32]*, !dbg !1910
  %5 = bitcast [0 x i32]* %4 to i32*, !dbg !1910
  %_2.0 = bitcast i32* %5 to [0 x i32]*, !dbg !1910, !MPK-SmartPointer !267
; call alloc::slice::<impl [T]>::into_vec
  call void @"_ZN5alloc5slice29_$LT$impl$u20$$u5b$T$u5d$$GT$8into_vec17hc59164068662c637E"(%"std::vec::Vec<i32>"* noalias nocapture sret dereferenceable(24) %collection, [0 x i32]* mpk_immut noalias nonnull align 4 %_2.0, i64 2), !dbg !1911
  br label %bb1, !dbg !1911

bb1:                                              ; preds = %start
  store i64 1, i64* @METASAFE_UNSAFE_START, align 8, !dbg !1912
  store i64 -5015437470765251660, i64* @METASAFE_TYPE_ID, align 8
; invoke alloc::vec::Vec<T>::set_len
  invoke void @"_ZN5alloc3vec12Vec$LT$T$GT$7set_len17h9e8e6d29c05f6cd2E"(%"std::vec::Vec<i32>"* align 8 dereferenceable(24) %collection, i64 10)
          to label %bb9 unwind label %cleanup, !dbg !1913, !MPK-Unsafe !1914

bb2:                                              ; preds = %bb9
  store i64 2, i64* @METASAFE_UNSAFE_START, align 8
  store i64 2, i64* @METASAFE_UNSAFE_END, align 8, !dbg !1915
  %6 = bitcast i64** %_16 to %"std::vec::Vec<i32>"**, !dbg !1916, !MPK-SmartPointer !267
  store %"std::vec::Vec<i32>"* %collection, %"std::vec::Vec<i32>"** %6, align 8, !dbg !1916
  %7 = bitcast i64** %_16 to %"std::vec::Vec<i32>"**, !dbg !1917, !MPK-SmartPointer !267
  %arg0 = load %"std::vec::Vec<i32>"*, %"std::vec::Vec<i32>"** %7, align 8, !dbg !1917, !nonnull !4
  store %"std::vec::Vec<i32>"* %arg0, %"std::vec::Vec<i32>"** %arg0.dbg.spill, align 8, !dbg !1917
  call void @llvm.dbg.declare(metadata %"std::vec::Vec<i32>"** %arg0.dbg.spill, metadata !1903, metadata !DIExpression()), !dbg !1918
; invoke core::fmt::ArgumentV1::new
  %8 = invoke { i8*, i64* } @_ZN4core3fmt10ArgumentV13new17h0675ad4776c58079E(%"std::vec::Vec<i32>"* mpk_immut noalias readonly align 8 dereferenceable(24) %arg0, i1 (%"std::vec::Vec<i32>"*, %"std::fmt::Formatter"*)* mpk_immut nonnull @"_ZN61_$LT$alloc..vec..Vec$LT$T$GT$$u20$as$u20$core..fmt..Debug$GT$3fmt17h5311d9afda23248dE")
          to label %bb3 unwind label %cleanup, !dbg !1919

bb3:                                              ; preds = %bb2
  %_19.0 = extractvalue { i8*, i64* } %8, 0, !dbg !1920
  %_19.1 = extractvalue { i8*, i64* } %8, 1, !dbg !1920
  %9 = bitcast [1 x { i8*, i64* }]* %_15 to { i8*, i64* }*, !dbg !1921
  %10 = getelementptr inbounds { i8*, i64* }, { i8*, i64* }* %9, i32 0, i32 0, !dbg !1921
  store i8* %_19.0, i8** %10, align 8, !dbg !1921
  %11 = getelementptr inbounds { i8*, i64* }, { i8*, i64* }* %9, i32 0, i32 1, !dbg !1921
  store i64* %_19.1, i64** %11, align 8, !dbg !1921
  %_12.0 = bitcast [1 x { i8*, i64* }]* %_15 to [0 x { i8*, i64* }]*, !dbg !1922
; invoke core::fmt::Arguments::new_v1
  invoke void @_ZN4core3fmt9Arguments6new_v117h23e21629b32dcd95E(%"std::fmt::Arguments"* noalias nocapture sret dereferenceable(48) %_8, [0 x { [0 x i8]*, i64 }]* mpk_immut noalias nonnull readonly align 8 bitcast (<{ i8*, [8 x i8], i8*, [8 x i8] }>* @alloc2 to [0 x { [0 x i8]*, i64 }]*), i64 2, [0 x { i8*, i64* }]* mpk_immut noalias nonnull readonly align 8 %_12.0, i64 1)
          to label %bb4 unwind label %cleanup, !dbg !1923

bb4:                                              ; preds = %bb3
; invoke std::io::stdio::_print
  invoke void @_ZN3std2io5stdio6_print17h17f61b0c82890e70E(%"std::fmt::Arguments"* noalias nocapture dereferenceable(48) %_8)
          to label %bb5 unwind label %cleanup, !dbg !1924

bb5:                                              ; preds = %bb4
; call core::ptr::drop_in_place
  call void @_ZN4core3ptr13drop_in_place17hf8a477c2ec03626aE(%"std::vec::Vec<i32>"* mpk_unsafe %collection), !dbg !1925
  br label %bb6, !dbg !1925

bb6:                                              ; preds = %bb5
  ret void, !dbg !1926

bb7:                                              ; preds = %cleanup
; call core::ptr::drop_in_place
  call void @_ZN4core3ptr13drop_in_place17hf8a477c2ec03626aE(%"std::vec::Vec<i32>"* mpk_unsafe %collection) #11, !dbg !1927
  br label %bb8, !dbg !1927

bb8:                                              ; preds = %bb7
  %12 = bitcast { i8*, i32 }* %0 to i8**, !dbg !1928
  %13 = load i8*, i8** %12, align 8, !dbg !1928
  %14 = getelementptr inbounds { i8*, i32 }, { i8*, i32 }* %0, i32 0, i32 1, !dbg !1928
  %15 = load i32, i32* %14, align 8, !dbg !1928
  %16 = insertvalue { i8*, i32 } undef, i8* %13, 0, !dbg !1928
  %17 = insertvalue { i8*, i32 } %16, i32 %15, 1, !dbg !1928
  resume { i8*, i32 } %17, !dbg !1928

bb9:                                              ; preds = %bb1
  store i64 1, i64* @METASAFE_UNSAFE_END, align 8
  store i64 -5015437470765251660, i64* @METASAFE_TYPE_ID, align 8
; call <alloc::vec::Vec<T> as alloc::metasafe::MetaUpdate>::synchronize
  call void @"_ZN72_$LT$alloc..vec..Vec$LT$T$GT$$u20$as$u20$alloc..metasafe..MetaUpdate$GT$11synchronize17h5469b5b7674c647aE"(%"std::vec::Vec<i32>"* mpk_immut noalias readonly align 8 dereferenceable(24) %collection), !dbg !1929
  br label %bb2, !dbg !1929

cleanup:                                          ; preds = %bb4, %bb3, %bb2, %bb1
  %18 = landingpad { i8*, i32 }
          cleanup
  %19 = extractvalue { i8*, i32 } %18, 0
  %20 = extractvalue { i8*, i32 } %18, 1
  %21 = getelementptr inbounds { i8*, i32 }, { i8*, i32 }* %0, i32 0, i32 0
  store i8* %19, i8** %21, align 8
  %22 = getelementptr inbounds { i8*, i32 }, { i8*, i32 }* %0, i32 0, i32 1
  store i32 %20, i32* %22, align 8
  br label %bb7
}

; Function Attrs: nounwind readnone speculatable willreturn
declare void @llvm.dbg.declare(metadata, metadata, metadata) #3

; Function Attrs: mpk_extern nounwind nonlazybind uwtable
declare i32 @rust_eh_personality(i32, i32, i64, %"unwind::libunwind::_Unwind_Exception"* mpk_unsafe, %"unwind::libunwind::_Unwind_Context"* mpk_unsafe) unnamed_addr #4

; std::rt::lang_start_internal
; Function Attrs: nonlazybind uwtable
declare i64 @_ZN3std2rt19lang_start_internal17h2677a686eee71786E({}* mpk_immut nonnull align 1, [3 x i64]* mpk_immut noalias readonly align 8 dereferenceable(24), i64, i8** mpk_immut) unnamed_addr #2

; core::fmt::Formatter::debug_list
; Function Attrs: nonlazybind uwtable
declare i128 @_ZN4core3fmt9Formatter10debug_list17h8147fa4f8cb43178E(%"std::fmt::Formatter"* align 8 dereferenceable(64)) unnamed_addr #2

; Function Attrs: argmemonly nounwind willreturn
declare void @llvm.memcpy.p0i8.p0i8.i64(i8* noalias nocapture writeonly, i8* noalias nocapture readonly, i64, i1 immarg) #5

; core::fmt::builders::DebugList::finish
; Function Attrs: nonlazybind uwtable
declare zeroext i1 @_ZN4core3fmt8builders9DebugList6finish17h1110a7134d6ce275E(%"std::fmt::DebugList"* align 8 dereferenceable(16)) unnamed_addr #2

; core::fmt::Formatter::debug_lower_hex
; Function Attrs: nonlazybind uwtable
declare zeroext i1 @_ZN4core3fmt9Formatter15debug_lower_hex17h6ddb5559176c6045E(%"std::fmt::Formatter"* mpk_immut noalias readonly align 8 dereferenceable(64)) unnamed_addr #2

; core::fmt::num::<impl core::fmt::LowerHex for i32>::fmt
; Function Attrs: nonlazybind uwtable
declare zeroext i1 @"_ZN4core3fmt3num53_$LT$impl$u20$core..fmt..LowerHex$u20$for$u20$i32$GT$3fmt17h3eaaf3997f8f438aE"(i32* mpk_immut noalias readonly align 4 dereferenceable(4), %"std::fmt::Formatter"* align 8 dereferenceable(64)) unnamed_addr #2

; core::fmt::Formatter::debug_upper_hex
; Function Attrs: nonlazybind uwtable
declare zeroext i1 @_ZN4core3fmt9Formatter15debug_upper_hex17h61a2e870dc3af9acE(%"std::fmt::Formatter"* mpk_immut noalias readonly align 8 dereferenceable(64)) unnamed_addr #2

; core::fmt::num::<impl core::fmt::UpperHex for i32>::fmt
; Function Attrs: nonlazybind uwtable
declare zeroext i1 @"_ZN4core3fmt3num53_$LT$impl$u20$core..fmt..UpperHex$u20$for$u20$i32$GT$3fmt17h08e994e256867223E"(i32* mpk_immut noalias readonly align 4 dereferenceable(4), %"std::fmt::Formatter"* align 8 dereferenceable(64)) unnamed_addr #2

; core::fmt::num::imp::<impl core::fmt::Display for i32>::fmt
; Function Attrs: nonlazybind uwtable
declare zeroext i1 @"_ZN4core3fmt3num3imp52_$LT$impl$u20$core..fmt..Display$u20$for$u20$i32$GT$3fmt17h614ff315f5bd3ea6E"(i32* mpk_immut noalias readonly align 4 dereferenceable(4), %"std::fmt::Formatter"* align 8 dereferenceable(64)) unnamed_addr #2

; core::fmt::builders::DebugList::entry
; Function Attrs: nonlazybind uwtable
declare align 8 dereferenceable(16) %"std::fmt::DebugList"* @_ZN4core3fmt8builders9DebugList5entry17h65db77502f12805cE(%"std::fmt::DebugList"* align 8 dereferenceable(16), {}* mpk_immut nonnull align 1, [3 x i64]* mpk_immut noalias readonly align 8 dereferenceable(24)) unnamed_addr #2

; Function Attrs: nounwind willreturn
declare void @llvm.assume(i1) #6

; Function Attrs: nounwind nonlazybind uwtable
declare mpk_unsafe i8* @__rust_alloc_zeroed(i64, i64) unnamed_addr #7

; alloc::alloc::handle_alloc_error
; Function Attrs: noreturn nounwind nonlazybind uwtable
declare void @_ZN5alloc5alloc18handle_alloc_error17h988aff758f9fc198E(i64, i64) unnamed_addr #8

; Function Attrs: nounwind nonlazybind uwtable
declare mpk_unsafe noalias i8* @__rust_alloc(i64, i64) unnamed_addr #7

; Function Attrs: nounwind nonlazybind uwtable
declare void @__rust_dealloc(i8* mpk_unsafe, i64, i64) unnamed_addr #7

; core::panicking::panic
; Function Attrs: cold noinline noreturn nonlazybind uwtable
declare void @_ZN4core9panicking5panic17hc14ab8d72efd34afE([0 x i8]* mpk_immut noalias nonnull readonly align 1, i64, %"std::panic::Location"* mpk_immut noalias readonly align 8 dereferenceable(24)) unnamed_addr #9

; std::io::stdio::_print
; Function Attrs: nonlazybind uwtable
declare void @_ZN3std2io5stdio6_print17h17f61b0c82890e70E(%"std::fmt::Arguments"* noalias nocapture dereferenceable(48)) unnamed_addr #2

; Function Attrs: mpk_extern nonlazybind
define i32 @main(i32 %0, i8** %1) unnamed_addr #10 {
top:
  %2 = load volatile i8, i8* getelementptr inbounds ([34 x i8], [34 x i8]* @__rustc_debug_gdb_scripts_section__, i32 0, i32 0), align 1
  %3 = sext i32 %0 to i64
; call std::rt::lang_start
  %4 = call i64 @_ZN3std2rt10lang_start17h1e0a93a87adbcf02E(void ()* @_ZN10simple_poc4main17h81ef23be539e64a2E, i64 %3, i8** %1)
  %5 = trunc i64 %4 to i32
  ret i32 %5
}

attributes #0 = { inlinehint nonlazybind uwtable "probe-stack"="__rust_probestack" "target-cpu"="x86-64" }
attributes #1 = { noinline nonlazybind uwtable "probe-stack"="__rust_probestack" "target-cpu"="x86-64" }
attributes #2 = { nonlazybind uwtable "probe-stack"="__rust_probestack" "target-cpu"="x86-64" }
attributes #3 = { nounwind readnone speculatable willreturn }
attributes #4 = { mpk_extern nounwind nonlazybind uwtable "probe-stack"="__rust_probestack" "target-cpu"="x86-64" }
attributes #5 = { argmemonly nounwind willreturn }
attributes #6 = { nounwind willreturn }
attributes #7 = { nounwind nonlazybind uwtable "probe-stack"="__rust_probestack" "target-cpu"="x86-64" }
attributes #8 = { noreturn nounwind nonlazybind uwtable "probe-stack"="__rust_probestack" "target-cpu"="x86-64" }
attributes #9 = { cold noinline noreturn nonlazybind uwtable "probe-stack"="__rust_probestack" "target-cpu"="x86-64" }
attributes #10 = { mpk_extern nonlazybind "target-cpu"="x86-64" }
attributes #11 = { noinline }

!llvm.module.flags = !{!19, !20, !21, !22}
!llvm.dbg.cu = !{!23}

!0 = !DIGlobalVariableExpression(var: !1, expr: !DIExpression())
!1 = distinct !DIGlobalVariable(name: "vtable", scope: null, file: !2, type: !3, isLocal: true, isDefinition: true)
!2 = !DIFile(filename: "<unknown>", directory: "")
!3 = !DICompositeType(tag: DW_TAG_structure_type, name: "vtable", file: !2, align: 64, flags: DIFlagArtificial, elements: !4, vtableHolder: !5, identifier: "vtable")
!4 = !{}
!5 = !DICompositeType(tag: DW_TAG_structure_type, name: "closure-0", scope: !6, file: !2, size: 64, align: 64, elements: !9, templateParams: !4, identifier: "aa8862690fe00a9665b4a8a79ef313a1")
!6 = !DINamespace(name: "lang_start", scope: !7)
!7 = !DINamespace(name: "rt", scope: !8)
!8 = !DINamespace(name: "std", scope: null)
!9 = !{!10}
!10 = !DIDerivedType(tag: DW_TAG_member, name: "__0", scope: !5, file: !2, baseType: !11, size: 64, align: 64)
!11 = !DIDerivedType(tag: DW_TAG_pointer_type, name: "fn()", baseType: !12, size: 64, align: 64, dwarfAddressSpace: 0)
!12 = !DISubroutineType(types: !13)
!13 = !{null}
!14 = !DIGlobalVariableExpression(var: !15, expr: !DIExpression())
!15 = distinct !DIGlobalVariable(name: "vtable", scope: null, file: !2, type: !16, isLocal: true, isDefinition: true)
!16 = !DICompositeType(tag: DW_TAG_structure_type, name: "vtable", file: !2, align: 64, flags: DIFlagArtificial, elements: !4, vtableHolder: !17, identifier: "vtable")
!17 = !DIDerivedType(tag: DW_TAG_pointer_type, name: "&i32", baseType: !18, size: 64, align: 64, dwarfAddressSpace: 0)
!18 = !DIBasicType(name: "i32", size: 32, encoding: DW_ATE_signed)
!19 = !{i32 7, !"PIC Level", i32 2}
!20 = !{i32 7, !"PIE Level", i32 2}
!21 = !{i32 2, !"RtLibUseGOT", i32 1}
!22 = !{i32 2, !"Debug Info Version", i32 3}
!23 = distinct !DICompileUnit(language: DW_LANG_Rust, file: !24, producer: "clang LLVM (rustc version 1.49.0-nightly)", isOptimized: false, runtimeVersion: 0, emissionKind: FullDebug, enums: !25, globals: !42)
!24 = !DIFile(filename: "src/main.rs", directory: "/home/martin/projects/metasafe/trust/poc/simple-poc")
!25 = !{!26, !33}
!26 = !DICompositeType(tag: DW_TAG_enumeration_type, name: "Result", scope: !27, file: !2, baseType: !29, size: 8, align: 8, flags: DIFlagEnumClass, elements: !30)
!27 = !DINamespace(name: "result", scope: !28)
!28 = !DINamespace(name: "core", scope: null)
!29 = !DIBasicType(name: "u8", size: 8, encoding: DW_ATE_unsigned)
!30 = !{!31, !32}
!31 = !DIEnumerator(name: "Ok", value: 0)
!32 = !DIEnumerator(name: "Err", value: 1)
!33 = !DICompositeType(tag: DW_TAG_enumeration_type, name: "Alignment", scope: !34, file: !2, baseType: !29, size: 8, align: 8, flags: DIFlagEnumClass, elements: !37)
!34 = !DINamespace(name: "v1", scope: !35)
!35 = !DINamespace(name: "rt", scope: !36)
!36 = !DINamespace(name: "fmt", scope: !28)
!37 = !{!38, !39, !40, !41}
!38 = !DIEnumerator(name: "Left", value: 0)
!39 = !DIEnumerator(name: "Right", value: 1)
!40 = !DIEnumerator(name: "Center", value: 2)
!41 = !DIEnumerator(name: "Unknown", value: 3)
!42 = !{!0, !14}
!43 = distinct !DISubprogram(name: "from<u8>", linkageName: "_ZN119_$LT$core..ptr..non_null..NonNull$LT$T$GT$$u20$as$u20$core..convert..From$LT$core..ptr..unique..Unique$LT$T$GT$$GT$$GT$4from17h6ca259d3d4f2f373E", scope: !45, file: !44, line: 562, type: !48, scopeLine: 562, flags: DIFlagPrototyped, spFlags: DISPFlagLocalToUnit | DISPFlagDefinition, unit: !23, templateParams: !54, retainedNodes: !63)
!44 = !DIFile(filename: "/home/martin/projects/metasafe/trust/rust/library/core/src/ptr/non_null.rs", directory: "", checksumkind: CSK_MD5, checksum: "6f668d2b15cd51a533d11eee138a93b9")
!45 = !DINamespace(name: "{{impl}}", scope: !46)
!46 = !DINamespace(name: "non_null", scope: !47)
!47 = !DINamespace(name: "ptr", scope: !28)
!48 = !DISubroutineType(types: !49)
!49 = !{!50, !56}
!50 = !DICompositeType(tag: DW_TAG_structure_type, name: "NonNull<u8>", scope: !46, file: !2, size: 64, align: 64, elements: !51, templateParams: !54, identifier: "3997f132e09f7935900835f4f1a62b1a")
!51 = !{!52}
!52 = !DIDerivedType(tag: DW_TAG_member, name: "pointer", scope: !50, file: !2, baseType: !53, size: 64, align: 64)
!53 = !DIDerivedType(tag: DW_TAG_pointer_type, name: "*const u8", baseType: !29, size: 64, align: 64, dwarfAddressSpace: 0)
!54 = !{!55}
!55 = !DITemplateTypeParameter(name: "T", type: !29)
!56 = !DICompositeType(tag: DW_TAG_structure_type, name: "Unique<u8>", scope: !57, file: !2, size: 64, align: 64, elements: !58, templateParams: !54, identifier: "ef552e339ba0869dfc4b8761de8dc4f3")
!57 = !DINamespace(name: "unique", scope: !47)
!58 = !{!59, !60}
!59 = !DIDerivedType(tag: DW_TAG_member, name: "pointer", scope: !56, file: !2, baseType: !53, size: 64, align: 64)
!60 = !DIDerivedType(tag: DW_TAG_member, name: "_marker", scope: !56, file: !2, baseType: !61, align: 8)
!61 = !DICompositeType(tag: DW_TAG_structure_type, name: "PhantomData<u8>", scope: !62, file: !2, align: 8, elements: !4, templateParams: !54, identifier: "ec789d1373f057819ce5ed3353ad808a")
!62 = !DINamespace(name: "marker", scope: !28)
!63 = !{!64}
!64 = !DILocalVariable(name: "unique", arg: 1, scope: !43, file: !44, line: 562, type: !56)
!65 = !DILocation(line: 562, column: 13, scope: !43)
!66 = !DILocation(line: 565, column: 41, scope: !43)
!67 = !DILocation(line: 565, column: 18, scope: !43)
!68 = !DILocation(line: 566, column: 6, scope: !43)
!69 = distinct !DISubprogram(name: "__rust_begin_short_backtrace<fn(),()>", linkageName: "_ZN3std10sys_common9backtrace28__rust_begin_short_backtrace17h086d01cd02b38412E", scope: !71, file: !70, line: 121, type: !73, scopeLine: 121, flags: DIFlagPrototyped, spFlags: DISPFlagLocalToUnit | DISPFlagDefinition, unit: !23, templateParams: !80, retainedNodes: !75)
!70 = !DIFile(filename: "/home/martin/projects/metasafe/trust/rust/library/std/src/sys_common/backtrace.rs", directory: "", checksumkind: CSK_MD5, checksum: "a66d3ea15c41bfcbfadc8617be007fe2")
!71 = !DINamespace(name: "backtrace", scope: !72)
!72 = !DINamespace(name: "sys_common", scope: !8)
!73 = !DISubroutineType(types: !74)
!74 = !{null, !11}
!75 = !{!76, !77}
!76 = !DILocalVariable(name: "f", arg: 1, scope: !69, file: !70, line: 121, type: !11)
!77 = !DILocalVariable(name: "result", scope: !78, file: !70, line: 125, type: !79, align: 1)
!78 = distinct !DILexicalBlock(scope: !69, file: !70, line: 125, column: 5)
!79 = !DIBasicType(name: "()", encoding: DW_ATE_unsigned)
!80 = !{!81, !82}
!81 = !DITemplateTypeParameter(name: "F", type: !11)
!82 = !DITemplateTypeParameter(name: "T", type: !79)
!83 = !DILocation(line: 125, column: 9, scope: !78)
!84 = !DILocation(line: 121, column: 43, scope: !69)
!85 = !DILocation(line: 125, column: 18, scope: !69)
!86 = !DILocation(line: 128, column: 5, scope: !78)
!87 = !DILocation(line: 131, column: 2, scope: !69)
!88 = !DILocation(line: 131, column: 1, scope: !69)
!89 = !DILocation(line: 121, column: 1, scope: !69)
!90 = distinct !DISubprogram(name: "lang_start<()>", linkageName: "_ZN3std2rt10lang_start17h1e0a93a87adbcf02E", scope: !7, file: !91, line: 60, type: !92, scopeLine: 60, flags: DIFlagPrototyped, spFlags: DISPFlagLocalToUnit | DISPFlagDefinition, unit: !23, templateParams: !100, retainedNodes: !96)
!91 = !DIFile(filename: "/home/martin/projects/metasafe/trust/rust/library/std/src/rt.rs", directory: "", checksumkind: CSK_MD5, checksum: "a29dbe91f6c44a4e9c1b3c06440e8785")
!92 = !DISubroutineType(types: !93)
!93 = !{!94, !11, !94, !95}
!94 = !DIBasicType(name: "isize", size: 64, encoding: DW_ATE_signed)
!95 = !DIDerivedType(tag: DW_TAG_pointer_type, name: "*const *const u8", baseType: !53, size: 64, align: 64, dwarfAddressSpace: 0)
!96 = !{!97, !98, !99}
!97 = !DILocalVariable(name: "main", arg: 1, scope: !90, file: !91, line: 61, type: !11)
!98 = !DILocalVariable(name: "argc", arg: 2, scope: !90, file: !91, line: 62, type: !94)
!99 = !DILocalVariable(name: "argv", arg: 3, scope: !90, file: !91, line: 63, type: !95)
!100 = !{!82}
!101 = !DILocation(line: 61, column: 5, scope: !90)
!102 = !DILocation(line: 62, column: 5, scope: !90)
!103 = !DILocation(line: 63, column: 5, scope: !90)
!104 = !DILocation(line: 66, column: 10, scope: !90)
!105 = !DILocation(line: 66, column: 9, scope: !90)
!106 = !DILocation(line: 65, column: 5, scope: !90)
!107 = !DILocation(line: 70, column: 2, scope: !90)
!108 = distinct !DISubprogram(name: "{{closure}}<()>", linkageName: "_ZN3std2rt10lang_start28_$u7b$$u7b$closure$u7d$$u7d$17hb9edd351df0b39baE", scope: !6, file: !91, line: 66, type: !109, scopeLine: 66, flags: DIFlagPrototyped, spFlags: DISPFlagLocalToUnit | DISPFlagDefinition, unit: !23, templateParams: !100, retainedNodes: !112)
!109 = !DISubroutineType(types: !110)
!110 = !{!18, !111}
!111 = !DIDerivedType(tag: DW_TAG_pointer_type, name: "&closure-0", baseType: !5, size: 64, align: 64, dwarfAddressSpace: 0)
!112 = !{!113}
!113 = !DILocalVariable(name: "main", scope: !108, file: !91, line: 61, type: !11, align: 8)
!114 = !DILocation(line: 61, column: 5, scope: !108)
!115 = !DILocation(line: 66, column: 77, scope: !108)
!116 = !DILocation(line: 66, column: 18, scope: !108)
!117 = !DILocation(line: 66, column: 18, scope: !108)
!118 = !DILocation(line: 66, column: 91, scope: !108)
!119 = distinct !DISubprogram(name: "as_i32", linkageName: "_ZN3std3sys4unix7process14process_common8ExitCode6as_i3217h24801695b7a3221cE", scope: !121, file: !120, line: 429, type: !128, scopeLine: 429, flags: DIFlagPrototyped, spFlags: DISPFlagLocalToUnit | DISPFlagDefinition, unit: !23, templateParams: !4, retainedNodes: !131)
!120 = !DIFile(filename: "/home/martin/projects/metasafe/trust/rust/library/std/src/sys/unix/process/process_common.rs", directory: "", checksumkind: CSK_MD5, checksum: "0e90531be854973cc338b563f3ec214e")
!121 = !DICompositeType(tag: DW_TAG_structure_type, name: "ExitCode", scope: !122, file: !2, size: 8, align: 8, elements: !126, templateParams: !4, identifier: "53d787a92c29e2e752fd822406329ad2")
!122 = !DINamespace(name: "process_common", scope: !123)
!123 = !DINamespace(name: "process", scope: !124)
!124 = !DINamespace(name: "unix", scope: !125)
!125 = !DINamespace(name: "sys", scope: !8)
!126 = !{!127}
!127 = !DIDerivedType(tag: DW_TAG_member, name: "__0", scope: !121, file: !2, baseType: !29, size: 8, align: 8)
!128 = !DISubroutineType(types: !129)
!129 = !{!18, !130}
!130 = !DIDerivedType(tag: DW_TAG_pointer_type, name: "&std::sys::unix::process::process_common::ExitCode", baseType: !121, size: 64, align: 64, dwarfAddressSpace: 0)
!131 = !{!132}
!132 = !DILocalVariable(name: "self", arg: 1, scope: !119, file: !120, line: 429, type: !130)
!133 = !DILocation(line: 429, column: 19, scope: !119)
!134 = !DILocation(line: 430, column: 9, scope: !119)
!135 = !DILocation(line: 430, column: 9, scope: !119)
!136 = !DILocation(line: 431, column: 6, scope: !119)
!137 = distinct !DISubprogram(name: "fmt<i32>", linkageName: "_ZN42_$LT$$RF$T$u20$as$u20$core..fmt..Debug$GT$3fmt17hfebfc05cfb285006E", scope: !139, file: !138, line: 1982, type: !140, scopeLine: 1982, flags: DIFlagPrototyped, spFlags: DISPFlagLocalToUnit | DISPFlagDefinition, unit: !23, templateParams: !182, retainedNodes: !179)
!138 = !DIFile(filename: "/home/martin/projects/metasafe/trust/rust/library/core/src/fmt/mod.rs", directory: "", checksumkind: CSK_MD5, checksum: "8383a2f1b977481a5e40ad3226309813")
!139 = !DINamespace(name: "{{impl}}", scope: !36)
!140 = !DISubroutineType(types: !141)
!141 = !{!26, !142, !143}
!142 = !DIDerivedType(tag: DW_TAG_pointer_type, name: "&&i32", baseType: !17, size: 64, align: 64, dwarfAddressSpace: 0)
!143 = !DIDerivedType(tag: DW_TAG_pointer_type, name: "&mut core::fmt::Formatter", baseType: !144, size: 64, align: 64, dwarfAddressSpace: 0)
!144 = !DICompositeType(tag: DW_TAG_structure_type, name: "Formatter", scope: !36, file: !2, size: 512, align: 64, elements: !145, templateParams: !4, identifier: "72cc253a698bcb338102a86db5f952b1")
!145 = !{!146, !148, !150, !151, !168, !169}
!146 = !DIDerivedType(tag: DW_TAG_member, name: "flags", scope: !144, file: !2, baseType: !147, size: 32, align: 32, offset: 384)
!147 = !DIBasicType(name: "u32", size: 32, encoding: DW_ATE_unsigned)
!148 = !DIDerivedType(tag: DW_TAG_member, name: "fill", scope: !144, file: !2, baseType: !149, size: 32, align: 32, offset: 416)
!149 = !DIBasicType(name: "char", size: 32, encoding: DW_ATE_unsigned_char)
!150 = !DIDerivedType(tag: DW_TAG_member, name: "align", scope: !144, file: !2, baseType: !33, size: 8, align: 8, offset: 448)
!151 = !DIDerivedType(tag: DW_TAG_member, name: "width", scope: !144, file: !2, baseType: !152, size: 128, align: 64)
!152 = !DICompositeType(tag: DW_TAG_structure_type, name: "Option<usize>", scope: !153, file: !2, size: 128, align: 64, elements: !154, identifier: "4f1562a4328538a6902740163975f068")
!153 = !DINamespace(name: "option", scope: !28)
!154 = !{!155}
!155 = !DICompositeType(tag: DW_TAG_variant_part, scope: !153, file: !2, size: 128, align: 64, elements: !156, templateParams: !159, identifier: "4f1562a4328538a6902740163975f068_variant_part", discriminator: !166)
!156 = !{!157, !162}
!157 = !DIDerivedType(tag: DW_TAG_member, name: "None", scope: !155, file: !2, baseType: !158, size: 128, align: 64, extraData: i64 0)
!158 = !DICompositeType(tag: DW_TAG_structure_type, name: "None", scope: !152, file: !2, size: 128, align: 64, elements: !4, templateParams: !159, identifier: "4f1562a4328538a6902740163975f068::None")
!159 = !{!160}
!160 = !DITemplateTypeParameter(name: "T", type: !161)
!161 = !DIBasicType(name: "usize", size: 64, encoding: DW_ATE_unsigned)
!162 = !DIDerivedType(tag: DW_TAG_member, name: "Some", scope: !155, file: !2, baseType: !163, size: 128, align: 64, extraData: i64 1)
!163 = !DICompositeType(tag: DW_TAG_structure_type, name: "Some", scope: !152, file: !2, size: 128, align: 64, elements: !164, templateParams: !159, identifier: "4f1562a4328538a6902740163975f068::Some")
!164 = !{!165}
!165 = !DIDerivedType(tag: DW_TAG_member, name: "__0", scope: !163, file: !2, baseType: !161, size: 64, align: 64, offset: 64)
!166 = !DIDerivedType(tag: DW_TAG_member, scope: !153, file: !2, baseType: !167, size: 64, align: 64, flags: DIFlagArtificial)
!167 = !DIBasicType(name: "u64", size: 64, encoding: DW_ATE_unsigned)
!168 = !DIDerivedType(tag: DW_TAG_member, name: "precision", scope: !144, file: !2, baseType: !152, size: 128, align: 64, offset: 128)
!169 = !DIDerivedType(tag: DW_TAG_member, name: "buf", scope: !144, file: !2, baseType: !170, size: 128, align: 64, offset: 256)
!170 = !DICompositeType(tag: DW_TAG_structure_type, name: "&mut Write", scope: !36, file: !2, size: 128, align: 64, elements: !171, templateParams: !4, identifier: "11abaae20dd75d6b6756072db2a971f0")
!171 = !{!172, !174}
!172 = !DIDerivedType(tag: DW_TAG_member, name: "pointer", scope: !170, file: !2, baseType: !173, size: 64, align: 64, flags: DIFlagArtificial)
!173 = !DIDerivedType(tag: DW_TAG_pointer_type, name: "*mut u8", baseType: !29, size: 64, align: 64, dwarfAddressSpace: 0)
!174 = !DIDerivedType(tag: DW_TAG_member, name: "vtable", scope: !170, file: !2, baseType: !175, size: 64, align: 64, offset: 64, flags: DIFlagArtificial)
!175 = !DIDerivedType(tag: DW_TAG_pointer_type, name: "&[usize; 3]", baseType: !176, size: 64, align: 64, dwarfAddressSpace: 0)
!176 = !DICompositeType(tag: DW_TAG_array_type, baseType: !161, size: 192, align: 64, elements: !177)
!177 = !{!178}
!178 = !DISubrange(count: 3, lowerBound: 0)
!179 = !{!180, !181}
!180 = !DILocalVariable(name: "self", arg: 1, scope: !137, file: !138, line: 1982, type: !142)
!181 = !DILocalVariable(name: "f", arg: 2, scope: !137, file: !138, line: 1982, type: !143)
!182 = !{!183}
!183 = !DITemplateTypeParameter(name: "T", type: !18)
!184 = !DILocation(line: 1982, column: 20, scope: !137)
!185 = !DILocation(line: 1982, column: 27, scope: !137)
!186 = !DILocation(line: 1982, column: 71, scope: !137)
!187 = !DILocation(line: 1982, column: 62, scope: !137)
!188 = !DILocation(line: 1982, column: 84, scope: !137)
!189 = distinct !DISubprogram(name: "fmt<i32>", linkageName: "_ZN48_$LT$$u5b$T$u5d$$u20$as$u20$core..fmt..Debug$GT$3fmt17he8eff0ea630990eeE", scope: !139, file: !138, line: 2170, type: !190, scopeLine: 2170, flags: DIFlagPrototyped, spFlags: DISPFlagLocalToUnit | DISPFlagDefinition, unit: !23, templateParams: !182, retainedNodes: !197)
!190 = !DISubroutineType(types: !191)
!191 = !{!26, !192, !143}
!192 = !DICompositeType(tag: DW_TAG_structure_type, name: "&[i32]", file: !2, size: 128, align: 64, elements: !193, templateParams: !4, identifier: "eb06f4cf6efdc2bd8df73753b82fb221")
!193 = !{!194, !196}
!194 = !DIDerivedType(tag: DW_TAG_member, name: "data_ptr", scope: !192, file: !2, baseType: !195, size: 64, align: 64)
!195 = !DIDerivedType(tag: DW_TAG_pointer_type, name: "*const i32", baseType: !18, size: 64, align: 64, dwarfAddressSpace: 0)
!196 = !DIDerivedType(tag: DW_TAG_member, name: "length", scope: !192, file: !2, baseType: !161, size: 64, align: 64, offset: 64)
!197 = !{!198, !199}
!198 = !DILocalVariable(name: "self", arg: 1, scope: !189, file: !138, line: 2170, type: !192)
!199 = !DILocalVariable(name: "f", arg: 2, scope: !189, file: !138, line: 2170, type: !143)
!200 = !DILocation(line: 2170, column: 12, scope: !189)
!201 = !DILocation(line: 2170, column: 19, scope: !189)
!202 = !DILocation(line: 2171, column: 9, scope: !189)
!203 = !DILocation(line: 2171, column: 32, scope: !189)
!204 = !DILocation(line: 2171, column: 9, scope: !189)
!205 = !DILocation(line: 2171, column: 9, scope: !189)
!206 = !DILocation(line: 2172, column: 6, scope: !189)
!207 = distinct !DISubprogram(name: "copy_nonoverlapping<alloc::alloc::Global>", linkageName: "_ZN4core10intrinsics19copy_nonoverlapping17hb0ab29d3176509b4E", scope: !209, file: !208, line: 1844, type: !210, scopeLine: 1844, flags: DIFlagPrototyped, spFlags: DISPFlagLocalToUnit | DISPFlagDefinition, unit: !23, templateParams: !221, retainedNodes: !217)
!208 = !DIFile(filename: "/home/martin/projects/metasafe/trust/rust/library/core/src/intrinsics.rs", directory: "", checksumkind: CSK_MD5, checksum: "b53a02ce6b8b693f340d3cc526067597")
!209 = !DINamespace(name: "intrinsics", scope: !28)
!210 = !DISubroutineType(types: !211)
!211 = !{null, !212, !216, !161}
!212 = !DIDerivedType(tag: DW_TAG_pointer_type, name: "*const alloc::alloc::Global", baseType: !213, size: 64, align: 64, dwarfAddressSpace: 0)
!213 = !DICompositeType(tag: DW_TAG_structure_type, name: "Global", scope: !214, file: !2, align: 8, elements: !4, templateParams: !4, identifier: "3ce541e574da2dfd753a769c9323f5f2")
!214 = !DINamespace(name: "alloc", scope: !215)
!215 = !DINamespace(name: "alloc", scope: null)
!216 = !DIDerivedType(tag: DW_TAG_pointer_type, name: "*mut alloc::alloc::Global", baseType: !213, size: 64, align: 64, dwarfAddressSpace: 0)
!217 = !{!218, !219, !220}
!218 = !DILocalVariable(name: "src", arg: 1, scope: !207, file: !208, line: 1844, type: !212)
!219 = !DILocalVariable(name: "dst", arg: 2, scope: !207, file: !208, line: 1844, type: !216)
!220 = !DILocalVariable(name: "count", arg: 3, scope: !207, file: !208, line: 1844, type: !161)
!221 = !{!222}
!222 = !DITemplateTypeParameter(name: "T", type: !213)
!223 = !DILocation(line: 1844, column: 38, scope: !207)
!224 = !DILocation(line: 1844, column: 53, scope: !207)
!225 = !DILocation(line: 1844, column: 66, scope: !207)
!226 = !DILocation(line: 1860, column: 14, scope: !207)
!227 = !DILocation(line: 1861, column: 2, scope: !207)
!228 = distinct !DISubprogram(name: "new<alloc::vec::Vec<i32>>", linkageName: "_ZN4core3fmt10ArgumentV13new17h0675ad4776c58079E", scope: !229, file: !138, line: 267, type: !238, scopeLine: 267, flags: DIFlagPrototyped, spFlags: DISPFlagLocalToUnit | DISPFlagDefinition, unit: !23, templateParams: !265, retainedNodes: !262)
!229 = !DICompositeType(tag: DW_TAG_structure_type, name: "ArgumentV1", scope: !36, file: !2, size: 128, align: 64, elements: !230, templateParams: !4, identifier: "60aa88aef9b94da48bdc728ffeb175a7")
!230 = !{!231, !234}
!231 = !DIDerivedType(tag: DW_TAG_member, name: "value", scope: !229, file: !2, baseType: !232, size: 64, align: 64)
!232 = !DIDerivedType(tag: DW_TAG_pointer_type, name: "&core::fmt::::Opaque", baseType: !233, size: 64, align: 64, dwarfAddressSpace: 0)
!233 = !DICompositeType(tag: DW_TAG_structure_type, name: "Opaque", file: !2, align: 8, elements: !4, identifier: "ca1a80f813214a055d8cdd6280f132d")
!234 = !DIDerivedType(tag: DW_TAG_member, name: "formatter", scope: !229, file: !2, baseType: !235, size: 64, align: 64, offset: 64)
!235 = !DIDerivedType(tag: DW_TAG_pointer_type, name: "fn(&core::fmt::::Opaque, &mut core::fmt::Formatter) -> core::result::Result<(), core::fmt::Error>", baseType: !236, size: 64, align: 64, dwarfAddressSpace: 0)
!236 = !DISubroutineType(types: !237)
!237 = !{!26, !232, !143}
!238 = !DISubroutineType(types: !239)
!239 = !{!229, !240, !259}
!240 = !DIDerivedType(tag: DW_TAG_pointer_type, name: "&alloc::vec::Vec<i32>", baseType: !241, size: 64, align: 64, dwarfAddressSpace: 0)
!241 = !DICompositeType(tag: DW_TAG_structure_type, name: "Vec<i32>", scope: !242, file: !2, size: 192, align: 64, elements: !243, templateParams: !182, identifier: "fd8441736524603a831c9348c361ba6f")
!242 = !DINamespace(name: "vec", scope: !215)
!243 = !{!244, !258}
!244 = !DIDerivedType(tag: DW_TAG_member, name: "buf", scope: !241, file: !2, baseType: !245, size: 128, align: 64)
!245 = !DICompositeType(tag: DW_TAG_structure_type, name: "RawVec<i32, alloc::alloc::Global>", scope: !246, file: !2, size: 128, align: 64, elements: !247, templateParams: !256, identifier: "84abe15dd3a072ba890d68a020aa2cb4")
!246 = !DINamespace(name: "raw_vec", scope: !215)
!247 = !{!248, !254, !255}
!248 = !DIDerivedType(tag: DW_TAG_member, name: "ptr", scope: !245, file: !2, baseType: !249, size: 64, align: 64)
!249 = !DICompositeType(tag: DW_TAG_structure_type, name: "Unique<i32>", scope: !57, file: !2, size: 64, align: 64, elements: !250, templateParams: !182, identifier: "385326087b0ad9a7e9a4e1f3963daaf2")
!250 = !{!251, !252}
!251 = !DIDerivedType(tag: DW_TAG_member, name: "pointer", scope: !249, file: !2, baseType: !195, size: 64, align: 64)
!252 = !DIDerivedType(tag: DW_TAG_member, name: "_marker", scope: !249, file: !2, baseType: !253, align: 8)
!253 = !DICompositeType(tag: DW_TAG_structure_type, name: "PhantomData<i32>", scope: !62, file: !2, align: 8, elements: !4, templateParams: !182, identifier: "4184003259183d39292f5dedec713a44")
!254 = !DIDerivedType(tag: DW_TAG_member, name: "cap", scope: !245, file: !2, baseType: !161, size: 64, align: 64, offset: 64)
!255 = !DIDerivedType(tag: DW_TAG_member, name: "alloc", scope: !245, file: !2, baseType: !213, align: 8)
!256 = !{!183, !257}
!257 = !DITemplateTypeParameter(name: "A", type: !213)
!258 = !DIDerivedType(tag: DW_TAG_member, name: "len", scope: !241, file: !2, baseType: !161, size: 64, align: 64, offset: 128)
!259 = !DIDerivedType(tag: DW_TAG_pointer_type, name: "fn(&alloc::vec::Vec<i32>, &mut core::fmt::Formatter) -> core::result::Result<(), core::fmt::Error>", baseType: !260, size: 64, align: 64, dwarfAddressSpace: 0)
!260 = !DISubroutineType(types: !261)
!261 = !{!26, !240, !143}
!262 = !{!263, !264}
!263 = !DILocalVariable(name: "x", arg: 1, scope: !228, file: !138, line: 267, type: !240)
!264 = !DILocalVariable(name: "f", arg: 2, scope: !228, file: !138, line: 267, type: !259)
!265 = !{!266}
!266 = !DITemplateTypeParameter(name: "T", type: !241)
!267 = !{!"Is smart pointer"}
!268 = !DILocation(line: 267, column: 23, scope: !228)
!269 = !DILocation(line: 267, column: 33, scope: !228)
!270 = !DILocation(line: 276, column: 42, scope: !228)
!271 = !DILocation(line: 276, column: 68, scope: !228)
!272 = !DILocation(line: 276, column: 18, scope: !228)
!273 = !DILocation(line: 276, column: 18, scope: !228)
!274 = !DILocation(line: 277, column: 6, scope: !228)
!275 = distinct !DISubprogram(name: "fmt", linkageName: "_ZN4core3fmt3num50_$LT$impl$u20$core..fmt..Debug$u20$for$u20$i32$GT$3fmt17h3b2561efc04dc72fE", scope: !277, file: !276, line: 185, type: !279, scopeLine: 185, flags: DIFlagPrototyped, spFlags: DISPFlagLocalToUnit | DISPFlagDefinition, unit: !23, templateParams: !4, retainedNodes: !281)
!276 = !DIFile(filename: "/home/martin/projects/metasafe/trust/rust/library/core/src/fmt/num.rs", directory: "", checksumkind: CSK_MD5, checksum: "7951d16ca52785c539c4c2c829418c58")
!277 = !DINamespace(name: "{{impl}}", scope: !278)
!278 = !DINamespace(name: "num", scope: !36)
!279 = !DISubroutineType(types: !280)
!280 = !{!26, !17, !143}
!281 = !{!282, !283}
!282 = !DILocalVariable(name: "self", arg: 1, scope: !275, file: !276, line: 185, type: !17)
!283 = !DILocalVariable(name: "f", arg: 2, scope: !275, file: !276, line: 185, type: !143)
!284 = !DILocation(line: 185, column: 20, scope: !275)
!285 = !DILocation(line: 185, column: 27, scope: !275)
!286 = !DILocation(line: 186, column: 20, scope: !275)
!287 = !DILocation(line: 186, column: 17, scope: !275)
!288 = !DILocation(line: 188, column: 27, scope: !275)
!289 = !DILocation(line: 187, column: 21, scope: !275)
!290 = !DILocation(line: 186, column: 17, scope: !275)
!291 = !DILocation(line: 188, column: 24, scope: !275)
!292 = !DILocation(line: 191, column: 21, scope: !275)
!293 = !DILocation(line: 189, column: 21, scope: !275)
!294 = !DILocation(line: 188, column: 24, scope: !275)
!295 = !DILocation(line: 188, column: 24, scope: !275)
!296 = !DILocation(line: 186, column: 17, scope: !275)
!297 = !DILocation(line: 193, column: 14, scope: !275)
!298 = !{i8 0, i8 2}
!299 = distinct !DISubprogram(name: "entries<&i32,core::slice::iter::Iter<i32>>", linkageName: "_ZN4core3fmt8builders9DebugList7entries17h0fa694d8dbacb2a1E", scope: !301, file: !300, line: 650, type: !311, scopeLine: 650, flags: DIFlagPrototyped, spFlags: DISPFlagLocalToUnit | DISPFlagDefinition, unit: !23, templateParams: !338, retainedNodes: !327)
!300 = !DIFile(filename: "/home/martin/projects/metasafe/trust/rust/library/core/src/fmt/builders.rs", directory: "", checksumkind: CSK_MD5, checksum: "4c37f9e2af02de65dbf37c9014c2fba8")
!301 = !DICompositeType(tag: DW_TAG_structure_type, name: "DebugList", scope: !302, file: !2, size: 128, align: 64, elements: !303, templateParams: !4, identifier: "8522cd331a2e2ab0117ad346c9a58bbe")
!302 = !DINamespace(name: "builders", scope: !36)
!303 = !{!304}
!304 = !DIDerivedType(tag: DW_TAG_member, name: "inner", scope: !301, file: !2, baseType: !305, size: 128, align: 64)
!305 = !DICompositeType(tag: DW_TAG_structure_type, name: "DebugInner", scope: !302, file: !2, size: 128, align: 64, elements: !306, templateParams: !4, identifier: "1d9042d5b3032024fcc3b52e6425e6f6")
!306 = !{!307, !308, !309}
!307 = !DIDerivedType(tag: DW_TAG_member, name: "fmt", scope: !305, file: !2, baseType: !143, size: 64, align: 64)
!308 = !DIDerivedType(tag: DW_TAG_member, name: "result", scope: !305, file: !2, baseType: !26, size: 8, align: 8, offset: 64)
!309 = !DIDerivedType(tag: DW_TAG_member, name: "has_fields", scope: !305, file: !2, baseType: !310, size: 8, align: 8, offset: 72)
!310 = !DIBasicType(name: "bool", size: 8, encoding: DW_ATE_boolean)
!311 = !DISubroutineType(types: !312)
!312 = !{!313, !313, !314}
!313 = !DIDerivedType(tag: DW_TAG_pointer_type, name: "&mut core::fmt::builders::DebugList", baseType: !301, size: 64, align: 64, dwarfAddressSpace: 0)
!314 = !DICompositeType(tag: DW_TAG_structure_type, name: "Iter<i32>", scope: !315, file: !2, size: 128, align: 64, elements: !317, templateParams: !182, identifier: "9a97bd589e50b70eed188fcb75cf6063")
!315 = !DINamespace(name: "iter", scope: !316)
!316 = !DINamespace(name: "slice", scope: !28)
!317 = !{!318, !322, !323}
!318 = !DIDerivedType(tag: DW_TAG_member, name: "ptr", scope: !314, file: !2, baseType: !319, size: 64, align: 64)
!319 = !DICompositeType(tag: DW_TAG_structure_type, name: "NonNull<i32>", scope: !46, file: !2, size: 64, align: 64, elements: !320, templateParams: !182, identifier: "5ab4e38138d71c6f103131d906cec7df")
!320 = !{!321}
!321 = !DIDerivedType(tag: DW_TAG_member, name: "pointer", scope: !319, file: !2, baseType: !195, size: 64, align: 64)
!322 = !DIDerivedType(tag: DW_TAG_member, name: "end", scope: !314, file: !2, baseType: !195, size: 64, align: 64, offset: 64)
!323 = !DIDerivedType(tag: DW_TAG_member, name: "_marker", scope: !314, file: !2, baseType: !324, align: 8)
!324 = !DICompositeType(tag: DW_TAG_structure_type, name: "PhantomData<&i32>", scope: !62, file: !2, align: 8, elements: !4, templateParams: !325, identifier: "a0e7c056433f26ea1300e73616ad373c")
!325 = !{!326}
!326 = !DITemplateTypeParameter(name: "T", type: !17)
!327 = !{!328, !329, !330, !332, !334, !336}
!328 = !DILocalVariable(name: "self", arg: 1, scope: !299, file: !300, line: 650, type: !313)
!329 = !DILocalVariable(name: "entries", arg: 2, scope: !299, file: !300, line: 650, type: !314)
!330 = !DILocalVariable(name: "iter", scope: !331, file: !300, line: 655, type: !314, align: 8)
!331 = distinct !DILexicalBlock(scope: !299, file: !300, line: 655, column: 9)
!332 = !DILocalVariable(name: "__next", scope: !333, file: !300, line: 655, type: !17, align: 8)
!333 = distinct !DILexicalBlock(scope: !331, file: !300, line: 655, column: 22)
!334 = !DILocalVariable(name: "val", scope: !335, file: !300, line: 655, type: !17, align: 8)
!335 = distinct !DILexicalBlock(scope: !333, file: !300, line: 655, column: 13)
!336 = !DILocalVariable(name: "entry", scope: !337, file: !300, line: 655, type: !17, align: 8)
!337 = distinct !DILexicalBlock(scope: !333, file: !300, line: 655, column: 22)
!338 = !{!339, !340}
!339 = !DITemplateTypeParameter(name: "D", type: !17)
!340 = !DITemplateTypeParameter(name: "I", type: !314)
!341 = !DILocation(line: 650, column: 26, scope: !299)
!342 = !DILocation(line: 650, column: 37, scope: !299)
!343 = !DILocation(line: 655, column: 22, scope: !331)
!344 = !DILocation(line: 655, column: 13, scope: !337)
!345 = !DILocation(line: 658, column: 9, scope: !299)
!346 = !DILocation(line: 655, column: 22, scope: !299)
!347 = !DILocation(line: 655, column: 22, scope: !299)
!348 = !DILocation(line: 655, column: 9, scope: !331)
!349 = !DILocation(line: 655, column: 22, scope: !333)
!350 = !DILocation(line: 655, column: 22, scope: !333)
!351 = !DILocation(line: 655, column: 13, scope: !333)
!352 = !DILocation(line: 655, column: 13, scope: !333)
!353 = !DILocation(line: 657, column: 9, scope: !331)
!354 = !DILocation(line: 657, column: 9, scope: !299)
!355 = !DILocation(line: 655, column: 22, scope: !333)
!356 = !DILocation(line: 655, column: 13, scope: !333)
!357 = !DILocation(line: 655, column: 13, scope: !335)
!358 = !DILocation(line: 655, column: 13, scope: !335)
!359 = !DILocation(line: 655, column: 13, scope: !335)
!360 = !DILocation(line: 655, column: 22, scope: !333)
!361 = !DILocation(line: 655, column: 22, scope: !333)
!362 = !DILocation(line: 655, column: 22, scope: !333)
!363 = !DILocation(line: 656, column: 24, scope: !337)
!364 = !DILocation(line: 656, column: 13, scope: !337)
!365 = !DILocation(line: 657, column: 9, scope: !333)
!366 = !DILocation(line: 657, column: 9, scope: !331)
!367 = !DILocation(line: 655, column: 9, scope: !331)
!368 = !DILocation(line: 659, column: 6, scope: !299)
!369 = !DILocation(line: 657, column: 9, scope: !333)
!370 = !DILocation(line: 657, column: 9, scope: !299)
!371 = !DILocation(line: 650, column: 5, scope: !299)
!372 = !DILocation(line: 657, column: 9, scope: !331)
!373 = !DILocation(line: 657, column: 9, scope: !331)
!374 = distinct !DISubprogram(name: "new_v1", linkageName: "_ZN4core3fmt9Arguments6new_v117h23e21629b32dcd95E", scope: !375, file: !138, line: 313, type: !437, scopeLine: 313, flags: DIFlagPrototyped, spFlags: DISPFlagLocalToUnit | DISPFlagDefinition, unit: !23, templateParams: !4, retainedNodes: !439)
!375 = !DICompositeType(tag: DW_TAG_structure_type, name: "Arguments", scope: !36, file: !2, size: 384, align: 64, elements: !376, templateParams: !4, identifier: "13e24069fc4c07bbb807120df80dbd40")
!376 = !{!377, !387, !431}
!377 = !DIDerivedType(tag: DW_TAG_member, name: "pieces", scope: !375, file: !2, baseType: !378, size: 128, align: 64)
!378 = !DICompositeType(tag: DW_TAG_structure_type, name: "&[&str]", file: !2, size: 128, align: 64, elements: !379, templateParams: !4, identifier: "e5181a2ba73cefd2b9372dc5646453a9")
!379 = !{!380, !386}
!380 = !DIDerivedType(tag: DW_TAG_member, name: "data_ptr", scope: !378, file: !2, baseType: !381, size: 64, align: 64)
!381 = !DIDerivedType(tag: DW_TAG_pointer_type, name: "*const &str", baseType: !382, size: 64, align: 64, dwarfAddressSpace: 0)
!382 = !DICompositeType(tag: DW_TAG_structure_type, name: "&str", file: !2, size: 128, align: 64, elements: !383, templateParams: !4, identifier: "7ef2a91eecc7bcf4b4aaea2dbce79437")
!383 = !{!384, !385}
!384 = !DIDerivedType(tag: DW_TAG_member, name: "data_ptr", scope: !382, file: !2, baseType: !53, size: 64, align: 64)
!385 = !DIDerivedType(tag: DW_TAG_member, name: "length", scope: !382, file: !2, baseType: !161, size: 64, align: 64, offset: 64)
!386 = !DIDerivedType(tag: DW_TAG_member, name: "length", scope: !378, file: !2, baseType: !161, size: 64, align: 64, offset: 64)
!387 = !DIDerivedType(tag: DW_TAG_member, name: "fmt", scope: !375, file: !2, baseType: !388, size: 128, align: 64, offset: 128)
!388 = !DICompositeType(tag: DW_TAG_structure_type, name: "Option<&[core::fmt::rt::v1::Argument]>", scope: !153, file: !2, size: 128, align: 64, elements: !389, identifier: "c845783e1e23a74dc1ae646fda4c68d4")
!389 = !{!390}
!390 = !DICompositeType(tag: DW_TAG_variant_part, scope: !153, file: !2, size: 128, align: 64, elements: !391, templateParams: !394, identifier: "c845783e1e23a74dc1ae646fda4c68d4_variant_part", discriminator: !166)
!391 = !{!392, !427}
!392 = !DIDerivedType(tag: DW_TAG_member, name: "None", scope: !390, file: !2, baseType: !393, size: 128, align: 64, extraData: i64 0)
!393 = !DICompositeType(tag: DW_TAG_structure_type, name: "None", scope: !388, file: !2, size: 128, align: 64, elements: !4, templateParams: !394, identifier: "c845783e1e23a74dc1ae646fda4c68d4::None")
!394 = !{!395}
!395 = !DITemplateTypeParameter(name: "T", type: !396)
!396 = !DICompositeType(tag: DW_TAG_structure_type, name: "&[core::fmt::rt::v1::Argument]", file: !2, size: 128, align: 64, elements: !397, templateParams: !4, identifier: "ec5964fb802e7646fd24819783c53277")
!397 = !{!398, !426}
!398 = !DIDerivedType(tag: DW_TAG_member, name: "data_ptr", scope: !396, file: !2, baseType: !399, size: 64, align: 64)
!399 = !DIDerivedType(tag: DW_TAG_pointer_type, name: "*const core::fmt::rt::v1::Argument", baseType: !400, size: 64, align: 64, dwarfAddressSpace: 0)
!400 = !DICompositeType(tag: DW_TAG_structure_type, name: "Argument", scope: !34, file: !2, size: 448, align: 64, elements: !401, templateParams: !4, identifier: "1e52b619853b0f764fd2b5df720ca88b")
!401 = !{!402, !403}
!402 = !DIDerivedType(tag: DW_TAG_member, name: "position", scope: !400, file: !2, baseType: !161, size: 64, align: 64)
!403 = !DIDerivedType(tag: DW_TAG_member, name: "format", scope: !400, file: !2, baseType: !404, size: 384, align: 64, offset: 64)
!404 = !DICompositeType(tag: DW_TAG_structure_type, name: "FormatSpec", scope: !34, file: !2, size: 384, align: 64, elements: !405, templateParams: !4, identifier: "b2e0e79975b61f42b2794109866f56")
!405 = !{!406, !407, !408, !409, !425}
!406 = !DIDerivedType(tag: DW_TAG_member, name: "fill", scope: !404, file: !2, baseType: !149, size: 32, align: 32, offset: 256)
!407 = !DIDerivedType(tag: DW_TAG_member, name: "align", scope: !404, file: !2, baseType: !33, size: 8, align: 8, offset: 320)
!408 = !DIDerivedType(tag: DW_TAG_member, name: "flags", scope: !404, file: !2, baseType: !147, size: 32, align: 32, offset: 288)
!409 = !DIDerivedType(tag: DW_TAG_member, name: "precision", scope: !404, file: !2, baseType: !410, size: 128, align: 64)
!410 = !DICompositeType(tag: DW_TAG_structure_type, name: "Count", scope: !34, file: !2, size: 128, align: 64, elements: !411, identifier: "7d07fed2ea3fc6c62fcdc81b588283ae")
!411 = !{!412}
!412 = !DICompositeType(tag: DW_TAG_variant_part, scope: !34, file: !2, size: 128, align: 64, elements: !413, templateParams: !4, identifier: "7d07fed2ea3fc6c62fcdc81b588283ae_variant_part", discriminator: !424)
!413 = !{!414, !418, !422}
!414 = !DIDerivedType(tag: DW_TAG_member, name: "Is", scope: !412, file: !2, baseType: !415, size: 128, align: 64, extraData: i64 0)
!415 = !DICompositeType(tag: DW_TAG_structure_type, name: "Is", scope: !410, file: !2, size: 128, align: 64, elements: !416, templateParams: !4, identifier: "7d07fed2ea3fc6c62fcdc81b588283ae::Is")
!416 = !{!417}
!417 = !DIDerivedType(tag: DW_TAG_member, name: "__0", scope: !415, file: !2, baseType: !161, size: 64, align: 64, offset: 64)
!418 = !DIDerivedType(tag: DW_TAG_member, name: "Param", scope: !412, file: !2, baseType: !419, size: 128, align: 64, extraData: i64 1)
!419 = !DICompositeType(tag: DW_TAG_structure_type, name: "Param", scope: !410, file: !2, size: 128, align: 64, elements: !420, templateParams: !4, identifier: "7d07fed2ea3fc6c62fcdc81b588283ae::Param")
!420 = !{!421}
!421 = !DIDerivedType(tag: DW_TAG_member, name: "__0", scope: !419, file: !2, baseType: !161, size: 64, align: 64, offset: 64)
!422 = !DIDerivedType(tag: DW_TAG_member, name: "Implied", scope: !412, file: !2, baseType: !423, size: 128, align: 64, extraData: i64 2)
!423 = !DICompositeType(tag: DW_TAG_structure_type, name: "Implied", scope: !410, file: !2, size: 128, align: 64, elements: !4, templateParams: !4, identifier: "7d07fed2ea3fc6c62fcdc81b588283ae::Implied")
!424 = !DIDerivedType(tag: DW_TAG_member, scope: !34, file: !2, baseType: !167, size: 64, align: 64, flags: DIFlagArtificial)
!425 = !DIDerivedType(tag: DW_TAG_member, name: "width", scope: !404, file: !2, baseType: !410, size: 128, align: 64, offset: 128)
!426 = !DIDerivedType(tag: DW_TAG_member, name: "length", scope: !396, file: !2, baseType: !161, size: 64, align: 64, offset: 64)
!427 = !DIDerivedType(tag: DW_TAG_member, name: "Some", scope: !390, file: !2, baseType: !428, size: 128, align: 64)
!428 = !DICompositeType(tag: DW_TAG_structure_type, name: "Some", scope: !388, file: !2, size: 128, align: 64, elements: !429, templateParams: !394, identifier: "c845783e1e23a74dc1ae646fda4c68d4::Some")
!429 = !{!430}
!430 = !DIDerivedType(tag: DW_TAG_member, name: "__0", scope: !428, file: !2, baseType: !396, size: 128, align: 64)
!431 = !DIDerivedType(tag: DW_TAG_member, name: "args", scope: !375, file: !2, baseType: !432, size: 128, align: 64, offset: 256)
!432 = !DICompositeType(tag: DW_TAG_structure_type, name: "&[core::fmt::ArgumentV1]", file: !2, size: 128, align: 64, elements: !433, templateParams: !4, identifier: "f5e4b31f6ecdda8d7336065352702e9c")
!433 = !{!434, !436}
!434 = !DIDerivedType(tag: DW_TAG_member, name: "data_ptr", scope: !432, file: !2, baseType: !435, size: 64, align: 64)
!435 = !DIDerivedType(tag: DW_TAG_pointer_type, name: "*const core::fmt::ArgumentV1", baseType: !229, size: 64, align: 64, dwarfAddressSpace: 0)
